
helloworld_kvm-arm64:     file format elf64-littleaarch64


Disassembly of section .text:

0000000040100000 <.text>:
    40100000:	d10103ff 	sub	sp, sp, #0x40
    40100004:	a9017bfd 	stp	x29, x30, [sp, #16]
    40100008:	a90257f6 	stp	x22, x21, [sp, #32]
    4010000c:	a9034ff4 	stp	x20, x19, [sp, #48]
    40100010:	910043fd 	add	x29, sp, #0x10
    40100014:	900000c2 	adrp	x2, 0x40118000
    40100018:	9124a042 	add	x2, x2, #0x928
    4010001c:	12800001 	mov	w1, #0xffffffff            	// #-1
    40100020:	aa0003f3 	mov	x19, x0
    40100024:	94002df7 	bl	0x4010b800
    40100028:	37f80880 	tbnz	w0, #31, 0x40100138
    4010002c:	2a0003f4 	mov	w20, w0
    40100030:	aa1303e0 	mov	x0, x19
    40100034:	2a1403e1 	mov	w1, w20
    40100038:	94002391 	bl	0x40108e7c
    4010003c:	7100101f 	cmp	w0, #0x4
    40100040:	540008c2 	b.cs	0x40100158  // b.hs, b.nlast
    40100044:	2a0003f5 	mov	w21, w0
    40100048:	aa1303e0 	mov	x0, x19
    4010004c:	2a1403e1 	mov	w1, w20
    40100050:	940023a4 	bl	0x40108ee0
    40100054:	7100101f 	cmp	w0, #0x4
    40100058:	54000902 	b.cs	0x40100178  // b.hs, b.nlast
    4010005c:	900000c2 	adrp	x2, 0x40118000
    40100060:	2a0003f6 	mov	w22, w0
    40100064:	91269842 	add	x2, x2, #0x9a6
    40100068:	d10013a3 	sub	x3, x29, #0x4
    4010006c:	aa1303e0 	mov	x0, x19
    40100070:	2a1403e1 	mov	w1, w20
    40100074:	94002b02 	bl	0x4010ac7c
    40100078:	b85fc3a6 	ldur	w6, [x29, #-4]
    4010007c:	aa0003e5 	mov	x5, x0
    40100080:	b4000460 	cbz	x0, 0x4010010c
    40100084:	0b1502c8 	add	w8, w22, w21
    40100088:	6b0808df 	cmp	w6, w8, lsl #2
    4010008c:	5400040b 	b.lt	0x4010010c  // b.tstop
    40100090:	f94000a9 	ldr	x9, [x5]
    40100094:	f00000ca 	adrp	x10, 0x4011b000
    40100098:	2a1f03e8 	mov	w8, wzr
    4010009c:	dac00d29 	rev	x9, x9
    401000a0:	f9000149 	str	x9, [x10]
    401000a4:	9100e129 	add	x9, x9, #0x38
    401000a8:	7940012b 	ldrh	w11, [x9]
    401000ac:	1215516b 	and	w11, w11, #0xfffff800
    401000b0:	7900012b 	strh	w11, [x9]
    401000b4:	f9400149 	ldr	x9, [x10]
    401000b8:	5280ffeb 	mov	w11, #0x7ff                 	// #2047
    401000bc:	91011129 	add	x9, x9, #0x44
    401000c0:	7900012b 	strh	w11, [x9]
    401000c4:	f9400149 	ldr	x9, [x10]
    401000c8:	9100c129 	add	x9, x9, #0x30
    401000cc:	79000128 	strh	w8, [x9]
    401000d0:	f9400148 	ldr	x8, [x10]
    401000d4:	9100b108 	add	x8, x8, #0x2c
    401000d8:	79400109 	ldrh	w9, [x8]
    401000dc:	12185d29 	and	w9, w9, #0xffffff00
    401000e0:	321b0529 	orr	w9, w9, #0x60
    401000e4:	79000109 	strh	w9, [x8]
    401000e8:	f9400148 	ldr	x8, [x10]
    401000ec:	52802029 	mov	w9, #0x101                 	// #257
    401000f0:	9100c108 	add	x8, x8, #0x30
    401000f4:	79000109 	strh	w9, [x8]
    401000f8:	a9434ff4 	ldp	x20, x19, [sp, #48]
    401000fc:	a94257f6 	ldp	x22, x21, [sp, #32]
    40100100:	a9417bfd 	ldp	x29, x30, [sp, #16]
    40100104:	910103ff 	add	sp, sp, #0x40
    40100108:	d65f03c0 	ret
    4010010c:	900000c1 	adrp	x1, 0x40118000
    40100110:	900000c2 	adrp	x2, 0x40118000
    40100114:	900000c4 	adrp	x4, 0x40118000
    40100118:	9124c821 	add	x1, x1, #0x932
    4010011c:	9124f442 	add	x2, x2, #0x93d
    40100120:	9126a884 	add	x4, x4, #0x9aa
    40100124:	52801043 	mov	w3, #0x82                  	// #130
    40100128:	2a1f03e0 	mov	w0, wzr
    4010012c:	94005077 	bl	0x40114308
    40100130:	52800060 	mov	w0, #0x3                   	// #3
    40100134:	94000bc5 	bl	0x40103048
    40100138:	900000c1 	adrp	x1, 0x40118000
    4010013c:	900000c2 	adrp	x2, 0x40118000
    40100140:	900000c4 	adrp	x4, 0x40118000
    40100144:	9124c821 	add	x1, x1, #0x932
    40100148:	9124f442 	add	x2, x2, #0x93d
    4010014c:	91251484 	add	x4, x4, #0x945
    40100150:	52800ec3 	mov	w3, #0x76                  	// #118
    40100154:	14000010 	b	0x40100194
    40100158:	900000c1 	adrp	x1, 0x40118000
    4010015c:	900000c2 	adrp	x2, 0x40118000
    40100160:	900000c4 	adrp	x4, 0x40118000
    40100164:	9124c821 	add	x1, x1, #0x932
    40100168:	9124f442 	add	x2, x2, #0x93d
    4010016c:	91257484 	add	x4, x4, #0x95d
    40100170:	52800f43 	mov	w3, #0x7a                  	// #122
    40100174:	14000008 	b	0x40100194
    40100178:	900000c1 	adrp	x1, 0x40118000
    4010017c:	900000c2 	adrp	x2, 0x40118000
    40100180:	900000c4 	adrp	x4, 0x40118000
    40100184:	9124c821 	add	x1, x1, #0x932
    40100188:	9124f442 	add	x2, x2, #0x93d
    4010018c:	91260c84 	add	x4, x4, #0x983
    40100190:	52800fc3 	mov	w3, #0x7e                  	// #126
    40100194:	2a1f03e0 	mov	w0, wzr
    40100198:	9400505c 	bl	0x40114308
    4010019c:	52800060 	mov	w0, #0x3                   	// #3
    401001a0:	94000baa 	bl	0x40103048
    401001a4:	340002e1 	cbz	w1, 0x40100200
    401001a8:	aa1f03e8 	mov	x8, xzr
    401001ac:	2a0103e9 	mov	w9, w1
    401001b0:	f00000ca 	adrp	x10, 0x4011b000
    401001b4:	528001ab 	mov	w11, #0xd                   	// #13
    401001b8:	3868680c 	ldrb	w12, [x0, x8]
    401001bc:	7100299f 	cmp	w12, #0xa
    401001c0:	540000e1 	b.ne	0x401001dc  // b.any
    401001c4:	f940014d 	ldr	x13, [x10]
    401001c8:	910061ad 	add	x13, x13, #0x18
    401001cc:	794001ad 	ldrh	w13, [x13]
    401001d0:	372fffad 	tbnz	w13, #5, 0x401001c4
    401001d4:	f940014d 	ldr	x13, [x10]
    401001d8:	790001ab 	strh	w11, [x13]
    401001dc:	f940014d 	ldr	x13, [x10]
    401001e0:	910061ad 	add	x13, x13, #0x18
    401001e4:	794001ad 	ldrh	w13, [x13]
    401001e8:	372fffad 	tbnz	w13, #5, 0x401001dc
    401001ec:	91000508 	add	x8, x8, #0x1
    401001f0:	eb09011f 	cmp	x8, x9
    401001f4:	f940014d 	ldr	x13, [x10]
    401001f8:	790001ac 	strh	w12, [x13]
    401001fc:	54fffde1 	b.ne	0x401001b8  // b.any
    40100200:	2a0103e0 	mov	w0, w1
    40100204:	d65f03c0 	ret
    40100208:	340002e1 	cbz	w1, 0x40100264
    4010020c:	aa1f03e8 	mov	x8, xzr
    40100210:	2a0103e9 	mov	w9, w1
    40100214:	f00000ca 	adrp	x10, 0x4011b000
    40100218:	528001ab 	mov	w11, #0xd                   	// #13
    4010021c:	3868680c 	ldrb	w12, [x0, x8]
    40100220:	7100299f 	cmp	w12, #0xa
    40100224:	540000e1 	b.ne	0x40100240  // b.any
    40100228:	f940014d 	ldr	x13, [x10]
    4010022c:	910061ad 	add	x13, x13, #0x18
    40100230:	794001ad 	ldrh	w13, [x13]
    40100234:	372fffad 	tbnz	w13, #5, 0x40100228
    40100238:	f940014d 	ldr	x13, [x10]
    4010023c:	790001ab 	strh	w11, [x13]
    40100240:	f940014d 	ldr	x13, [x10]
    40100244:	910061ad 	add	x13, x13, #0x18
    40100248:	794001ad 	ldrh	w13, [x13]
    4010024c:	372fffad 	tbnz	w13, #5, 0x40100240
    40100250:	91000508 	add	x8, x8, #0x1
    40100254:	eb09011f 	cmp	x8, x9
    40100258:	f940014d 	ldr	x13, [x10]
    4010025c:	790001ac 	strh	w12, [x13]
    40100260:	54fffde1 	b.ne	0x4010021c  // b.any
    40100264:	2a0103e0 	mov	w0, w1
    40100268:	d65f03c0 	ret
    4010026c:	34000201 	cbz	w1, 0x401002ac
    40100270:	aa0003e8 	mov	x8, x0
    40100274:	aa1f03e9 	mov	x9, xzr
    40100278:	2a0103e0 	mov	w0, w1
    4010027c:	f00000ca 	adrp	x10, 0x4011b000
    40100280:	f940014b 	ldr	x11, [x10]
    40100284:	9100616b 	add	x11, x11, #0x18
    40100288:	7940016b 	ldrh	w11, [x11]
    4010028c:	3720014b 	tbnz	w11, #4, 0x401002b4
    40100290:	f940014b 	ldr	x11, [x10]
    40100294:	7940016b 	ldrh	w11, [x11]
    40100298:	3829690b 	strb	w11, [x8, x9]
    4010029c:	91000529 	add	x9, x9, #0x1
    401002a0:	6b09001f 	cmp	w0, w9
    401002a4:	54fffee1 	b.ne	0x40100280  // b.any
    401002a8:	d65f03c0 	ret
    401002ac:	2a1f03e0 	mov	w0, wzr
    401002b0:	d65f03c0 	ret
    401002b4:	2a0903e0 	mov	w0, w9
    401002b8:	d65f03c0 	ret
    401002bc:	d503207f 	wfi
    401002c0:	d65f03c0 	ret
    401002c4:	d10283ff 	sub	sp, sp, #0xa0
    401002c8:	a9097bfd 	stp	x29, x30, [sp, #144]
    401002cc:	910243fd 	add	x29, sp, #0x90
    401002d0:	900001e8 	adrp	x8, 0x4013c000
    401002d4:	f9416108 	ldr	x8, [x8, #704]
    401002d8:	a9087fff 	stp	xzr, xzr, [sp, #128]
    401002dc:	a9077fff 	stp	xzr, xzr, [sp, #112]
    401002e0:	a9067fff 	stp	xzr, xzr, [sp, #96]
    401002e4:	a9057fff 	stp	xzr, xzr, [sp, #80]
    401002e8:	a9047fff 	stp	xzr, xzr, [sp, #64]
    401002ec:	a9037fff 	stp	xzr, xzr, [sp, #48]
    401002f0:	a9027fff 	stp	xzr, xzr, [sp, #32]
    401002f4:	a9017fff 	stp	xzr, xzr, [sp, #16]
    401002f8:	a9007fff 	stp	xzr, xzr, [sp]
    401002fc:	b4000128 	cbz	x8, 0x40100320
    40100300:	52800129 	mov	w9, #0x9                   	// #9
    40100304:	72b08009 	movk	w9, #0x8400, lsl #16
    40100308:	910003e0 	mov	x0, sp
    4010030c:	f90003e9 	str	x9, [sp]
    40100310:	d63f0100 	blr	x8
    40100314:	a9497bfd 	ldp	x29, x30, [sp, #144]
    40100318:	910283ff 	add	sp, sp, #0xa0
    4010031c:	d65f03c0 	ret
    40100320:	900000c1 	adrp	x1, 0x40118000
    40100324:	900000c2 	adrp	x2, 0x40118000
    40100328:	900000c4 	adrp	x4, 0x40118000
    4010032c:	9124c821 	add	x1, x1, #0x932
    40100330:	91271442 	add	x2, x2, #0x9c5
    40100334:	91274884 	add	x4, x4, #0x9d2
    40100338:	52800783 	mov	w3, #0x3c                  	// #60
    4010033c:	2a1f03e0 	mov	w0, wzr
    40100340:	94004ff2 	bl	0x40114308
    40100344:	d50342df 	msr	daifset, #0x2
    40100348:	d503207f 	wfi
    4010034c:	17ffffff 	b	0x40100348
    40100350:	d10283ff 	sub	sp, sp, #0xa0
    40100354:	a9097bfd 	stp	x29, x30, [sp, #144]
    40100358:	910243fd 	add	x29, sp, #0x90
    4010035c:	900001e8 	adrp	x8, 0x4013c000
    40100360:	f9416108 	ldr	x8, [x8, #704]
    40100364:	a9087fff 	stp	xzr, xzr, [sp, #128]
    40100368:	a9077fff 	stp	xzr, xzr, [sp, #112]
    4010036c:	a9067fff 	stp	xzr, xzr, [sp, #96]
    40100370:	a9057fff 	stp	xzr, xzr, [sp, #80]
    40100374:	a9047fff 	stp	xzr, xzr, [sp, #64]
    40100378:	a9037fff 	stp	xzr, xzr, [sp, #48]
    4010037c:	a9027fff 	stp	xzr, xzr, [sp, #32]
    40100380:	a9017fff 	stp	xzr, xzr, [sp, #16]
    40100384:	a9007fff 	stp	xzr, xzr, [sp]
    40100388:	b4000128 	cbz	x8, 0x401003ac
    4010038c:	52800109 	mov	w9, #0x8                   	// #8
    40100390:	72b08009 	movk	w9, #0x8400, lsl #16
    40100394:	910003e0 	mov	x0, sp
    40100398:	f90003e9 	str	x9, [sp]
    4010039c:	d63f0100 	blr	x8
    401003a0:	a9497bfd 	ldp	x29, x30, [sp, #144]
    401003a4:	910283ff 	add	sp, sp, #0xa0
    401003a8:	d65f03c0 	ret
    401003ac:	900000c1 	adrp	x1, 0x40118000
    401003b0:	900000c2 	adrp	x2, 0x40118000
    401003b4:	900000c4 	adrp	x4, 0x40118000
    401003b8:	9124c821 	add	x1, x1, #0x932
    401003bc:	91271442 	add	x2, x2, #0x9c5
    401003c0:	9127c084 	add	x4, x4, #0x9f0
    401003c4:	528009c3 	mov	w3, #0x4e                  	// #78
    401003c8:	2a1f03e0 	mov	w0, wzr
    401003cc:	94004fcf 	bl	0x40114308
    401003d0:	d50342df 	msr	daifset, #0x2
    401003d4:	d503207f 	wfi
    401003d8:	17ffffff 	b	0x401003d4
    401003dc:	d53b0024 	mrs	x4, ctr_el0
    401003e0:	d2800082 	mov	x2, #0x4                   	// #4
    401003e4:	d3504c83 	ubfx	x3, x4, #16, #4
    401003e8:	9ac32043 	lsl	x3, x2, x3
    401003ec:	d1000464 	sub	x4, x3, #0x1
    401003f0:	8a040002 	and	x2, x0, x4
    401003f4:	8b020021 	add	x1, x1, x2
    401003f8:	8a240000 	bic	x0, x0, x4
    401003fc:	d50b7e20 	dc	civac, x0
    40100400:	d503379f 	dsb	nsh
    40100404:	8b030000 	add	x0, x0, x3
    40100408:	eb030021 	subs	x1, x1, x3
    4010040c:	54ffff88 	b.hi	0x401003fc  // b.pmore
    40100410:	d5033fdf 	isb
    40100414:	d65f03c0 	ret
    40100418:	d53b0024 	mrs	x4, ctr_el0
    4010041c:	d2800082 	mov	x2, #0x4                   	// #4
    40100420:	d3504c83 	ubfx	x3, x4, #16, #4
    40100424:	9ac32043 	lsl	x3, x2, x3
    40100428:	d1000464 	sub	x4, x3, #0x1
    4010042c:	8a040002 	and	x2, x0, x4
    40100430:	8b020021 	add	x1, x1, x2
    40100434:	8a240000 	bic	x0, x0, x4
    40100438:	d5087620 	dc	ivac, x0
    4010043c:	d503379f 	dsb	nsh
    40100440:	8b030000 	add	x0, x0, x3
    40100444:	eb030021 	subs	x1, x1, x3
    40100448:	54ffff88 	b.hi	0x40100438  // b.pmore
    4010044c:	d5033fdf 	isb
    40100450:	d65f03c0 	ret
    40100454:	d10283ff 	sub	sp, sp, #0xa0
    40100458:	a9097bfd 	stp	x29, x30, [sp, #144]
    4010045c:	910243fd 	add	x29, sp, #0x90
    40100460:	f00000c8 	adrp	x8, 0x4011b000
    40100464:	f9400508 	ldr	x8, [x8, #8]
    40100468:	52800049 	mov	w9, #0x2                   	// #2
    4010046c:	72a00029 	movk	w9, #0x1, lsl #16
    40100470:	910003e0 	mov	x0, sp
    40100474:	eb09011f 	cmp	x8, x9
    40100478:	52b00008 	mov	w8, #0x80000000            	// #-2147483648
    4010047c:	52b00029 	mov	w9, #0x80010000            	// #-2147418112
    40100480:	9a888128 	csel	x8, x9, x8, hi  // hi = pmore
    40100484:	f00000c9 	adrp	x9, 0x4011b000
    40100488:	f9400929 	ldr	x9, [x9, #16]
    4010048c:	a9087fff 	stp	xzr, xzr, [sp, #128]
    40100490:	a9077fff 	stp	xzr, xzr, [sp, #112]
    40100494:	a9067fff 	stp	xzr, xzr, [sp, #96]
    40100498:	a9057fff 	stp	xzr, xzr, [sp, #80]
    4010049c:	a9047fff 	stp	xzr, xzr, [sp, #64]
    401004a0:	a9037fff 	stp	xzr, xzr, [sp, #48]
    401004a4:	a9027fff 	stp	xzr, xzr, [sp, #32]
    401004a8:	a9017fff 	stp	xzr, xzr, [sp, #16]
    401004ac:	a9007fe8 	stp	x8, xzr, [sp]
    401004b0:	d63f0120 	blr	x9
    401004b4:	f94003e0 	ldr	x0, [sp]
    401004b8:	a9497bfd 	ldp	x29, x30, [sp, #144]
    401004bc:	910283ff 	add	sp, sp, #0xa0
    401004c0:	d65f03c0 	ret
    401004c4:	f00000c8 	adrp	x8, 0x4011b000
    401004c8:	f9400508 	ldr	x8, [x8, #8]
    401004cc:	52800069 	mov	w9, #0x3                   	// #3
    401004d0:	72a00029 	movk	w9, #0x1, lsl #16
    401004d4:	eb09011f 	cmp	x8, x9
    401004d8:	54000083 	b.cc	0x401004e8  // b.lo, b.ul, b.last
    401004dc:	f9400008 	ldr	x8, [x0]
    401004e0:	b2700108 	orr	x8, x8, #0x10000
    401004e4:	f9000008 	str	x8, [x0]
    401004e8:	f00000c8 	adrp	x8, 0x4011b000
    401004ec:	f9400901 	ldr	x1, [x8, #16]
    401004f0:	d61f0020 	br	x1
    401004f4:	d10283ff 	sub	sp, sp, #0xa0
    401004f8:	a9097bfd 	stp	x29, x30, [sp, #144]
    401004fc:	910243fd 	add	x29, sp, #0x90
    40100500:	f00000c8 	adrp	x8, 0x4011b000
    40100504:	f9400508 	ldr	x8, [x8, #8]
    40100508:	52800069 	mov	w9, #0x3                   	// #3
    4010050c:	72a00029 	movk	w9, #0x1, lsl #16
    40100510:	a9087fff 	stp	xzr, xzr, [sp, #128]
    40100514:	eb09011f 	cmp	x8, x9
    40100518:	320107e8 	mov	w8, #0x80000001            	// #-2147483647
    4010051c:	a9077fff 	stp	xzr, xzr, [sp, #112]
    40100520:	a9067fff 	stp	xzr, xzr, [sp, #96]
    40100524:	a9057fff 	stp	xzr, xzr, [sp, #80]
    40100528:	a9047fff 	stp	xzr, xzr, [sp, #64]
    4010052c:	a9037fff 	stp	xzr, xzr, [sp, #48]
    40100530:	a9027fff 	stp	xzr, xzr, [sp, #32]
    40100534:	a9017fff 	stp	xzr, xzr, [sp, #16]
    40100538:	a90003e8 	stp	x8, x0, [sp]
    4010053c:	54000063 	b.cc	0x40100548  // b.lo, b.ul, b.last
    40100540:	91404108 	add	x8, x8, #0x10, lsl #12
    40100544:	f90003e8 	str	x8, [sp]
    40100548:	f00000c8 	adrp	x8, 0x4011b000
    4010054c:	f9400908 	ldr	x8, [x8, #16]
    40100550:	910003e0 	mov	x0, sp
    40100554:	d63f0100 	blr	x8
    40100558:	f94003e0 	ldr	x0, [sp]
    4010055c:	a9497bfd 	ldp	x29, x30, [sp, #144]
    40100560:	910283ff 	add	sp, sp, #0xa0
    40100564:	d65f03c0 	ret
    40100568:	d10283ff 	sub	sp, sp, #0xa0
    4010056c:	a9097bfd 	stp	x29, x30, [sp, #144]
    40100570:	910243fd 	add	x29, sp, #0x90
    40100574:	f00000c8 	adrp	x8, 0x4011b000
    40100578:	f9400508 	ldr	x8, [x8, #8]
    4010057c:	52800069 	mov	w9, #0x3                   	// #3
    40100580:	72a00029 	movk	w9, #0x1, lsl #16
    40100584:	a9087fff 	stp	xzr, xzr, [sp, #128]
    40100588:	eb09011f 	cmp	x8, x9
    4010058c:	52800048 	mov	w8, #0x2                   	// #2
    40100590:	72b00008 	movk	w8, #0x8000, lsl #16
    40100594:	a9077fff 	stp	xzr, xzr, [sp, #112]
    40100598:	a9067fff 	stp	xzr, xzr, [sp, #96]
    4010059c:	a9057fff 	stp	xzr, xzr, [sp, #80]
    401005a0:	a9047fff 	stp	xzr, xzr, [sp, #64]
    401005a4:	a9037fff 	stp	xzr, xzr, [sp, #48]
    401005a8:	a9027fff 	stp	xzr, xzr, [sp, #32]
    401005ac:	a9017fff 	stp	xzr, xzr, [sp, #16]
    401005b0:	a90003e8 	stp	x8, x0, [sp]
    401005b4:	54000063 	b.cc	0x401005c0  // b.lo, b.ul, b.last
    401005b8:	91404108 	add	x8, x8, #0x10, lsl #12
    401005bc:	f90003e8 	str	x8, [sp]
    401005c0:	f00000c8 	adrp	x8, 0x4011b000
    401005c4:	f9400908 	ldr	x8, [x8, #16]
    401005c8:	910003e0 	mov	x0, sp
    401005cc:	d63f0100 	blr	x8
    401005d0:	f94003e0 	ldr	x0, [sp]
    401005d4:	a9497bfd 	ldp	x29, x30, [sp, #144]
    401005d8:	910283ff 	add	sp, sp, #0xa0
    401005dc:	d65f03c0 	ret
    401005e0:	d10283ff 	sub	sp, sp, #0xa0
    401005e4:	a9097bfd 	stp	x29, x30, [sp, #144]
    401005e8:	910243fd 	add	x29, sp, #0x90
    401005ec:	f00000c8 	adrp	x8, 0x4011b000
    401005f0:	f9400508 	ldr	x8, [x8, #8]
    401005f4:	5280004a 	mov	w10, #0x2                   	// #2
    401005f8:	72a0002a 	movk	w10, #0x1, lsl #16
    401005fc:	f00000cb 	adrp	x11, 0x4011b000
    40100600:	eb0a011f 	cmp	x8, x10
    40100604:	f940096a 	ldr	x10, [x11, #16]
    40100608:	320183e9 	mov	w9, #0x80008000            	// #-2147450880
    4010060c:	b2700128 	orr	x8, x9, #0x10000
    40100610:	9a898108 	csel	x8, x8, x9, hi  // hi = pmore
    40100614:	910003e0 	mov	x0, sp
    40100618:	a9087fff 	stp	xzr, xzr, [sp, #128]
    4010061c:	a9077fff 	stp	xzr, xzr, [sp, #112]
    40100620:	a9067fff 	stp	xzr, xzr, [sp, #96]
    40100624:	a9057fff 	stp	xzr, xzr, [sp, #80]
    40100628:	a9047fff 	stp	xzr, xzr, [sp, #64]
    4010062c:	a9037fff 	stp	xzr, xzr, [sp, #48]
    40100630:	a9027fff 	stp	xzr, xzr, [sp, #32]
    40100634:	a9017fff 	stp	xzr, xzr, [sp, #16]
    40100638:	a9007fe8 	stp	x8, xzr, [sp]
    4010063c:	d63f0140 	blr	x10
    40100640:	a9497bfd 	ldp	x29, x30, [sp, #144]
    40100644:	910283ff 	add	sp, sp, #0xa0
    40100648:	d65f03c0 	ret
    4010064c:	d10283ff 	sub	sp, sp, #0xa0
    40100650:	a9097bfd 	stp	x29, x30, [sp, #144]
    40100654:	910243fd 	add	x29, sp, #0x90
    40100658:	f00000c8 	adrp	x8, 0x4011b000
    4010065c:	f9400508 	ldr	x8, [x8, #8]
    40100660:	5280004a 	mov	w10, #0x2                   	// #2
    40100664:	72a0002a 	movk	w10, #0x1, lsl #16
    40100668:	f00000cb 	adrp	x11, 0x4011b000
    4010066c:	eb0a011f 	cmp	x8, x10
    40100670:	f940096a 	ldr	x10, [x11, #16]
    40100674:	32013fe9 	mov	w9, #0x80007fff            	// #-2147450881
    40100678:	b2700128 	orr	x8, x9, #0x10000
    4010067c:	9a898108 	csel	x8, x8, x9, hi  // hi = pmore
    40100680:	910003e0 	mov	x0, sp
    40100684:	a9087fff 	stp	xzr, xzr, [sp, #128]
    40100688:	a9077fff 	stp	xzr, xzr, [sp, #112]
    4010068c:	a9067fff 	stp	xzr, xzr, [sp, #96]
    40100690:	a9057fff 	stp	xzr, xzr, [sp, #80]
    40100694:	a9047fff 	stp	xzr, xzr, [sp, #64]
    40100698:	a9037fff 	stp	xzr, xzr, [sp, #48]
    4010069c:	a9027fff 	stp	xzr, xzr, [sp, #32]
    401006a0:	a9017fff 	stp	xzr, xzr, [sp, #16]
    401006a4:	a9007fe8 	stp	x8, xzr, [sp]
    401006a8:	d63f0140 	blr	x10
    401006ac:	a9497bfd 	ldp	x29, x30, [sp, #144]
    401006b0:	910283ff 	add	sp, sp, #0xa0
    401006b4:	d65f03c0 	ret
    401006b8:	d10283ff 	sub	sp, sp, #0xa0
    401006bc:	a9097bfd 	stp	x29, x30, [sp, #144]
    401006c0:	910243fd 	add	x29, sp, #0x90
    401006c4:	f00000c9 	adrp	x9, 0x4011b000
    401006c8:	529fe00a 	mov	w10, #0xff00                	// #65280
    401006cc:	f9400529 	ldr	x9, [x9, #8]
    401006d0:	eb0a003f 	cmp	x1, x10
    401006d4:	1a9f07ea 	cset	w10, ne  // ne = any
    401006d8:	f100001f 	cmp	x0, #0x0
    401006dc:	1a9f07eb 	cset	w11, ne  // ne = any
    401006e0:	320083e8 	mov	w8, #0x10001               	// #65537
    401006e4:	0a0a016a 	and	w10, w11, w10
    401006e8:	a9087fff 	stp	xzr, xzr, [sp, #128]
    401006ec:	a9077fff 	stp	xzr, xzr, [sp, #112]
    401006f0:	a9067fff 	stp	xzr, xzr, [sp, #96]
    401006f4:	a9057fff 	stp	xzr, xzr, [sp, #80]
    401006f8:	a9047fff 	stp	xzr, xzr, [sp, #64]
    401006fc:	a9037fff 	stp	xzr, xzr, [sp, #48]
    40100700:	a9027fff 	stp	xzr, xzr, [sp, #32]
    40100704:	a9017fff 	stp	xzr, xzr, [sp, #16]
    40100708:	a9007fff 	stp	xzr, xzr, [sp]
    4010070c:	370000aa 	tbnz	w10, #0, 0x40100720
    40100710:	eb08013f 	cmp	x9, x8
    40100714:	54000069 	b.ls	0x40100720  // b.plast
    40100718:	92800000 	mov	x0, #0xffffffffffffffff    	// #-1
    4010071c:	14000010 	b	0x4010075c
    40100720:	91000508 	add	x8, x8, #0x1
    40100724:	f00000cd 	adrp	x13, 0x4011b000
    40100728:	53081c0a 	lsl	w10, w0, #24
    4010072c:	eb08013f 	cmp	x9, x8
    40100730:	f94009a8 	ldr	x8, [x13, #16]
    40100734:	52b0000b 	mov	w11, #0x80000000            	// #-2147483648
    40100738:	52b0002c 	mov	w12, #0x80010000            	// #-2147418112
    4010073c:	9268154a 	and	x10, x10, #0x3f000000
    40100740:	b3403c2a 	bfxil	x10, x1, #0, #16
    40100744:	9a8b8189 	csel	x9, x12, x11, hi  // hi = pmore
    40100748:	aa090149 	orr	x9, x10, x9
    4010074c:	910003e0 	mov	x0, sp
    40100750:	f90003e9 	str	x9, [sp]
    40100754:	d63f0100 	blr	x8
    40100758:	f94003e0 	ldr	x0, [sp]
    4010075c:	a9497bfd 	ldp	x29, x30, [sp, #144]
    40100760:	910283ff 	add	sp, sp, #0xa0
    40100764:	d65f03c0 	ret
    40100768:	f9400008 	ldr	x8, [x0]
    4010076c:	90000009 	adrp	x9, 0x40100000
    40100770:	9000000a 	adrp	x10, 0x40100000
    40100774:	911e7129 	add	x9, x9, #0x79c
    40100778:	911fe14a 	add	x10, x10, #0x7f8
    4010077c:	f100051f 	cmp	x8, #0x1
    40100780:	9a890148 	csel	x8, x10, x9, eq  // eq = none
    40100784:	f00000c9 	adrp	x9, 0x4011b000
    40100788:	f9000928 	str	x8, [x9, #16]
    4010078c:	f9400408 	ldr	x8, [x0, #8]
    40100790:	f00000c9 	adrp	x9, 0x4011b000
    40100794:	f9000528 	str	x8, [x9, #8]
    40100798:	d65f03c0 	ret
    4010079c:	f81f0ff3 	str	x19, [sp, #-16]!
    401007a0:	aa0003f3 	mov	x19, x0
    401007a4:	a9400660 	ldp	x0, x1, [x19]
    401007a8:	a9410e62 	ldp	x2, x3, [x19, #16]
    401007ac:	a9421664 	ldp	x4, x5, [x19, #32]
    401007b0:	a9431e66 	ldp	x6, x7, [x19, #48]
    401007b4:	a9442668 	ldp	x8, x9, [x19, #64]
    401007b8:	a9452e6a 	ldp	x10, x11, [x19, #80]
    401007bc:	a946366c 	ldp	x12, x13, [x19, #96]
    401007c0:	a9473e6e 	ldp	x14, x15, [x19, #112]
    401007c4:	a9484670 	ldp	x16, x17, [x19, #128]
    401007c8:	d4000003 	smc	#0x0
    401007cc:	a9000660 	stp	x0, x1, [x19]
    401007d0:	a9010e62 	stp	x2, x3, [x19, #16]
    401007d4:	a9021664 	stp	x4, x5, [x19, #32]
    401007d8:	a9031e66 	stp	x6, x7, [x19, #48]
    401007dc:	a9042668 	stp	x8, x9, [x19, #64]
    401007e0:	a9052e6a 	stp	x10, x11, [x19, #80]
    401007e4:	a906366c 	stp	x12, x13, [x19, #96]
    401007e8:	a9073e6e 	stp	x14, x15, [x19, #112]
    401007ec:	a9084670 	stp	x16, x17, [x19, #128]
    401007f0:	f84107f3 	ldr	x19, [sp], #16
    401007f4:	d65f03c0 	ret
    401007f8:	f81f0ff3 	str	x19, [sp, #-16]!
    401007fc:	aa0003f3 	mov	x19, x0
    40100800:	a9400660 	ldp	x0, x1, [x19]
    40100804:	a9410e62 	ldp	x2, x3, [x19, #16]
    40100808:	a9421664 	ldp	x4, x5, [x19, #32]
    4010080c:	a9431e66 	ldp	x6, x7, [x19, #48]
    40100810:	a9442668 	ldp	x8, x9, [x19, #64]
    40100814:	a9452e6a 	ldp	x10, x11, [x19, #80]
    40100818:	a946366c 	ldp	x12, x13, [x19, #96]
    4010081c:	a9473e6e 	ldp	x14, x15, [x19, #112]
    40100820:	a9484670 	ldp	x16, x17, [x19, #128]
    40100824:	d4000002 	hvc	#0x0
    40100828:	a9000660 	stp	x0, x1, [x19]
    4010082c:	a9010e62 	stp	x2, x3, [x19, #16]
    40100830:	a9021664 	stp	x4, x5, [x19, #32]
    40100834:	a9031e66 	stp	x6, x7, [x19, #48]
    40100838:	a9042668 	stp	x8, x9, [x19, #64]
    4010083c:	a9052e6a 	stp	x10, x11, [x19, #80]
    40100840:	a906366c 	stp	x12, x13, [x19, #96]
    40100844:	a9073e6e 	stp	x14, x15, [x19, #112]
    40100848:	a9084670 	stp	x16, x17, [x19, #128]
    4010084c:	f84107f3 	ldr	x19, [sp], #16
    40100850:	d65f03c0 	ret
    40100854:	d53be328 	mrs	x8, cntv_ctl_el0
    40100858:	b27f0108 	orr	x8, x8, #0x2
    4010085c:	d51be328 	msr	cntv_ctl_el0, x8
    40100860:	d5033fdf 	isb
    40100864:	d65f03c0 	ret
    40100868:	d53be328 	mrs	x8, cntv_ctl_el0
    4010086c:	927ef908 	and	x8, x8, #0xfffffffffffffffd
    40100870:	d51be328 	msr	cntv_ctl_el0, x8
    40100874:	d5033fdf 	isb
    40100878:	d65f03c0 	ret
    4010087c:	d10083ff 	sub	sp, sp, #0x20
    40100880:	a9017bfd 	stp	x29, x30, [sp, #16]
    40100884:	910043fd 	add	x29, sp, #0x10
    40100888:	900000e8 	adrp	x8, 0x4011c000
    4010088c:	f9405508 	ldr	x8, [x8, #168]
    40100890:	900000c2 	adrp	x2, 0x40118000
    40100894:	2a0003e1 	mov	w1, w0
    40100898:	91284442 	add	x2, x2, #0xa11
    4010089c:	d10013a3 	sub	x3, x29, #0x4
    401008a0:	aa0803e0 	mov	x0, x8
    401008a4:	940028f6 	bl	0x4010ac7c
    401008a8:	b40000e0 	cbz	x0, 0x401008c4
    401008ac:	b85fc3a8 	ldur	w8, [x29, #-4]
    401008b0:	7100011f 	cmp	w8, #0x0
    401008b4:	5400008d 	b.le	0x401008c4
    401008b8:	b9400008 	ldr	w8, [x0]
    401008bc:	5ac00900 	rev	w0, w8
    401008c0:	14000002 	b	0x401008c8
    401008c4:	d53be000 	mrs	x0, cntfrq_el0
    401008c8:	a9417bfd 	ldp	x29, x30, [sp, #16]
    401008cc:	910083ff 	add	sp, sp, #0x20
    401008d0:	d65f03c0 	ret
    401008d4:	a9be7bfd 	stp	x29, x30, [sp, #-32]!
    401008d8:	a9014ff4 	stp	x20, x19, [sp, #16]
    401008dc:	910003fd 	mov	x29, sp
    401008e0:	900001f4 	adrp	x20, 0x4013c000
    401008e4:	aa0003f3 	mov	x19, x0
    401008e8:	910ae294 	add	x20, x20, #0x2b8
    401008ec:	94000116 	bl	0x40100d44
    401008f0:	eb13001f 	cmp	x0, x19
    401008f4:	54000102 	b.cs	0x40100914  // b.hs, b.nlast
    401008f8:	aa1303e0 	mov	x0, x19
    401008fc:	94000076 	bl	0x40100ad4
    40100900:	085f7e88 	ldxrb	w8, [x20]
    40100904:	927f1909 	and	x9, x8, #0xfe
    40100908:	080a7e89 	stxrb	w10, w9, [x20]
    4010090c:	35ffffaa 	cbnz	w10, 0x40100900
    40100910:	3607fee8 	tbz	w8, #0, 0x401008ec
    40100914:	a9414ff4 	ldp	x20, x19, [sp, #16]
    40100918:	a8c27bfd 	ldp	x29, x30, [sp], #32
    4010091c:	d65f03c0 	ret
    40100920:	14000067 	b	0x40100abc
    40100924:	d100c3ff 	sub	sp, sp, #0x30
    40100928:	a9017bfd 	stp	x29, x30, [sp, #16]
    4010092c:	a9024ff4 	stp	x20, x19, [sp, #32]
    40100930:	910043fd 	add	x29, sp, #0x10
    40100934:	94000064 	bl	0x40100ac4
    40100938:	900000f4 	adrp	x20, 0x4011c000
    4010093c:	f9405680 	ldr	x0, [x20, #168]
    40100940:	900000c2 	adrp	x2, 0x40118000
    40100944:	91000042 	add	x2, x2, #0x0
    40100948:	12800001 	mov	w1, #0xffffffff            	// #-1
    4010094c:	94001908 	bl	0x40106d6c
    40100950:	37f80460 	tbnz	w0, #31, 0x401009dc
    40100954:	2a0003f3 	mov	w19, w0
    40100958:	940000a6 	bl	0x40100bf0
    4010095c:	37f80500 	tbnz	w0, #31, 0x401009fc
    40100960:	f9405680 	ldr	x0, [x20, #168]
    40100964:	d10013a3 	sub	x3, x29, #0x4
    40100968:	910023e4 	add	x4, sp, #0x8
    4010096c:	910013e5 	add	x5, sp, #0x4
    40100970:	52800042 	mov	w2, #0x2                   	// #2
    40100974:	2a1303e1 	mov	w1, w19
    40100978:	94001996 	bl	0x40106fd0
    4010097c:	37f80500 	tbnz	w0, #31, 0x40100a1c
    40100980:	b85fc3a0 	ldur	w0, [x29, #-4]
    40100984:	b9400be1 	ldr	w1, [sp, #8]
    40100988:	940019cd 	bl	0x401070bc
    4010098c:	710ff01f 	cmp	w0, #0x3fc
    40100990:	54000562 	b.cs	0x40100a3c  // b.hs, b.nlast
    40100994:	90000001 	adrp	x1, 0x40100000
    40100998:	2a0003f3 	mov	w19, w0
    4010099c:	2a0003e0 	mov	w0, w0
    401009a0:	9134b021 	add	x1, x1, #0xd2c
    401009a4:	aa1f03e2 	mov	x2, xzr
    401009a8:	94000a35 	bl	0x4010327c
    401009ac:	37f80620 	tbnz	w0, #31, 0x40100a70
    401009b0:	900000e8 	adrp	x8, 0x4011c000
    401009b4:	b9000113 	str	w19, [x8]
    401009b8:	d53be328 	mrs	x8, cntv_ctl_el0
    401009bc:	b27f0108 	orr	x8, x8, #0x2
    401009c0:	d51be328 	msr	cntv_ctl_el0, x8
    401009c4:	d5033fdf 	isb
    401009c8:	94000038 	bl	0x40100aa8
    401009cc:	a9424ff4 	ldp	x20, x19, [sp, #32]
    401009d0:	a9417bfd 	ldp	x29, x30, [sp, #16]
    401009d4:	9100c3ff 	add	sp, sp, #0x30
    401009d8:	d65f03c0 	ret
    401009dc:	900000c1 	adrp	x1, 0x40118000
    401009e0:	900000c2 	adrp	x2, 0x40118000
    401009e4:	900000c4 	adrp	x4, 0x40118000
    401009e8:	9124c821 	add	x1, x1, #0x932
    401009ec:	91288442 	add	x2, x2, #0xa21
    401009f0:	9128a084 	add	x4, x4, #0xa28
    401009f4:	52801043 	mov	w3, #0x82                  	// #130
    401009f8:	14000025 	b	0x40100a8c
    401009fc:	900000c1 	adrp	x1, 0x40118000
    40100a00:	900000c2 	adrp	x2, 0x40118000
    40100a04:	900000c4 	adrp	x4, 0x40118000
    40100a08:	9124c821 	add	x1, x1, #0x932
    40100a0c:	91288442 	add	x2, x2, #0xa21
    40100a10:	91291084 	add	x4, x4, #0xa44
    40100a14:	528010c3 	mov	w3, #0x86                  	// #134
    40100a18:	1400001d 	b	0x40100a8c
    40100a1c:	900000c1 	adrp	x1, 0x40118000
    40100a20:	900000c2 	adrp	x2, 0x40118000
    40100a24:	900000c4 	adrp	x4, 0x40118000
    40100a28:	9124c821 	add	x1, x1, #0x932
    40100a2c:	91288442 	add	x2, x2, #0xa21
    40100a30:	9129a084 	add	x4, x4, #0xa68
    40100a34:	52801163 	mov	w3, #0x8b                  	// #139
    40100a38:	14000015 	b	0x40100a8c
    40100a3c:	b85fc3a5 	ldur	w5, [x29, #-4]
    40100a40:	b9400be6 	ldr	w6, [sp, #8]
    40100a44:	900000c1 	adrp	x1, 0x40118000
    40100a48:	900000c2 	adrp	x2, 0x40118000
    40100a4c:	900000c4 	adrp	x4, 0x40118000
    40100a50:	9124c821 	add	x1, x1, #0x932
    40100a54:	91288442 	add	x2, x2, #0xa21
    40100a58:	912a3084 	add	x4, x4, #0xa8c
    40100a5c:	52801203 	mov	w3, #0x90                  	// #144
    40100a60:	2a1f03e0 	mov	w0, wzr
    40100a64:	94004e29 	bl	0x40114308
    40100a68:	52800060 	mov	w0, #0x3                   	// #3
    40100a6c:	94000977 	bl	0x40103048
    40100a70:	900000c1 	adrp	x1, 0x40118000
    40100a74:	900000c2 	adrp	x2, 0x40118000
    40100a78:	900000c4 	adrp	x4, 0x40118000
    40100a7c:	9124c821 	add	x1, x1, #0x932
    40100a80:	91288442 	add	x2, x2, #0xa21
    40100a84:	912afc84 	add	x4, x4, #0xabf
    40100a88:	52801283 	mov	w3, #0x94                  	// #148
    40100a8c:	2a1f03e0 	mov	w0, wzr
    40100a90:	94004e1e 	bl	0x40114308
    40100a94:	52800060 	mov	w0, #0x3                   	// #3
    40100a98:	9400096c 	bl	0x40103048
    40100a9c:	900000e8 	adrp	x8, 0x4011c000
    40100aa0:	b9400100 	ldr	w0, [x8]
    40100aa4:	d65f03c0 	ret
    40100aa8:	d53be328 	mrs	x8, cntv_ctl_el0
    40100aac:	b2400108 	orr	x8, x8, #0x1
    40100ab0:	d51be328 	msr	cntv_ctl_el0, x8
    40100ab4:	d5033fdf 	isb
    40100ab8:	d65f03c0 	ret
    40100abc:	d53be040 	mrs	x0, cntvct_el0
    40100ac0:	d65f03c0 	ret
    40100ac4:	900000e9 	adrp	x9, 0x4011c000
    40100ac8:	d53be048 	mrs	x8, cntvct_el0
    40100acc:	f9000528 	str	x8, [x9, #8]
    40100ad0:	d65f03c0 	ret
    40100ad4:	a9be7bfd 	stp	x29, x30, [sp, #-32]!
    40100ad8:	f9000bf3 	str	x19, [sp, #16]
    40100adc:	910003fd 	mov	x29, sp
    40100ae0:	aa0003f3 	mov	x19, x0
    40100ae4:	9400092a 	bl	0x40102f8c
    40100ae8:	340006c0 	cbz	w0, 0x40100bc0
    40100aec:	900000e9 	adrp	x9, 0x4011c000
    40100af0:	d53be048 	mrs	x8, cntvct_el0
    40100af4:	f9400529 	ldr	x9, [x9, #8]
    40100af8:	900000ea 	adrp	x10, 0x4011c000
    40100afc:	f940154a 	ldr	x10, [x10, #40]
    40100b00:	cb090109 	sub	x9, x8, x9
    40100b04:	eb09015f 	cmp	x10, x9
    40100b08:	54000122 	b.cs	0x40100b2c  // b.hs, b.nlast
    40100b0c:	900000ea 	adrp	x10, 0x4011c000
    40100b10:	f940094a 	ldr	x10, [x10, #16]
    40100b14:	9b097d49 	mul	x9, x10, x9
    40100b18:	eb13013f 	cmp	x9, x19
    40100b1c:	54000183 	b.cc	0x40100b4c  // b.lo, b.ul, b.last
    40100b20:	f9400bf3 	ldr	x19, [sp, #16]
    40100b24:	a8c27bfd 	ldp	x29, x30, [sp], #32
    40100b28:	d65f03c0 	ret
    40100b2c:	900000ea 	adrp	x10, 0x4011c000
    40100b30:	b940194a 	ldr	w10, [x10, #24]
    40100b34:	900000eb 	adrp	x11, 0x4011c000
    40100b38:	3940716b 	ldrb	w11, [x11, #28]
    40100b3c:	9b0a7d29 	mul	x9, x9, x10
    40100b40:	9acb2529 	lsr	x9, x9, x11
    40100b44:	eb13013f 	cmp	x9, x19
    40100b48:	54fffec2 	b.cs	0x40100b20  // b.hs, b.nlast
    40100b4c:	d294002a 	mov	x10, #0xa001                	// #40961
    40100b50:	f2a6170a 	movk	x10, #0x30b8, lsl #16
    40100b54:	cb090269 	sub	x9, x19, x9
    40100b58:	f2c068ca 	movk	x10, #0x346, lsl #32
    40100b5c:	eb0a013f 	cmp	x9, x10
    40100b60:	540000a3 	b.cc	0x40100b74  // b.lo, b.ul, b.last
    40100b64:	900000ea 	adrp	x10, 0x4011c000
    40100b68:	f940094a 	ldr	x10, [x10, #16]
    40100b6c:	9aca0929 	udiv	x9, x9, x10
    40100b70:	14000007 	b	0x40100b8c
    40100b74:	900000ea 	adrp	x10, 0x4011c000
    40100b78:	b940214a 	ldr	w10, [x10, #32]
    40100b7c:	900000eb 	adrp	x11, 0x4011c000
    40100b80:	3940916b 	ldrb	w11, [x11, #36]
    40100b84:	9b0a7d29 	mul	x9, x9, x10
    40100b88:	9acb2529 	lsr	x9, x9, x11
    40100b8c:	8b080128 	add	x8, x9, x8
    40100b90:	d51be348 	msr	cntv_cval_el0, x8
    40100b94:	d5033fdf 	isb
    40100b98:	d53be328 	mrs	x8, cntv_ctl_el0
    40100b9c:	b2400108 	orr	x8, x8, #0x1
    40100ba0:	d51be328 	msr	cntv_ctl_el0, x8
    40100ba4:	d5033fdf 	isb
    40100ba8:	97ffff30 	bl	0x40100868
    40100bac:	d503207f 	wfi
    40100bb0:	940008e7 	bl	0x40102f4c
    40100bb4:	f9400bf3 	ldr	x19, [sp, #16]
    40100bb8:	a8c27bfd 	ldp	x29, x30, [sp], #32
    40100bbc:	140008e6 	b	0x40102f54
    40100bc0:	900000c1 	adrp	x1, 0x40118000
    40100bc4:	900000c2 	adrp	x2, 0x40118000
    40100bc8:	900000c4 	adrp	x4, 0x40118000
    40100bcc:	900000c5 	adrp	x5, 0x40118000
    40100bd0:	9124c821 	add	x1, x1, #0x932
    40100bd4:	912c2c42 	add	x2, x2, #0xb0b
    40100bd8:	912c6c84 	add	x4, x4, #0xb1b
    40100bdc:	912cc8a5 	add	x5, x5, #0xb32
    40100be0:	52801d83 	mov	w3, #0xec                  	// #236
    40100be4:	94004dc9 	bl	0x40114308
    40100be8:	52800060 	mov	w0, #0x3                   	// #3
    40100bec:	94000917 	bl	0x40103048
    40100bf0:	a9bf7bfd 	stp	x29, x30, [sp, #-16]!
    40100bf4:	910003fd 	mov	x29, sp
    40100bf8:	97ffff21 	bl	0x4010087c
    40100bfc:	52994008 	mov	w8, #0xca00                	// #51712
    40100c00:	72a77348 	movk	w8, #0x3b9a, lsl #16
    40100c04:	5281c20a 	mov	w10, #0xe10                 	// #3600
    40100c08:	900000e9 	adrp	x9, 0x4011c000
    40100c0c:	1ac0090b 	udiv	w11, w8, w0
    40100c10:	9baa7c08 	umull	x8, w0, w10
    40100c14:	f900092b 	str	x11, [x9, #16]
    40100c18:	d360fd0a 	lsr	x10, x8, #32
    40100c1c:	2a0003e9 	mov	w9, w0
    40100c20:	b40000ea 	cbz	x10, 0x40100c3c
    40100c24:	5280040b 	mov	w11, #0x20                  	// #32
    40100c28:	d341fd4a 	lsr	x10, x10, #1
    40100c2c:	5100056b 	sub	w11, w11, #0x1
    40100c30:	b5ffffca 	cbnz	x10, 0x40100c28
    40100c34:	2a0b03eb 	mov	w11, w11
    40100c38:	14000002 	b	0x40100c40
    40100c3c:	5280040b 	mov	w11, #0x20                  	// #32
    40100c40:	5299400a 	mov	w10, #0xca00                	// #51712
    40100c44:	72a7734a 	movk	w10, #0x3b9a, lsl #16
    40100c48:	d341fd2e 	lsr	x14, x9, #1
    40100c4c:	5280040c 	mov	w12, #0x20                  	// #32
    40100c50:	9acc214d 	lsl	x13, x10, x12
    40100c54:	8b0e01ad 	add	x13, x13, x14
    40100c58:	9ac909ad 	udiv	x13, x13, x9
    40100c5c:	9acb25af 	lsr	x15, x13, x11
    40100c60:	b400006f 	cbz	x15, 0x40100c6c
    40100c64:	f100058c 	subs	x12, x12, #0x1
    40100c68:	54ffff41 	b.ne	0x40100c50  // b.any
    40100c6c:	900000eb 	adrp	x11, 0x4011c000
    40100c70:	900000ee 	adrp	x14, 0x4011c000
    40100c74:	b900196d 	str	w13, [x11, #24]
    40100c78:	390071cc 	strb	w12, [x14, #28]
    40100c7c:	340002ad 	cbz	w13, 0x40100cd0
    40100c80:	528ca00d 	mov	w13, #0x6500                	// #25856
    40100c84:	5280040b 	mov	w11, #0x20                  	// #32
    40100c88:	72a3b9ad 	movk	w13, #0x1dcd, lsl #16
    40100c8c:	9acb212c 	lsl	x12, x9, x11
    40100c90:	8b0d018c 	add	x12, x12, x13
    40100c94:	9aca098c 	udiv	x12, x12, x10
    40100c98:	f26a319f 	tst	x12, #0x7ffc00000
    40100c9c:	54000060 	b.eq	0x40100ca8  // b.none
    40100ca0:	f100056b 	subs	x11, x11, #0x1
    40100ca4:	54ffff41 	b.ne	0x40100c8c  // b.any
    40100ca8:	900000e9 	adrp	x9, 0x4011c000
    40100cac:	900000ea 	adrp	x10, 0x4011c000
    40100cb0:	b900212c 	str	w12, [x9, #32]
    40100cb4:	3900914b 	strb	w11, [x10, #36]
    40100cb8:	3400020c 	cbz	w12, 0x40100cf8
    40100cbc:	900000e9 	adrp	x9, 0x4011c000
    40100cc0:	f9001528 	str	x8, [x9, #40]
    40100cc4:	2a1f03e0 	mov	w0, wzr
    40100cc8:	a8c17bfd 	ldp	x29, x30, [sp], #16
    40100ccc:	d65f03c0 	ret
    40100cd0:	900000c1 	adrp	x1, 0x40118000
    40100cd4:	900000c2 	adrp	x2, 0x40118000
    40100cd8:	900000c4 	adrp	x4, 0x40118000
    40100cdc:	900000c5 	adrp	x5, 0x40118000
    40100ce0:	9124c821 	add	x1, x1, #0x932
    40100ce4:	912c2c42 	add	x2, x2, #0xb0b
    40100ce8:	912c6c84 	add	x4, x4, #0xb1b
    40100cec:	912d38a5 	add	x5, x5, #0xb4e
    40100cf0:	52802243 	mov	w3, #0x112                 	// #274
    40100cf4:	1400000a 	b	0x40100d1c
    40100cf8:	900000c1 	adrp	x1, 0x40118000
    40100cfc:	900000c2 	adrp	x2, 0x40118000
    40100d00:	900000c4 	adrp	x4, 0x40118000
    40100d04:	900000c5 	adrp	x5, 0x40118000
    40100d08:	9124c821 	add	x1, x1, #0x932
    40100d0c:	912c2c42 	add	x2, x2, #0xb0b
    40100d10:	912c6c84 	add	x4, x4, #0xb1b
    40100d14:	912d78a5 	add	x5, x5, #0xb5e
    40100d18:	52802383 	mov	w3, #0x11c                 	// #284
    40100d1c:	2a1f03e0 	mov	w0, wzr
    40100d20:	94004d7a 	bl	0x40114308
    40100d24:	52800060 	mov	w0, #0x3                   	// #3
    40100d28:	940008c8 	bl	0x40103048
    40100d2c:	a9bf7bfd 	stp	x29, x30, [sp, #-16]!
    40100d30:	910003fd 	mov	x29, sp
    40100d34:	97fffec8 	bl	0x40100854
    40100d38:	52800020 	mov	w0, #0x1                   	// #1
    40100d3c:	a8c17bfd 	ldp	x29, x30, [sp], #16
    40100d40:	d65f03c0 	ret
    40100d44:	900000e9 	adrp	x9, 0x4011c000
    40100d48:	d53be048 	mrs	x8, cntvct_el0
    40100d4c:	f9400529 	ldr	x9, [x9, #8]
    40100d50:	900000ea 	adrp	x10, 0x4011c000
    40100d54:	f940154a 	ldr	x10, [x10, #40]
    40100d58:	cb090108 	sub	x8, x8, x9
    40100d5c:	eb08015f 	cmp	x10, x8
    40100d60:	540000a2 	b.cs	0x40100d74  // b.hs, b.nlast
    40100d64:	900000e9 	adrp	x9, 0x4011c000
    40100d68:	f9400929 	ldr	x9, [x9, #16]
    40100d6c:	9b087d20 	mul	x0, x9, x8
    40100d70:	d65f03c0 	ret
    40100d74:	900000e9 	adrp	x9, 0x4011c000
    40100d78:	b9401929 	ldr	w9, [x9, #24]
    40100d7c:	900000ea 	adrp	x10, 0x4011c000
    40100d80:	3940714a 	ldrb	w10, [x10, #28]
    40100d84:	9b097d08 	mul	x8, x8, x9
    40100d88:	9aca2500 	lsr	x0, x8, x10
    40100d8c:	d65f03c0 	ret
    40100d90:	900000e9 	adrp	x9, 0x4011c000
    40100d94:	d53be048 	mrs	x8, cntvct_el0
    40100d98:	f9400529 	ldr	x9, [x9, #8]
    40100d9c:	900000ea 	adrp	x10, 0x4011c000
    40100da0:	f940154a 	ldr	x10, [x10, #40]
    40100da4:	cb090108 	sub	x8, x8, x9
    40100da8:	eb08015f 	cmp	x10, x8
    40100dac:	540000a2 	b.cs	0x40100dc0  // b.hs, b.nlast
    40100db0:	900000e9 	adrp	x9, 0x4011c000
    40100db4:	f9400929 	ldr	x9, [x9, #16]
    40100db8:	9b087d20 	mul	x0, x9, x8
    40100dbc:	d65f03c0 	ret
    40100dc0:	900000e9 	adrp	x9, 0x4011c000
    40100dc4:	b9401929 	ldr	w9, [x9, #24]
    40100dc8:	900000ea 	adrp	x10, 0x4011c000
    40100dcc:	3940714a 	ldrb	w10, [x10, #28]
    40100dd0:	9b097d08 	mul	x8, x8, x9
    40100dd4:	9aca2500 	lsr	x0, x8, x10
    40100dd8:	d65f03c0 	ret
    40100ddc:	b2409fe9 	mov	x9, #0xffffffffff          	// #1099511627775
    40100de0:	f2a01fe9 	movk	x9, #0xff, lsl #16
    40100de4:	d53800a8 	mrs	x8, mpidr_el1
    40100de8:	8a090100 	and	x0, x8, x9
    40100dec:	d65f03c0 	ret
    40100df0:	a9be7bfd 	stp	x29, x30, [sp, #-32]!
    40100df4:	a9014ff4 	stp	x20, x19, [sp, #16]
    40100df8:	910003fd 	mov	x29, sp
    40100dfc:	900000c8 	adrp	x8, 0x40118000
    40100e00:	91016108 	add	x8, x8, #0x58
    40100e04:	f8625906 	ldr	x6, [x8, w2, uxtw #3]
    40100e08:	2a0103e5 	mov	w5, w1
    40100e0c:	900000c1 	adrp	x1, 0x40118000
    40100e10:	900000c2 	adrp	x2, 0x40118000
    40100e14:	900000c4 	adrp	x4, 0x40118000
    40100e18:	aa0303f3 	mov	x19, x3
    40100e1c:	aa0003f4 	mov	x20, x0
    40100e20:	9124c821 	add	x1, x1, #0x932
    40100e24:	912db842 	add	x2, x2, #0xb6e
    40100e28:	912df084 	add	x4, x4, #0xb7c
    40100e2c:	52801663 	mov	w3, #0xb3                  	// #179
    40100e30:	2a1f03e0 	mov	w0, wzr
    40100e34:	94004d35 	bl	0x40114308
    40100e38:	aa1403e0 	mov	x0, x20
    40100e3c:	aa1303e1 	mov	x1, x19
    40100e40:	94000003 	bl	0x40100e4c
    40100e44:	52800060 	mov	w0, #0x3                   	// #3
    40100e48:	94000880 	bl	0x40103048
    40100e4c:	d10183ff 	sub	sp, sp, #0x60
    40100e50:	a9027bfd 	stp	x29, x30, [sp, #32]
    40100e54:	a9035ff8 	stp	x24, x23, [sp, #48]
    40100e58:	a90457f6 	stp	x22, x21, [sp, #64]
    40100e5c:	a9054ff4 	stp	x20, x19, [sp, #80]
    40100e60:	910083fd 	add	x29, sp, #0x20
    40100e64:	f9408805 	ldr	x5, [x0, #272]
    40100e68:	900000d4 	adrp	x20, 0x40118000
    40100e6c:	900000d5 	adrp	x21, 0x40118000
    40100e70:	9124ca94 	add	x20, x20, #0x932
    40100e74:	912dbab5 	add	x21, x21, #0xb6e
    40100e78:	900000c4 	adrp	x4, 0x40118000
    40100e7c:	aa0003f3 	mov	x19, x0
    40100e80:	aa0103f6 	mov	x22, x1
    40100e84:	912f3c84 	add	x4, x4, #0xbcf
    40100e88:	528013e3 	mov	w3, #0x9f                  	// #159
    40100e8c:	2a1f03e0 	mov	w0, wzr
    40100e90:	aa1403e1 	mov	x1, x20
    40100e94:	aa1503e2 	mov	x2, x21
    40100e98:	94004d1c 	bl	0x40114308
    40100e9c:	f9408665 	ldr	x5, [x19, #264]
    40100ea0:	900000c4 	adrp	x4, 0x40118000
    40100ea4:	912f9884 	add	x4, x4, #0xbe6
    40100ea8:	52801403 	mov	w3, #0xa0                  	// #160
    40100eac:	2a1f03e0 	mov	w0, wzr
    40100eb0:	aa1403e1 	mov	x1, x20
    40100eb4:	aa1503e2 	mov	x2, x21
    40100eb8:	94004d14 	bl	0x40114308
    40100ebc:	f9407e65 	ldr	x5, [x19, #248]
    40100ec0:	900000c4 	adrp	x4, 0x40118000
    40100ec4:	912ff484 	add	x4, x4, #0xbfd
    40100ec8:	52801423 	mov	w3, #0xa1                  	// #161
    40100ecc:	2a1f03e0 	mov	w0, wzr
    40100ed0:	aa1403e1 	mov	x1, x20
    40100ed4:	aa1503e2 	mov	x2, x21
    40100ed8:	94004d0c 	bl	0x40114308
    40100edc:	f9407a65 	ldr	x5, [x19, #240]
    40100ee0:	900000c4 	adrp	x4, 0x40118000
    40100ee4:	91305084 	add	x4, x4, #0xc14
    40100ee8:	52801443 	mov	w3, #0xa2                  	// #162
    40100eec:	2a1f03e0 	mov	w0, wzr
    40100ef0:	aa1403e1 	mov	x1, x20
    40100ef4:	aa1503e2 	mov	x2, x21
    40100ef8:	94004d04 	bl	0x40114308
    40100efc:	f9408265 	ldr	x5, [x19, #256]
    40100f00:	900000c4 	adrp	x4, 0x40118000
    40100f04:	9130ac84 	add	x4, x4, #0xc2b
    40100f08:	52801463 	mov	w3, #0xa3                  	// #163
    40100f0c:	2a1f03e0 	mov	w0, wzr
    40100f10:	aa1403e1 	mov	x1, x20
    40100f14:	aa1503e2 	mov	x2, x21
    40100f18:	94004cfc 	bl	0x40114308
    40100f1c:	900000c4 	adrp	x4, 0x40118000
    40100f20:	91310884 	add	x4, x4, #0xc42
    40100f24:	52801483 	mov	w3, #0xa4                  	// #164
    40100f28:	2a1f03e0 	mov	w0, wzr
    40100f2c:	aa1403e1 	mov	x1, x20
    40100f30:	aa1503e2 	mov	x2, x21
    40100f34:	aa1603e5 	mov	x5, x22
    40100f38:	94004cf4 	bl	0x40114308
    40100f3c:	900000d7 	adrp	x23, 0x40118000
    40100f40:	91004278 	add	x24, x19, #0x10
    40100f44:	92800076 	mov	x22, #0xfffffffffffffffc    	// #-4
    40100f48:	913166f7 	add	x23, x23, #0xc59
    40100f4c:	a97f2307 	ldp	x7, x8, [x24, #-16]
    40100f50:	a8c22b09 	ldp	x9, x10, [x24], #32
    40100f54:	11001ec6 	add	w6, w22, #0x7
    40100f58:	910012d6 	add	x22, x22, #0x4
    40100f5c:	52801523 	mov	w3, #0xa9                  	// #169
    40100f60:	2a1f03e0 	mov	w0, wzr
    40100f64:	aa1403e1 	mov	x1, x20
    40100f68:	aa1503e2 	mov	x2, x21
    40100f6c:	aa1703e4 	mov	x4, x23
    40100f70:	2a1603e5 	mov	w5, w22
    40100f74:	a900abe9 	stp	x9, x10, [sp, #8]
    40100f78:	f90003e8 	str	x8, [sp]
    40100f7c:	94004ce3 	bl	0x40114308
    40100f80:	f10062df 	cmp	x22, #0x18
    40100f84:	54fffe43 	b.cc	0x40100f4c  // b.lo, b.ul, b.last
    40100f88:	a94e1a65 	ldp	x5, x6, [x19, #224]
    40100f8c:	a9454ff4 	ldp	x20, x19, [sp, #80]
    40100f90:	a94457f6 	ldp	x22, x21, [sp, #64]
    40100f94:	a9435ff8 	ldp	x24, x23, [sp, #48]
    40100f98:	a9427bfd 	ldp	x29, x30, [sp, #32]
    40100f9c:	900000c1 	adrp	x1, 0x40118000
    40100fa0:	900000c2 	adrp	x2, 0x40118000
    40100fa4:	900000c4 	adrp	x4, 0x40118000
    40100fa8:	9124c821 	add	x1, x1, #0x932
    40100fac:	912db842 	add	x2, x2, #0xb6e
    40100fb0:	91323c84 	add	x4, x4, #0xc8f
    40100fb4:	52801583 	mov	w3, #0xac                  	// #172
    40100fb8:	2a1f03e0 	mov	w0, wzr
    40100fbc:	910183ff 	add	sp, sp, #0x60
    40100fc0:	14004cd2 	b	0x40114308
    40100fc4:	d10183ff 	sub	sp, sp, #0x60
    40100fc8:	a9027bfd 	stp	x29, x30, [sp, #32]
    40100fcc:	f9001bf7 	str	x23, [sp, #48]
    40100fd0:	a90457f6 	stp	x22, x21, [sp, #64]
    40100fd4:	a9054ff4 	stp	x20, x19, [sp, #80]
    40100fd8:	910083fd 	add	x29, sp, #0x20
    40100fdc:	f9408409 	ldr	x9, [x0, #264]
    40100fe0:	52800028 	mov	w8, #0x1                   	// #1
    40100fe4:	a90107e8 	stp	x8, x1, [sp, #16]
    40100fe8:	aa0103f3 	mov	x19, x1
    40100fec:	d35a7d28 	ubfx	x8, x9, #26, #6
    40100ff0:	aa0003f4 	mov	x20, x0
    40100ff4:	f100f11f 	cmp	x8, #0x3c
    40100ff8:	a90027e0 	stp	x0, x9, [sp]
    40100ffc:	54000848 	b.hi	0x40101104  // b.pmore
    40101000:	f00000aa 	adrp	x10, 0x40118000
    40101004:	9100614a 	add	x10, x10, #0x18
    40101008:	100000ab 	adr	x11, 0x4010101c
    4010100c:	3868694c 	ldrb	w12, [x10, x8]
    40101010:	8b0c096b 	add	x11, x11, x12, lsl #2
    40101014:	52800068 	mov	w8, #0x3                   	// #3
    40101018:	d61f0160 	br	x11
    4010101c:	52800028 	mov	w8, #0x1                   	// #1
    40101020:	14000011 	b	0x40101064
    40101024:	52800088 	mov	w8, #0x4                   	// #4
    40101028:	1400000f 	b	0x40101064
    4010102c:	aa1f03e8 	mov	x8, xzr
    40101030:	1400000d 	b	0x40101064
    40101034:	528000a8 	mov	w8, #0x5                   	// #5
    40101038:	1400000b 	b	0x40101064
    4010103c:	92401528 	and	x8, x9, #0x3f
    40101040:	f100b11f 	cmp	x8, #0x2c
    40101044:	540007c2 	b.cs	0x4010113c  // b.hs, b.nlast
    40101048:	d2a0c089 	mov	x9, #0x6040000             	// #100925440
    4010104c:	f2c0bfa9 	movk	x9, #0x5fd, lsl #32
    40101050:	9ac82529 	lsr	x9, x9, x8
    40101054:	37000589 	tbnz	w9, #0, 0x40101104
    40101058:	f00000a9 	adrp	x9, 0x40118000
    4010105c:	91036129 	add	x9, x9, #0xd8
    40101060:	38686928 	ldrb	w8, [x9, x8]
    40101064:	f00000a9 	adrp	x9, 0x40118000
    40101068:	d37ced08 	lsl	x8, x8, #4
    4010106c:	9101e129 	add	x9, x9, #0x78
    40101070:	f8686935 	ldr	x21, [x9, x8]
    40101074:	aa1503f6 	mov	x22, x21
    40101078:	f84086c8 	ldr	x8, [x22], #8
    4010107c:	eb16011f 	cmp	x8, x22
    40101080:	54000429 	b.ls	0x40101104  // b.plast
    40101084:	2a1f03f7 	mov	w23, wzr
    40101088:	f94002c8 	ldr	x8, [x22]
    4010108c:	b4000228 	cbz	x8, 0x401010d0
    40101090:	910003e0 	mov	x0, sp
    40101094:	d63f0100 	blr	x8
    40101098:	2a170017 	orr	w23, w0, w23
    4010109c:	710006ff 	cmp	w23, #0x1
    401010a0:	540000c0 	b.eq	0x401010b8  // b.none
    401010a4:	f94002a8 	ldr	x8, [x21]
    401010a8:	910022d6 	add	x22, x22, #0x8
    401010ac:	eb0802df 	cmp	x22, x8
    401010b0:	54fffec3 	b.cc	0x40101088  // b.lo, b.ul, b.last
    401010b4:	34000297 	cbz	w23, 0x40101104
    401010b8:	a9454ff4 	ldp	x20, x19, [sp, #80]
    401010bc:	a94457f6 	ldp	x22, x21, [sp, #64]
    401010c0:	f9401bf7 	ldr	x23, [sp, #48]
    401010c4:	a9427bfd 	ldp	x29, x30, [sp, #32]
    401010c8:	910183ff 	add	sp, sp, #0x60
    401010cc:	d65f03c0 	ret
    401010d0:	f00000a1 	adrp	x1, 0x40118000
    401010d4:	f00000a2 	adrp	x2, 0x40118000
    401010d8:	f00000a4 	adrp	x4, 0x40118000
    401010dc:	f00000a5 	adrp	x5, 0x40118000
    401010e0:	9124c821 	add	x1, x1, #0x932
    401010e4:	912db842 	add	x2, x2, #0xb6e
    401010e8:	912c6c84 	add	x4, x4, #0xb1b
    401010ec:	913390a5 	add	x5, x5, #0xce4
    401010f0:	528021a3 	mov	w3, #0x10d                 	// #269
    401010f4:	2a1f03e0 	mov	w0, wzr
    401010f8:	94004c84 	bl	0x40114308
    401010fc:	52800060 	mov	w0, #0x3                   	// #3
    40101100:	940007d2 	bl	0x40103048
    40101104:	f00000a1 	adrp	x1, 0x40118000
    40101108:	f00000a2 	adrp	x2, 0x40118000
    4010110c:	f00000a4 	adrp	x4, 0x40118000
    40101110:	9124c821 	add	x1, x1, #0x932
    40101114:	912db842 	add	x2, x2, #0xb6e
    40101118:	912e6484 	add	x4, x4, #0xb99
    4010111c:	52801823 	mov	w3, #0xc1                  	// #193
    40101120:	2a1f03e0 	mov	w0, wzr
    40101124:	94004c79 	bl	0x40114308
    40101128:	aa1403e0 	mov	x0, x20
    4010112c:	aa1303e1 	mov	x1, x19
    40101130:	97ffff47 	bl	0x40100e4c
    40101134:	52800060 	mov	w0, #0x3                   	// #3
    40101138:	940007c4 	bl	0x40103048
    4010113c:	f00000a1 	adrp	x1, 0x40118000
    40101140:	f00000a2 	adrp	x2, 0x40118000
    40101144:	f00000a4 	adrp	x4, 0x40118000
    40101148:	f00000a5 	adrp	x5, 0x40118000
    4010114c:	9124c821 	add	x1, x1, #0x932
    40101150:	912db842 	add	x2, x2, #0xb6e
    40101154:	912c6c84 	add	x4, x4, #0xb1b
    40101158:	9132bca5 	add	x5, x5, #0xcaf
    4010115c:	52800f03 	mov	w3, #0x78                  	// #120
    40101160:	17ffffe5 	b	0x401010f4
    40101164:	a9bf7bfd 	stp	x29, x30, [sp, #-16]!
    40101168:	910003fd 	mov	x29, sp
    4010116c:	f00001c8 	adrp	x8, 0x4013c000
    40101170:	f9416508 	ldr	x8, [x8, #712]
    40101174:	b4000088 	cbz	x8, 0x40101184
    40101178:	f9403900 	ldr	x0, [x8, #112]
    4010117c:	a8c17bfd 	ldp	x29, x30, [sp], #16
    40101180:	d61f0000 	br	x0
    40101184:	f00000a1 	adrp	x1, 0x40118000
    40101188:	f00000a2 	adrp	x2, 0x40118000
    4010118c:	f00000a4 	adrp	x4, 0x40118000
    40101190:	900000c5 	adrp	x5, 0x40119000
    40101194:	9124c821 	add	x1, x1, #0x932
    40101198:	912db842 	add	x2, x2, #0xb6e
    4010119c:	912c6c84 	add	x4, x4, #0xb1b
    401011a0:	911f80a5 	add	x5, x5, #0x7e0
    401011a4:	52801903 	mov	w3, #0xc8                  	// #200
    401011a8:	2a1f03e0 	mov	w0, wzr
    401011ac:	94004c57 	bl	0x40114308
    401011b0:	52800060 	mov	w0, #0x3                   	// #3
    401011b4:	940007a5 	bl	0x40103048
    401011b8:	d65f03c0 	ret
    401011bc:	d503201f 	nop
    401011c0:	58000519 	ldr	x25, 0x40101260
    401011c4:	5800053a 	ldr	x26, 0x40101268
    401011c8:	aa1903ef 	mov	x15, x25
    401011cc:	cb0f034f 	sub	x15, x26, x15
    401011d0:	b24053f1 	mov	x17, #0x1fffff              	// #2097151
    401011d4:	8b1101ef 	add	x15, x15, x17
    401011d8:	d355fdef 	lsr	x15, x15, #21
    401011dc:	d36ba9ef 	lsl	x15, x15, #21
    401011e0:	d349fdf1 	lsr	x17, x15, #9
    401011e4:	91400631 	add	x17, x17, #0x1, lsl #12
    401011e8:	91400a31 	add	x17, x17, #0x2, lsl #12
    401011ec:	91400a31 	add	x17, x17, #0x2, lsl #12
    401011f0:	8b11035b 	add	x27, x26, x17
    401011f4:	9140437b 	add	x27, x27, #0x10, lsl #12
    401011f8:	cb190361 	sub	x1, x27, x25
    401011fc:	580003a0 	ldr	x0, 0x40101270
    40101200:	97fffc77 	bl	0x401003dc
    40101204:	d5033f9f 	dsb	sy
    40101208:	d5381002 	mrs	x2, sctlr_el1
    4010120c:	d28000a3 	mov	x3, #0x5                   	// #5
    40101210:	8a230042 	bic	x2, x2, x3
    40101214:	d5181002 	msr	sctlr_el1, x2
    40101218:	d5033fdf 	isb
    4010121c:	a8817f5f 	stp	xzr, xzr, [x26], #16
    40101220:	a8817f5f 	stp	xzr, xzr, [x26], #16
    40101224:	a8817f5f 	stp	xzr, xzr, [x26], #16
    40101228:	a8817f5f 	stp	xzr, xzr, [x26], #16
    4010122c:	eb1b035f 	cmp	x26, x27
    40101230:	54ffff63 	b.cc	0x4010121c  // b.lo, b.ul, b.last
    40101234:	9100037f 	mov	sp, x27
    40101238:	d518d03f 	msr	contextidr_el1, xzr
    4010123c:	580001fa 	ldr	x26, 0x40101278
    40101240:	f9000351 	str	x17, [x26]
    40101244:	94000553 	bl	0x40102790
    40101248:	580001dd 	ldr	x29, 0x40101280
    4010124c:	d518c01d 	msr	vbar_el1, x29
    40101250:	940005b1 	bl	0x40102914
    40101254:	580001a0 	ldr	x0, 0x40101288
    40101258:	14000644 	b	0x40102b68
    4010125c:	d503201f 	nop
    40101260:	40000000 	.inst	0x40000000 ; undefined
    40101264:	00000000 	.inst	0x00000000 ; undefined
    40101268:	4013d000 	.inst	0x4013d000 ; undefined
    4010126c:	00000000 	.inst	0x00000000 ; undefined
    40101270:	40000000 	.inst	0x40000000 ; undefined
    40101274:	00000000 	.inst	0x00000000 ; undefined
    40101278:	4011b018 	.inst	0x4011b018 ; undefined
    4010127c:	00000000 	.inst	0x00000000 ; undefined
    40101280:	40102000 	.inst	0x40102000 ; undefined
    40101284:	00000000 	.inst	0x00000000 ; undefined
    40101288:	40000000 	.inst	0x40000000 ; undefined
    4010128c:	00000000 	.inst	0x00000000 ; undefined
    40101290:	d503201f 	nop
    40101294:	d503201f 	nop
    40101298:	d503201f 	nop
    4010129c:	d503201f 	nop
    401012a0:	d503201f 	nop
    401012a4:	d503201f 	nop
    401012a8:	d503201f 	nop
    401012ac:	d503201f 	nop
    401012b0:	d503201f 	nop
    401012b4:	d503201f 	nop
    401012b8:	d503201f 	nop
    401012bc:	d503201f 	nop
    401012c0:	d503201f 	nop
    401012c4:	d503201f 	nop
    401012c8:	d503201f 	nop
    401012cc:	d503201f 	nop
    401012d0:	d503201f 	nop
    401012d4:	d503201f 	nop
    401012d8:	d503201f 	nop
    401012dc:	d503201f 	nop
    401012e0:	d503201f 	nop
    401012e4:	d503201f 	nop
    401012e8:	d503201f 	nop
    401012ec:	d503201f 	nop
    401012f0:	d503201f 	nop
    401012f4:	d503201f 	nop
    401012f8:	d503201f 	nop
    401012fc:	d503201f 	nop
    40101300:	d503201f 	nop
    40101304:	d503201f 	nop
    40101308:	d503201f 	nop
    4010130c:	d503201f 	nop
    40101310:	d503201f 	nop
    40101314:	d503201f 	nop
    40101318:	d503201f 	nop
    4010131c:	d503201f 	nop
    40101320:	d503201f 	nop
    40101324:	d503201f 	nop
    40101328:	d503201f 	nop
    4010132c:	d503201f 	nop
    40101330:	d503201f 	nop
    40101334:	d503201f 	nop
    40101338:	d503201f 	nop
    4010133c:	d503201f 	nop
    40101340:	d503201f 	nop
    40101344:	d503201f 	nop
    40101348:	d503201f 	nop
    4010134c:	d503201f 	nop
    40101350:	d503201f 	nop
    40101354:	d503201f 	nop
    40101358:	d503201f 	nop
    4010135c:	d503201f 	nop
    40101360:	d503201f 	nop
    40101364:	d503201f 	nop
    40101368:	d503201f 	nop
    4010136c:	d503201f 	nop
    40101370:	d503201f 	nop
    40101374:	d503201f 	nop
    40101378:	d503201f 	nop
    4010137c:	d503201f 	nop
    40101380:	d503201f 	nop
    40101384:	d503201f 	nop
    40101388:	d503201f 	nop
    4010138c:	d503201f 	nop
    40101390:	d503201f 	nop
    40101394:	d503201f 	nop
    40101398:	d503201f 	nop
    4010139c:	d503201f 	nop
    401013a0:	d503201f 	nop
    401013a4:	d503201f 	nop
    401013a8:	d503201f 	nop
    401013ac:	d503201f 	nop
    401013b0:	d503201f 	nop
    401013b4:	d503201f 	nop
    401013b8:	d503201f 	nop
    401013bc:	d503201f 	nop
    401013c0:	d503201f 	nop
    401013c4:	d503201f 	nop
    401013c8:	d503201f 	nop
    401013cc:	d503201f 	nop
    401013d0:	d503201f 	nop
    401013d4:	d503201f 	nop
    401013d8:	d503201f 	nop
    401013dc:	d503201f 	nop
    401013e0:	d503201f 	nop
    401013e4:	d503201f 	nop
    401013e8:	d503201f 	nop
    401013ec:	d503201f 	nop
    401013f0:	d503201f 	nop
    401013f4:	d503201f 	nop
    401013f8:	d503201f 	nop
    401013fc:	d503201f 	nop
    40101400:	d503201f 	nop
    40101404:	d503201f 	nop
    40101408:	d503201f 	nop
    4010140c:	d503201f 	nop
    40101410:	d503201f 	nop
    40101414:	d503201f 	nop
    40101418:	d503201f 	nop
    4010141c:	d503201f 	nop
    40101420:	d503201f 	nop
    40101424:	d503201f 	nop
    40101428:	d503201f 	nop
    4010142c:	d503201f 	nop
    40101430:	d503201f 	nop
    40101434:	d503201f 	nop
    40101438:	d503201f 	nop
    4010143c:	d503201f 	nop
    40101440:	d503201f 	nop
    40101444:	d503201f 	nop
    40101448:	d503201f 	nop
    4010144c:	d503201f 	nop
    40101450:	d503201f 	nop
    40101454:	d503201f 	nop
    40101458:	d503201f 	nop
    4010145c:	d503201f 	nop
    40101460:	d503201f 	nop
    40101464:	d503201f 	nop
    40101468:	d503201f 	nop
    4010146c:	d503201f 	nop
    40101470:	d503201f 	nop
    40101474:	d503201f 	nop
    40101478:	d503201f 	nop
    4010147c:	d503201f 	nop
    40101480:	d503201f 	nop
    40101484:	d503201f 	nop
    40101488:	d503201f 	nop
    4010148c:	d503201f 	nop
    40101490:	d503201f 	nop
    40101494:	d503201f 	nop
    40101498:	d503201f 	nop
    4010149c:	d503201f 	nop
    401014a0:	d503201f 	nop
    401014a4:	d503201f 	nop
    401014a8:	d503201f 	nop
    401014ac:	d503201f 	nop
    401014b0:	d503201f 	nop
    401014b4:	d503201f 	nop
    401014b8:	d503201f 	nop
    401014bc:	d503201f 	nop
    401014c0:	d503201f 	nop
    401014c4:	d503201f 	nop
    401014c8:	d503201f 	nop
    401014cc:	d503201f 	nop
    401014d0:	d503201f 	nop
    401014d4:	d503201f 	nop
    401014d8:	d503201f 	nop
    401014dc:	d503201f 	nop
    401014e0:	d503201f 	nop
    401014e4:	d503201f 	nop
    401014e8:	d503201f 	nop
    401014ec:	d503201f 	nop
    401014f0:	d503201f 	nop
    401014f4:	d503201f 	nop
    401014f8:	d503201f 	nop
    401014fc:	d503201f 	nop
    40101500:	d503201f 	nop
    40101504:	d503201f 	nop
    40101508:	d503201f 	nop
    4010150c:	d503201f 	nop
    40101510:	d503201f 	nop
    40101514:	d503201f 	nop
    40101518:	d503201f 	nop
    4010151c:	d503201f 	nop
    40101520:	d503201f 	nop
    40101524:	d503201f 	nop
    40101528:	d503201f 	nop
    4010152c:	d503201f 	nop
    40101530:	d503201f 	nop
    40101534:	d503201f 	nop
    40101538:	d503201f 	nop
    4010153c:	d503201f 	nop
    40101540:	d503201f 	nop
    40101544:	d503201f 	nop
    40101548:	d503201f 	nop
    4010154c:	d503201f 	nop
    40101550:	d503201f 	nop
    40101554:	d503201f 	nop
    40101558:	d503201f 	nop
    4010155c:	d503201f 	nop
    40101560:	d503201f 	nop
    40101564:	d503201f 	nop
    40101568:	d503201f 	nop
    4010156c:	d503201f 	nop
    40101570:	d503201f 	nop
    40101574:	d503201f 	nop
    40101578:	d503201f 	nop
    4010157c:	d503201f 	nop
    40101580:	d503201f 	nop
    40101584:	d503201f 	nop
    40101588:	d503201f 	nop
    4010158c:	d503201f 	nop
    40101590:	d503201f 	nop
    40101594:	d503201f 	nop
    40101598:	d503201f 	nop
    4010159c:	d503201f 	nop
    401015a0:	d503201f 	nop
    401015a4:	d503201f 	nop
    401015a8:	d503201f 	nop
    401015ac:	d503201f 	nop
    401015b0:	d503201f 	nop
    401015b4:	d503201f 	nop
    401015b8:	d503201f 	nop
    401015bc:	d503201f 	nop
    401015c0:	d503201f 	nop
    401015c4:	d503201f 	nop
    401015c8:	d503201f 	nop
    401015cc:	d503201f 	nop
    401015d0:	d503201f 	nop
    401015d4:	d503201f 	nop
    401015d8:	d503201f 	nop
    401015dc:	d503201f 	nop
    401015e0:	d503201f 	nop
    401015e4:	d503201f 	nop
    401015e8:	d503201f 	nop
    401015ec:	d503201f 	nop
    401015f0:	d503201f 	nop
    401015f4:	d503201f 	nop
    401015f8:	d503201f 	nop
    401015fc:	d503201f 	nop
    40101600:	d503201f 	nop
    40101604:	d503201f 	nop
    40101608:	d503201f 	nop
    4010160c:	d503201f 	nop
    40101610:	d503201f 	nop
    40101614:	d503201f 	nop
    40101618:	d503201f 	nop
    4010161c:	d503201f 	nop
    40101620:	d503201f 	nop
    40101624:	d503201f 	nop
    40101628:	d503201f 	nop
    4010162c:	d503201f 	nop
    40101630:	d503201f 	nop
    40101634:	d503201f 	nop
    40101638:	d503201f 	nop
    4010163c:	d503201f 	nop
    40101640:	d503201f 	nop
    40101644:	d503201f 	nop
    40101648:	d503201f 	nop
    4010164c:	d503201f 	nop
    40101650:	d503201f 	nop
    40101654:	d503201f 	nop
    40101658:	d503201f 	nop
    4010165c:	d503201f 	nop
    40101660:	d503201f 	nop
    40101664:	d503201f 	nop
    40101668:	d503201f 	nop
    4010166c:	d503201f 	nop
    40101670:	d503201f 	nop
    40101674:	d503201f 	nop
    40101678:	d503201f 	nop
    4010167c:	d503201f 	nop
    40101680:	d503201f 	nop
    40101684:	d503201f 	nop
    40101688:	d503201f 	nop
    4010168c:	d503201f 	nop
    40101690:	d503201f 	nop
    40101694:	d503201f 	nop
    40101698:	d503201f 	nop
    4010169c:	d503201f 	nop
    401016a0:	d503201f 	nop
    401016a4:	d503201f 	nop
    401016a8:	d503201f 	nop
    401016ac:	d503201f 	nop
    401016b0:	d503201f 	nop
    401016b4:	d503201f 	nop
    401016b8:	d503201f 	nop
    401016bc:	d503201f 	nop
    401016c0:	d503201f 	nop
    401016c4:	d503201f 	nop
    401016c8:	d503201f 	nop
    401016cc:	d503201f 	nop
    401016d0:	d503201f 	nop
    401016d4:	d503201f 	nop
    401016d8:	d503201f 	nop
    401016dc:	d503201f 	nop
    401016e0:	d503201f 	nop
    401016e4:	d503201f 	nop
    401016e8:	d503201f 	nop
    401016ec:	d503201f 	nop
    401016f0:	d503201f 	nop
    401016f4:	d503201f 	nop
    401016f8:	d503201f 	nop
    401016fc:	d503201f 	nop
    40101700:	d503201f 	nop
    40101704:	d503201f 	nop
    40101708:	d503201f 	nop
    4010170c:	d503201f 	nop
    40101710:	d503201f 	nop
    40101714:	d503201f 	nop
    40101718:	d503201f 	nop
    4010171c:	d503201f 	nop
    40101720:	d503201f 	nop
    40101724:	d503201f 	nop
    40101728:	d503201f 	nop
    4010172c:	d503201f 	nop
    40101730:	d503201f 	nop
    40101734:	d503201f 	nop
    40101738:	d503201f 	nop
    4010173c:	d503201f 	nop
    40101740:	d503201f 	nop
    40101744:	d503201f 	nop
    40101748:	d503201f 	nop
    4010174c:	d503201f 	nop
    40101750:	d503201f 	nop
    40101754:	d503201f 	nop
    40101758:	d503201f 	nop
    4010175c:	d503201f 	nop
    40101760:	d503201f 	nop
    40101764:	d503201f 	nop
    40101768:	d503201f 	nop
    4010176c:	d503201f 	nop
    40101770:	d503201f 	nop
    40101774:	d503201f 	nop
    40101778:	d503201f 	nop
    4010177c:	d503201f 	nop
    40101780:	d503201f 	nop
    40101784:	d503201f 	nop
    40101788:	d503201f 	nop
    4010178c:	d503201f 	nop
    40101790:	d503201f 	nop
    40101794:	d503201f 	nop
    40101798:	d503201f 	nop
    4010179c:	d503201f 	nop
    401017a0:	d503201f 	nop
    401017a4:	d503201f 	nop
    401017a8:	d503201f 	nop
    401017ac:	d503201f 	nop
    401017b0:	d503201f 	nop
    401017b4:	d503201f 	nop
    401017b8:	d503201f 	nop
    401017bc:	d503201f 	nop
    401017c0:	d503201f 	nop
    401017c4:	d503201f 	nop
    401017c8:	d503201f 	nop
    401017cc:	d503201f 	nop
    401017d0:	d503201f 	nop
    401017d4:	d503201f 	nop
    401017d8:	d503201f 	nop
    401017dc:	d503201f 	nop
    401017e0:	d503201f 	nop
    401017e4:	d503201f 	nop
    401017e8:	d503201f 	nop
    401017ec:	d503201f 	nop
    401017f0:	d503201f 	nop
    401017f4:	d503201f 	nop
    401017f8:	d503201f 	nop
    401017fc:	d503201f 	nop
    40101800:	d10483ff 	sub	sp, sp, #0x120
    40101804:	8b2063ff 	add	sp, sp, x0
    40101808:	cb2063e0 	sub	x0, sp, x0
    4010180c:	cb2063ff 	sub	sp, sp, x0
    40101810:	f2400c1f 	tst	x0, #0xf
    40101814:	540000e0 	b.eq	0x40101830  // b.none
    40101818:	f9000001 	str	x1, [x0]
    4010181c:	927cec01 	and	x1, x0, #0xfffffffffffffff0
    40101820:	f9008820 	str	x0, [x1, #272]
    40101824:	f9400001 	ldr	x1, [x0]
    40101828:	927cec00 	and	x0, x0, #0xfffffffffffffff0
    4010182c:	14000002 	b	0x40101834
    40101830:	f9008800 	str	x0, [x0, #272]
    40101834:	8b2063ff 	add	sp, sp, x0
    40101838:	cb2063e0 	sub	x0, sp, x0
    4010183c:	cb2063ff 	sub	sp, sp, x0
    40101840:	a90007e0 	stp	x0, x1, [sp]
    40101844:	a9010fe2 	stp	x2, x3, [sp, #16]
    40101848:	a90217e4 	stp	x4, x5, [sp, #32]
    4010184c:	a9031fe6 	stp	x6, x7, [sp, #48]
    40101850:	a90427e8 	stp	x8, x9, [sp, #64]
    40101854:	a9052fea 	stp	x10, x11, [sp, #80]
    40101858:	a90637ec 	stp	x12, x13, [sp, #96]
    4010185c:	a9073fee 	stp	x14, x15, [sp, #112]
    40101860:	a90847f0 	stp	x16, x17, [sp, #128]
    40101864:	a9094ff2 	stp	x18, x19, [sp, #144]
    40101868:	a90a57f4 	stp	x20, x21, [sp, #160]
    4010186c:	a90b5ff6 	stp	x22, x23, [sp, #176]
    40101870:	a90c67f8 	stp	x24, x25, [sp, #192]
    40101874:	a90d6ffa 	stp	x26, x27, [sp, #208]
    40101878:	a90e77fc 	stp	x28, x29, [sp, #224]
    4010187c:	d5384035 	mrs	x21, elr_el1
    40101880:	a90f57fe 	stp	x30, x21, [sp, #240]
    40101884:	d5384016 	mrs	x22, spsr_el1
    40101888:	d5385217 	mrs	x23, esr_el1
    4010188c:	a9105ff6 	stp	x22, x23, [sp, #256]
    40101890:	910003e0 	mov	x0, sp
    40101894:	d5386001 	mrs	x1, far_el1
    40101898:	97fffdcb 	bl	0x40100fc4
    4010189c:	d50342df 	msr	daifset, #0x2
    401018a0:	a9505ff6 	ldp	x22, x23, [sp, #256]
    401018a4:	d5184016 	msr	spsr_el1, x22
    401018a8:	d5185217 	msr	esr_el1, x23
    401018ac:	a94f57fe 	ldp	x30, x21, [sp, #240]
    401018b0:	d5184035 	msr	elr_el1, x21
    401018b4:	a94e77fc 	ldp	x28, x29, [sp, #224]
    401018b8:	a94d6ffa 	ldp	x26, x27, [sp, #208]
    401018bc:	a94c67f8 	ldp	x24, x25, [sp, #192]
    401018c0:	a94b5ff6 	ldp	x22, x23, [sp, #176]
    401018c4:	a94a57f4 	ldp	x20, x21, [sp, #160]
    401018c8:	a9494ff2 	ldp	x18, x19, [sp, #144]
    401018cc:	a94847f0 	ldp	x16, x17, [sp, #128]
    401018d0:	a9473fee 	ldp	x14, x15, [sp, #112]
    401018d4:	a94637ec 	ldp	x12, x13, [sp, #96]
    401018d8:	a9452fea 	ldp	x10, x11, [sp, #80]
    401018dc:	a94427e8 	ldp	x8, x9, [sp, #64]
    401018e0:	a9431fe6 	ldp	x6, x7, [sp, #48]
    401018e4:	a94217e4 	ldp	x4, x5, [sp, #32]
    401018e8:	a9410fe2 	ldp	x2, x3, [sp, #16]
    401018ec:	a94007e0 	ldp	x0, x1, [sp]
    401018f0:	f9408bf2 	ldr	x18, [sp, #272]
    401018f4:	9100025f 	mov	sp, x18
    401018f8:	910483ff 	add	sp, sp, #0x120
    401018fc:	d69f03e0 	eret
    40101900:	d10483ff 	sub	sp, sp, #0x120
    40101904:	8b2063ff 	add	sp, sp, x0
    40101908:	cb2063e0 	sub	x0, sp, x0
    4010190c:	cb2063ff 	sub	sp, sp, x0
    40101910:	f2400c1f 	tst	x0, #0xf
    40101914:	540000e0 	b.eq	0x40101930  // b.none
    40101918:	f9000001 	str	x1, [x0]
    4010191c:	927cec01 	and	x1, x0, #0xfffffffffffffff0
    40101920:	f9008820 	str	x0, [x1, #272]
    40101924:	f9400001 	ldr	x1, [x0]
    40101928:	927cec00 	and	x0, x0, #0xfffffffffffffff0
    4010192c:	14000002 	b	0x40101934
    40101930:	f9008800 	str	x0, [x0, #272]
    40101934:	8b2063ff 	add	sp, sp, x0
    40101938:	cb2063e0 	sub	x0, sp, x0
    4010193c:	cb2063ff 	sub	sp, sp, x0
    40101940:	a90007e0 	stp	x0, x1, [sp]
    40101944:	a9010fe2 	stp	x2, x3, [sp, #16]
    40101948:	a90217e4 	stp	x4, x5, [sp, #32]
    4010194c:	a9031fe6 	stp	x6, x7, [sp, #48]
    40101950:	a90427e8 	stp	x8, x9, [sp, #64]
    40101954:	a9052fea 	stp	x10, x11, [sp, #80]
    40101958:	a90637ec 	stp	x12, x13, [sp, #96]
    4010195c:	a9073fee 	stp	x14, x15, [sp, #112]
    40101960:	a90847f0 	stp	x16, x17, [sp, #128]
    40101964:	a9094ff2 	stp	x18, x19, [sp, #144]
    40101968:	a90a57f4 	stp	x20, x21, [sp, #160]
    4010196c:	a90b5ff6 	stp	x22, x23, [sp, #176]
    40101970:	a90c67f8 	stp	x24, x25, [sp, #192]
    40101974:	a90d6ffa 	stp	x26, x27, [sp, #208]
    40101978:	a90e77fc 	stp	x28, x29, [sp, #224]
    4010197c:	d5384035 	mrs	x21, elr_el1
    40101980:	a90f57fe 	stp	x30, x21, [sp, #240]
    40101984:	d5384016 	mrs	x22, spsr_el1
    40101988:	d5385217 	mrs	x23, esr_el1
    4010198c:	a9105ff6 	stp	x22, x23, [sp, #256]
    40101990:	d5034dff 	msr	daifclr, #0xd
    40101994:	910003e0 	mov	x0, sp
    40101998:	97fffdf3 	bl	0x40101164
    4010199c:	d50342df 	msr	daifset, #0x2
    401019a0:	a9505ff6 	ldp	x22, x23, [sp, #256]
    401019a4:	d5184016 	msr	spsr_el1, x22
    401019a8:	d5185217 	msr	esr_el1, x23
    401019ac:	a94f57fe 	ldp	x30, x21, [sp, #240]
    401019b0:	d5184035 	msr	elr_el1, x21
    401019b4:	a94e77fc 	ldp	x28, x29, [sp, #224]
    401019b8:	a94d6ffa 	ldp	x26, x27, [sp, #208]
    401019bc:	a94c67f8 	ldp	x24, x25, [sp, #192]
    401019c0:	a94b5ff6 	ldp	x22, x23, [sp, #176]
    401019c4:	a94a57f4 	ldp	x20, x21, [sp, #160]
    401019c8:	a9494ff2 	ldp	x18, x19, [sp, #144]
    401019cc:	a94847f0 	ldp	x16, x17, [sp, #128]
    401019d0:	a9473fee 	ldp	x14, x15, [sp, #112]
    401019d4:	a94637ec 	ldp	x12, x13, [sp, #96]
    401019d8:	a9452fea 	ldp	x10, x11, [sp, #80]
    401019dc:	a94427e8 	ldp	x8, x9, [sp, #64]
    401019e0:	a9431fe6 	ldp	x6, x7, [sp, #48]
    401019e4:	a94217e4 	ldp	x4, x5, [sp, #32]
    401019e8:	a9410fe2 	ldp	x2, x3, [sp, #16]
    401019ec:	a94007e0 	ldp	x0, x1, [sp]
    401019f0:	f9408bf2 	ldr	x18, [sp, #272]
    401019f4:	9100025f 	mov	sp, x18
    401019f8:	910483ff 	add	sp, sp, #0x120
    401019fc:	d69f03e0 	eret
    40101a00:	d10483ff 	sub	sp, sp, #0x120
    40101a04:	8b2063ff 	add	sp, sp, x0
    40101a08:	cb2063e0 	sub	x0, sp, x0
    40101a0c:	cb2063ff 	sub	sp, sp, x0
    40101a10:	f2400c1f 	tst	x0, #0xf
    40101a14:	540000e0 	b.eq	0x40101a30  // b.none
    40101a18:	f9000001 	str	x1, [x0]
    40101a1c:	927cec01 	and	x1, x0, #0xfffffffffffffff0
    40101a20:	f9008820 	str	x0, [x1, #272]
    40101a24:	f9400001 	ldr	x1, [x0]
    40101a28:	927cec00 	and	x0, x0, #0xfffffffffffffff0
    40101a2c:	14000002 	b	0x40101a34
    40101a30:	f9008800 	str	x0, [x0, #272]
    40101a34:	8b2063ff 	add	sp, sp, x0
    40101a38:	cb2063e0 	sub	x0, sp, x0
    40101a3c:	cb2063ff 	sub	sp, sp, x0
    40101a40:	a90007e0 	stp	x0, x1, [sp]
    40101a44:	a9010fe2 	stp	x2, x3, [sp, #16]
    40101a48:	a90217e4 	stp	x4, x5, [sp, #32]
    40101a4c:	a9031fe6 	stp	x6, x7, [sp, #48]
    40101a50:	a90427e8 	stp	x8, x9, [sp, #64]
    40101a54:	a9052fea 	stp	x10, x11, [sp, #80]
    40101a58:	a90637ec 	stp	x12, x13, [sp, #96]
    40101a5c:	a9073fee 	stp	x14, x15, [sp, #112]
    40101a60:	a90847f0 	stp	x16, x17, [sp, #128]
    40101a64:	a9094ff2 	stp	x18, x19, [sp, #144]
    40101a68:	a90a57f4 	stp	x20, x21, [sp, #160]
    40101a6c:	a90b5ff6 	stp	x22, x23, [sp, #176]
    40101a70:	a90c67f8 	stp	x24, x25, [sp, #192]
    40101a74:	a90d6ffa 	stp	x26, x27, [sp, #208]
    40101a78:	a90e77fc 	stp	x28, x29, [sp, #224]
    40101a7c:	d5384035 	mrs	x21, elr_el1
    40101a80:	a90f57fe 	stp	x30, x21, [sp, #240]
    40101a84:	d5384016 	mrs	x22, spsr_el1
    40101a88:	d5385217 	mrs	x23, esr_el1
    40101a8c:	a9105ff6 	stp	x22, x23, [sp, #256]
    40101a90:	910003e0 	mov	x0, sp
    40101a94:	d2800021 	mov	x1, #0x1                   	// #1
    40101a98:	d2800002 	mov	x2, #0x0                   	// #0
    40101a9c:	d5386003 	mrs	x3, far_el1
    40101aa0:	17fffcd4 	b	0x40100df0
    40101aa4:	d503201f 	nop
    40101aa8:	d503201f 	nop
    40101aac:	d503201f 	nop
    40101ab0:	d503201f 	nop
    40101ab4:	d503201f 	nop
    40101ab8:	d503201f 	nop
    40101abc:	d503201f 	nop
    40101ac0:	d10483ff 	sub	sp, sp, #0x120
    40101ac4:	a90007e0 	stp	x0, x1, [sp]
    40101ac8:	a9010fe2 	stp	x2, x3, [sp, #16]
    40101acc:	a90217e4 	stp	x4, x5, [sp, #32]
    40101ad0:	a9031fe6 	stp	x6, x7, [sp, #48]
    40101ad4:	a90427e8 	stp	x8, x9, [sp, #64]
    40101ad8:	a9052fea 	stp	x10, x11, [sp, #80]
    40101adc:	a90637ec 	stp	x12, x13, [sp, #96]
    40101ae0:	a9073fee 	stp	x14, x15, [sp, #112]
    40101ae4:	a90847f0 	stp	x16, x17, [sp, #128]
    40101ae8:	a9094ff2 	stp	x18, x19, [sp, #144]
    40101aec:	a90a57f4 	stp	x20, x21, [sp, #160]
    40101af0:	a90b5ff6 	stp	x22, x23, [sp, #176]
    40101af4:	a90c67f8 	stp	x24, x25, [sp, #192]
    40101af8:	a90d6ffa 	stp	x26, x27, [sp, #208]
    40101afc:	a90e77fc 	stp	x28, x29, [sp, #224]
    40101b00:	d5384035 	mrs	x21, elr_el1
    40101b04:	a90f57fe 	stp	x30, x21, [sp, #240]
    40101b08:	d5384016 	mrs	x22, spsr_el1
    40101b0c:	d5385217 	mrs	x23, esr_el1
    40101b10:	a9105ff6 	stp	x22, x23, [sp, #256]
    40101b14:	d5384112 	mrs	x18, sp_el0
    40101b18:	f9008ff2 	str	x18, [sp, #280]
    40101b1c:	910003e0 	mov	x0, sp
    40101b20:	d2800001 	mov	x1, #0x0                   	// #0
    40101b24:	d2800002 	mov	x2, #0x0                   	// #0
    40101b28:	d5386003 	mrs	x3, far_el1
    40101b2c:	17fffcb1 	b	0x40100df0
    40101b30:	d503201f 	nop
    40101b34:	d503201f 	nop
    40101b38:	d503201f 	nop
    40101b3c:	d503201f 	nop
    40101b40:	d10483ff 	sub	sp, sp, #0x120
    40101b44:	8b2063ff 	add	sp, sp, x0
    40101b48:	cb2063e0 	sub	x0, sp, x0
    40101b4c:	cb2063ff 	sub	sp, sp, x0
    40101b50:	f2400c1f 	tst	x0, #0xf
    40101b54:	540000e0 	b.eq	0x40101b70  // b.none
    40101b58:	f9000001 	str	x1, [x0]
    40101b5c:	927cec01 	and	x1, x0, #0xfffffffffffffff0
    40101b60:	f9008820 	str	x0, [x1, #272]
    40101b64:	f9400001 	ldr	x1, [x0]
    40101b68:	927cec00 	and	x0, x0, #0xfffffffffffffff0
    40101b6c:	14000002 	b	0x40101b74
    40101b70:	f9008800 	str	x0, [x0, #272]
    40101b74:	8b2063ff 	add	sp, sp, x0
    40101b78:	cb2063e0 	sub	x0, sp, x0
    40101b7c:	cb2063ff 	sub	sp, sp, x0
    40101b80:	a90007e0 	stp	x0, x1, [sp]
    40101b84:	a9010fe2 	stp	x2, x3, [sp, #16]
    40101b88:	a90217e4 	stp	x4, x5, [sp, #32]
    40101b8c:	a9031fe6 	stp	x6, x7, [sp, #48]
    40101b90:	a90427e8 	stp	x8, x9, [sp, #64]
    40101b94:	a9052fea 	stp	x10, x11, [sp, #80]
    40101b98:	a90637ec 	stp	x12, x13, [sp, #96]
    40101b9c:	a9073fee 	stp	x14, x15, [sp, #112]
    40101ba0:	a90847f0 	stp	x16, x17, [sp, #128]
    40101ba4:	a9094ff2 	stp	x18, x19, [sp, #144]
    40101ba8:	a90a57f4 	stp	x20, x21, [sp, #160]
    40101bac:	a90b5ff6 	stp	x22, x23, [sp, #176]
    40101bb0:	a90c67f8 	stp	x24, x25, [sp, #192]
    40101bb4:	a90d6ffa 	stp	x26, x27, [sp, #208]
    40101bb8:	a90e77fc 	stp	x28, x29, [sp, #224]
    40101bbc:	d5384035 	mrs	x21, elr_el1
    40101bc0:	a90f57fe 	stp	x30, x21, [sp, #240]
    40101bc4:	d5384016 	mrs	x22, spsr_el1
    40101bc8:	d5385217 	mrs	x23, esr_el1
    40101bcc:	a9105ff6 	stp	x22, x23, [sp, #256]
    40101bd0:	910003e0 	mov	x0, sp
    40101bd4:	d2800021 	mov	x1, #0x1                   	// #1
    40101bd8:	d2800022 	mov	x2, #0x1                   	// #1
    40101bdc:	d5386003 	mrs	x3, far_el1
    40101be0:	17fffc84 	b	0x40100df0
    40101be4:	d503201f 	nop
    40101be8:	d503201f 	nop
    40101bec:	d503201f 	nop
    40101bf0:	d503201f 	nop
    40101bf4:	d503201f 	nop
    40101bf8:	d503201f 	nop
    40101bfc:	d503201f 	nop
    40101c00:	d10483ff 	sub	sp, sp, #0x120
    40101c04:	a90007e0 	stp	x0, x1, [sp]
    40101c08:	a9010fe2 	stp	x2, x3, [sp, #16]
    40101c0c:	a90217e4 	stp	x4, x5, [sp, #32]
    40101c10:	a9031fe6 	stp	x6, x7, [sp, #48]
    40101c14:	a90427e8 	stp	x8, x9, [sp, #64]
    40101c18:	a9052fea 	stp	x10, x11, [sp, #80]
    40101c1c:	a90637ec 	stp	x12, x13, [sp, #96]
    40101c20:	a9073fee 	stp	x14, x15, [sp, #112]
    40101c24:	a90847f0 	stp	x16, x17, [sp, #128]
    40101c28:	a9094ff2 	stp	x18, x19, [sp, #144]
    40101c2c:	a90a57f4 	stp	x20, x21, [sp, #160]
    40101c30:	a90b5ff6 	stp	x22, x23, [sp, #176]
    40101c34:	a90c67f8 	stp	x24, x25, [sp, #192]
    40101c38:	a90d6ffa 	stp	x26, x27, [sp, #208]
    40101c3c:	a90e77fc 	stp	x28, x29, [sp, #224]
    40101c40:	d5384035 	mrs	x21, elr_el1
    40101c44:	a90f57fe 	stp	x30, x21, [sp, #240]
    40101c48:	d5384016 	mrs	x22, spsr_el1
    40101c4c:	d5385217 	mrs	x23, esr_el1
    40101c50:	a9105ff6 	stp	x22, x23, [sp, #256]
    40101c54:	d5384112 	mrs	x18, sp_el0
    40101c58:	f9008ff2 	str	x18, [sp, #280]
    40101c5c:	910003e0 	mov	x0, sp
    40101c60:	d2800001 	mov	x1, #0x0                   	// #0
    40101c64:	d2800022 	mov	x2, #0x1                   	// #1
    40101c68:	d5386003 	mrs	x3, far_el1
    40101c6c:	17fffc61 	b	0x40100df0
    40101c70:	d503201f 	nop
    40101c74:	d503201f 	nop
    40101c78:	d503201f 	nop
    40101c7c:	d503201f 	nop
    40101c80:	d10483ff 	sub	sp, sp, #0x120
    40101c84:	8b2063ff 	add	sp, sp, x0
    40101c88:	cb2063e0 	sub	x0, sp, x0
    40101c8c:	cb2063ff 	sub	sp, sp, x0
    40101c90:	f2400c1f 	tst	x0, #0xf
    40101c94:	540000e0 	b.eq	0x40101cb0  // b.none
    40101c98:	f9000001 	str	x1, [x0]
    40101c9c:	927cec01 	and	x1, x0, #0xfffffffffffffff0
    40101ca0:	f9008820 	str	x0, [x1, #272]
    40101ca4:	f9400001 	ldr	x1, [x0]
    40101ca8:	927cec00 	and	x0, x0, #0xfffffffffffffff0
    40101cac:	14000002 	b	0x40101cb4
    40101cb0:	f9008800 	str	x0, [x0, #272]
    40101cb4:	8b2063ff 	add	sp, sp, x0
    40101cb8:	cb2063e0 	sub	x0, sp, x0
    40101cbc:	cb2063ff 	sub	sp, sp, x0
    40101cc0:	a90007e0 	stp	x0, x1, [sp]
    40101cc4:	a9010fe2 	stp	x2, x3, [sp, #16]
    40101cc8:	a90217e4 	stp	x4, x5, [sp, #32]
    40101ccc:	a9031fe6 	stp	x6, x7, [sp, #48]
    40101cd0:	a90427e8 	stp	x8, x9, [sp, #64]
    40101cd4:	a9052fea 	stp	x10, x11, [sp, #80]
    40101cd8:	a90637ec 	stp	x12, x13, [sp, #96]
    40101cdc:	a9073fee 	stp	x14, x15, [sp, #112]
    40101ce0:	a90847f0 	stp	x16, x17, [sp, #128]
    40101ce4:	a9094ff2 	stp	x18, x19, [sp, #144]
    40101ce8:	a90a57f4 	stp	x20, x21, [sp, #160]
    40101cec:	a90b5ff6 	stp	x22, x23, [sp, #176]
    40101cf0:	a90c67f8 	stp	x24, x25, [sp, #192]
    40101cf4:	a90d6ffa 	stp	x26, x27, [sp, #208]
    40101cf8:	a90e77fc 	stp	x28, x29, [sp, #224]
    40101cfc:	d5384035 	mrs	x21, elr_el1
    40101d00:	a90f57fe 	stp	x30, x21, [sp, #240]
    40101d04:	d5384016 	mrs	x22, spsr_el1
    40101d08:	d5385217 	mrs	x23, esr_el1
    40101d0c:	a9105ff6 	stp	x22, x23, [sp, #256]
    40101d10:	910003e0 	mov	x0, sp
    40101d14:	d2800021 	mov	x1, #0x1                   	// #1
    40101d18:	d2800042 	mov	x2, #0x2                   	// #2
    40101d1c:	d5386003 	mrs	x3, far_el1
    40101d20:	17fffc34 	b	0x40100df0
    40101d24:	d503201f 	nop
    40101d28:	d503201f 	nop
    40101d2c:	d503201f 	nop
    40101d30:	d503201f 	nop
    40101d34:	d503201f 	nop
    40101d38:	d503201f 	nop
    40101d3c:	d503201f 	nop
    40101d40:	d10483ff 	sub	sp, sp, #0x120
    40101d44:	a90007e0 	stp	x0, x1, [sp]
    40101d48:	a9010fe2 	stp	x2, x3, [sp, #16]
    40101d4c:	a90217e4 	stp	x4, x5, [sp, #32]
    40101d50:	a9031fe6 	stp	x6, x7, [sp, #48]
    40101d54:	a90427e8 	stp	x8, x9, [sp, #64]
    40101d58:	a9052fea 	stp	x10, x11, [sp, #80]
    40101d5c:	a90637ec 	stp	x12, x13, [sp, #96]
    40101d60:	a9073fee 	stp	x14, x15, [sp, #112]
    40101d64:	a90847f0 	stp	x16, x17, [sp, #128]
    40101d68:	a9094ff2 	stp	x18, x19, [sp, #144]
    40101d6c:	a90a57f4 	stp	x20, x21, [sp, #160]
    40101d70:	a90b5ff6 	stp	x22, x23, [sp, #176]
    40101d74:	a90c67f8 	stp	x24, x25, [sp, #192]
    40101d78:	a90d6ffa 	stp	x26, x27, [sp, #208]
    40101d7c:	a90e77fc 	stp	x28, x29, [sp, #224]
    40101d80:	d5384035 	mrs	x21, elr_el1
    40101d84:	a90f57fe 	stp	x30, x21, [sp, #240]
    40101d88:	d5384016 	mrs	x22, spsr_el1
    40101d8c:	d5385217 	mrs	x23, esr_el1
    40101d90:	a9105ff6 	stp	x22, x23, [sp, #256]
    40101d94:	d5384112 	mrs	x18, sp_el0
    40101d98:	f9008ff2 	str	x18, [sp, #280]
    40101d9c:	910003e0 	mov	x0, sp
    40101da0:	d2800001 	mov	x1, #0x0                   	// #0
    40101da4:	d2800042 	mov	x2, #0x2                   	// #2
    40101da8:	d5386003 	mrs	x3, far_el1
    40101dac:	17fffc11 	b	0x40100df0
    40101db0:	d503201f 	nop
    40101db4:	d503201f 	nop
    40101db8:	d503201f 	nop
    40101dbc:	d503201f 	nop
    40101dc0:	d10483ff 	sub	sp, sp, #0x120
    40101dc4:	8b2063ff 	add	sp, sp, x0
    40101dc8:	cb2063e0 	sub	x0, sp, x0
    40101dcc:	cb2063ff 	sub	sp, sp, x0
    40101dd0:	f2400c1f 	tst	x0, #0xf
    40101dd4:	540000e0 	b.eq	0x40101df0  // b.none
    40101dd8:	f9000001 	str	x1, [x0]
    40101ddc:	927cec01 	and	x1, x0, #0xfffffffffffffff0
    40101de0:	f9008820 	str	x0, [x1, #272]
    40101de4:	f9400001 	ldr	x1, [x0]
    40101de8:	927cec00 	and	x0, x0, #0xfffffffffffffff0
    40101dec:	14000002 	b	0x40101df4
    40101df0:	f9008800 	str	x0, [x0, #272]
    40101df4:	8b2063ff 	add	sp, sp, x0
    40101df8:	cb2063e0 	sub	x0, sp, x0
    40101dfc:	cb2063ff 	sub	sp, sp, x0
    40101e00:	a90007e0 	stp	x0, x1, [sp]
    40101e04:	a9010fe2 	stp	x2, x3, [sp, #16]
    40101e08:	a90217e4 	stp	x4, x5, [sp, #32]
    40101e0c:	a9031fe6 	stp	x6, x7, [sp, #48]
    40101e10:	a90427e8 	stp	x8, x9, [sp, #64]
    40101e14:	a9052fea 	stp	x10, x11, [sp, #80]
    40101e18:	a90637ec 	stp	x12, x13, [sp, #96]
    40101e1c:	a9073fee 	stp	x14, x15, [sp, #112]
    40101e20:	a90847f0 	stp	x16, x17, [sp, #128]
    40101e24:	a9094ff2 	stp	x18, x19, [sp, #144]
    40101e28:	a90a57f4 	stp	x20, x21, [sp, #160]
    40101e2c:	a90b5ff6 	stp	x22, x23, [sp, #176]
    40101e30:	a90c67f8 	stp	x24, x25, [sp, #192]
    40101e34:	a90d6ffa 	stp	x26, x27, [sp, #208]
    40101e38:	a90e77fc 	stp	x28, x29, [sp, #224]
    40101e3c:	d5384035 	mrs	x21, elr_el1
    40101e40:	a90f57fe 	stp	x30, x21, [sp, #240]
    40101e44:	d5384016 	mrs	x22, spsr_el1
    40101e48:	d5385217 	mrs	x23, esr_el1
    40101e4c:	a9105ff6 	stp	x22, x23, [sp, #256]
    40101e50:	910003e0 	mov	x0, sp
    40101e54:	d2800021 	mov	x1, #0x1                   	// #1
    40101e58:	d2800062 	mov	x2, #0x3                   	// #3
    40101e5c:	d5386003 	mrs	x3, far_el1
    40101e60:	17fffbe4 	b	0x40100df0
    40101e64:	d503201f 	nop
    40101e68:	d503201f 	nop
    40101e6c:	d503201f 	nop
    40101e70:	d503201f 	nop
    40101e74:	d503201f 	nop
    40101e78:	d503201f 	nop
    40101e7c:	d503201f 	nop
    40101e80:	d10483ff 	sub	sp, sp, #0x120
    40101e84:	a90007e0 	stp	x0, x1, [sp]
    40101e88:	a9010fe2 	stp	x2, x3, [sp, #16]
    40101e8c:	a90217e4 	stp	x4, x5, [sp, #32]
    40101e90:	a9031fe6 	stp	x6, x7, [sp, #48]
    40101e94:	a90427e8 	stp	x8, x9, [sp, #64]
    40101e98:	a9052fea 	stp	x10, x11, [sp, #80]
    40101e9c:	a90637ec 	stp	x12, x13, [sp, #96]
    40101ea0:	a9073fee 	stp	x14, x15, [sp, #112]
    40101ea4:	a90847f0 	stp	x16, x17, [sp, #128]
    40101ea8:	a9094ff2 	stp	x18, x19, [sp, #144]
    40101eac:	a90a57f4 	stp	x20, x21, [sp, #160]
    40101eb0:	a90b5ff6 	stp	x22, x23, [sp, #176]
    40101eb4:	a90c67f8 	stp	x24, x25, [sp, #192]
    40101eb8:	a90d6ffa 	stp	x26, x27, [sp, #208]
    40101ebc:	a90e77fc 	stp	x28, x29, [sp, #224]
    40101ec0:	d5384035 	mrs	x21, elr_el1
    40101ec4:	a90f57fe 	stp	x30, x21, [sp, #240]
    40101ec8:	d5384016 	mrs	x22, spsr_el1
    40101ecc:	d5385217 	mrs	x23, esr_el1
    40101ed0:	a9105ff6 	stp	x22, x23, [sp, #256]
    40101ed4:	d5384112 	mrs	x18, sp_el0
    40101ed8:	f9008ff2 	str	x18, [sp, #280]
    40101edc:	910003e0 	mov	x0, sp
    40101ee0:	d2800001 	mov	x1, #0x0                   	// #0
    40101ee4:	d2800062 	mov	x2, #0x3                   	// #3
    40101ee8:	d5386003 	mrs	x3, far_el1
    40101eec:	17fffbc1 	b	0x40100df0
    40101ef0:	d503201f 	nop
    40101ef4:	d503201f 	nop
    40101ef8:	d503201f 	nop
    40101efc:	d503201f 	nop
    40101f00:	d503201f 	nop
    40101f04:	d503201f 	nop
    40101f08:	d503201f 	nop
    40101f0c:	d503201f 	nop
    40101f10:	d503201f 	nop
    40101f14:	d503201f 	nop
    40101f18:	d503201f 	nop
    40101f1c:	d503201f 	nop
    40101f20:	d503201f 	nop
    40101f24:	d503201f 	nop
    40101f28:	d503201f 	nop
    40101f2c:	d503201f 	nop
    40101f30:	d503201f 	nop
    40101f34:	d503201f 	nop
    40101f38:	d503201f 	nop
    40101f3c:	d503201f 	nop
    40101f40:	d503201f 	nop
    40101f44:	d503201f 	nop
    40101f48:	d503201f 	nop
    40101f4c:	d503201f 	nop
    40101f50:	d503201f 	nop
    40101f54:	d503201f 	nop
    40101f58:	d503201f 	nop
    40101f5c:	d503201f 	nop
    40101f60:	d503201f 	nop
    40101f64:	d503201f 	nop
    40101f68:	d503201f 	nop
    40101f6c:	d503201f 	nop
    40101f70:	d503201f 	nop
    40101f74:	d503201f 	nop
    40101f78:	d503201f 	nop
    40101f7c:	d503201f 	nop
    40101f80:	d503201f 	nop
    40101f84:	d503201f 	nop
    40101f88:	d503201f 	nop
    40101f8c:	d503201f 	nop
    40101f90:	d503201f 	nop
    40101f94:	d503201f 	nop
    40101f98:	d503201f 	nop
    40101f9c:	d503201f 	nop
    40101fa0:	d503201f 	nop
    40101fa4:	d503201f 	nop
    40101fa8:	d503201f 	nop
    40101fac:	d503201f 	nop
    40101fb0:	d503201f 	nop
    40101fb4:	d503201f 	nop
    40101fb8:	d503201f 	nop
    40101fbc:	d503201f 	nop
    40101fc0:	d503201f 	nop
    40101fc4:	d503201f 	nop
    40101fc8:	d503201f 	nop
    40101fcc:	d503201f 	nop
    40101fd0:	d503201f 	nop
    40101fd4:	d503201f 	nop
    40101fd8:	d503201f 	nop
    40101fdc:	d503201f 	nop
    40101fe0:	d503201f 	nop
    40101fe4:	d503201f 	nop
    40101fe8:	d503201f 	nop
    40101fec:	d503201f 	nop
    40101ff0:	d503201f 	nop
    40101ff4:	d503201f 	nop
    40101ff8:	d503201f 	nop
    40101ffc:	d503201f 	nop
    40102000:	17fffe80 	b	0x40101a00
    40102004:	d503201f 	nop
    40102008:	d503201f 	nop
    4010200c:	d503201f 	nop
    40102010:	d503201f 	nop
    40102014:	d503201f 	nop
    40102018:	d503201f 	nop
    4010201c:	d503201f 	nop
    40102020:	d503201f 	nop
    40102024:	d503201f 	nop
    40102028:	d503201f 	nop
    4010202c:	d503201f 	nop
    40102030:	d503201f 	nop
    40102034:	d503201f 	nop
    40102038:	d503201f 	nop
    4010203c:	d503201f 	nop
    40102040:	d503201f 	nop
    40102044:	d503201f 	nop
    40102048:	d503201f 	nop
    4010204c:	d503201f 	nop
    40102050:	d503201f 	nop
    40102054:	d503201f 	nop
    40102058:	d503201f 	nop
    4010205c:	d503201f 	nop
    40102060:	d503201f 	nop
    40102064:	d503201f 	nop
    40102068:	d503201f 	nop
    4010206c:	d503201f 	nop
    40102070:	d503201f 	nop
    40102074:	d503201f 	nop
    40102078:	d503201f 	nop
    4010207c:	d503201f 	nop
    40102080:	17fffeb0 	b	0x40101b40
    40102084:	d503201f 	nop
    40102088:	d503201f 	nop
    4010208c:	d503201f 	nop
    40102090:	d503201f 	nop
    40102094:	d503201f 	nop
    40102098:	d503201f 	nop
    4010209c:	d503201f 	nop
    401020a0:	d503201f 	nop
    401020a4:	d503201f 	nop
    401020a8:	d503201f 	nop
    401020ac:	d503201f 	nop
    401020b0:	d503201f 	nop
    401020b4:	d503201f 	nop
    401020b8:	d503201f 	nop
    401020bc:	d503201f 	nop
    401020c0:	d503201f 	nop
    401020c4:	d503201f 	nop
    401020c8:	d503201f 	nop
    401020cc:	d503201f 	nop
    401020d0:	d503201f 	nop
    401020d4:	d503201f 	nop
    401020d8:	d503201f 	nop
    401020dc:	d503201f 	nop
    401020e0:	d503201f 	nop
    401020e4:	d503201f 	nop
    401020e8:	d503201f 	nop
    401020ec:	d503201f 	nop
    401020f0:	d503201f 	nop
    401020f4:	d503201f 	nop
    401020f8:	d503201f 	nop
    401020fc:	d503201f 	nop
    40102100:	17fffee0 	b	0x40101c80
    40102104:	d503201f 	nop
    40102108:	d503201f 	nop
    4010210c:	d503201f 	nop
    40102110:	d503201f 	nop
    40102114:	d503201f 	nop
    40102118:	d503201f 	nop
    4010211c:	d503201f 	nop
    40102120:	d503201f 	nop
    40102124:	d503201f 	nop
    40102128:	d503201f 	nop
    4010212c:	d503201f 	nop
    40102130:	d503201f 	nop
    40102134:	d503201f 	nop
    40102138:	d503201f 	nop
    4010213c:	d503201f 	nop
    40102140:	d503201f 	nop
    40102144:	d503201f 	nop
    40102148:	d503201f 	nop
    4010214c:	d503201f 	nop
    40102150:	d503201f 	nop
    40102154:	d503201f 	nop
    40102158:	d503201f 	nop
    4010215c:	d503201f 	nop
    40102160:	d503201f 	nop
    40102164:	d503201f 	nop
    40102168:	d503201f 	nop
    4010216c:	d503201f 	nop
    40102170:	d503201f 	nop
    40102174:	d503201f 	nop
    40102178:	d503201f 	nop
    4010217c:	d503201f 	nop
    40102180:	17ffff10 	b	0x40101dc0
    40102184:	d503201f 	nop
    40102188:	d503201f 	nop
    4010218c:	d503201f 	nop
    40102190:	d503201f 	nop
    40102194:	d503201f 	nop
    40102198:	d503201f 	nop
    4010219c:	d503201f 	nop
    401021a0:	d503201f 	nop
    401021a4:	d503201f 	nop
    401021a8:	d503201f 	nop
    401021ac:	d503201f 	nop
    401021b0:	d503201f 	nop
    401021b4:	d503201f 	nop
    401021b8:	d503201f 	nop
    401021bc:	d503201f 	nop
    401021c0:	d503201f 	nop
    401021c4:	d503201f 	nop
    401021c8:	d503201f 	nop
    401021cc:	d503201f 	nop
    401021d0:	d503201f 	nop
    401021d4:	d503201f 	nop
    401021d8:	d503201f 	nop
    401021dc:	d503201f 	nop
    401021e0:	d503201f 	nop
    401021e4:	d503201f 	nop
    401021e8:	d503201f 	nop
    401021ec:	d503201f 	nop
    401021f0:	d503201f 	nop
    401021f4:	d503201f 	nop
    401021f8:	d503201f 	nop
    401021fc:	d503201f 	nop
    40102200:	17fffd80 	b	0x40101800
    40102204:	d503201f 	nop
    40102208:	d503201f 	nop
    4010220c:	d503201f 	nop
    40102210:	d503201f 	nop
    40102214:	d503201f 	nop
    40102218:	d503201f 	nop
    4010221c:	d503201f 	nop
    40102220:	d503201f 	nop
    40102224:	d503201f 	nop
    40102228:	d503201f 	nop
    4010222c:	d503201f 	nop
    40102230:	d503201f 	nop
    40102234:	d503201f 	nop
    40102238:	d503201f 	nop
    4010223c:	d503201f 	nop
    40102240:	d503201f 	nop
    40102244:	d503201f 	nop
    40102248:	d503201f 	nop
    4010224c:	d503201f 	nop
    40102250:	d503201f 	nop
    40102254:	d503201f 	nop
    40102258:	d503201f 	nop
    4010225c:	d503201f 	nop
    40102260:	d503201f 	nop
    40102264:	d503201f 	nop
    40102268:	d503201f 	nop
    4010226c:	d503201f 	nop
    40102270:	d503201f 	nop
    40102274:	d503201f 	nop
    40102278:	d503201f 	nop
    4010227c:	d503201f 	nop
    40102280:	17fffda0 	b	0x40101900
    40102284:	d503201f 	nop
    40102288:	d503201f 	nop
    4010228c:	d503201f 	nop
    40102290:	d503201f 	nop
    40102294:	d503201f 	nop
    40102298:	d503201f 	nop
    4010229c:	d503201f 	nop
    401022a0:	d503201f 	nop
    401022a4:	d503201f 	nop
    401022a8:	d503201f 	nop
    401022ac:	d503201f 	nop
    401022b0:	d503201f 	nop
    401022b4:	d503201f 	nop
    401022b8:	d503201f 	nop
    401022bc:	d503201f 	nop
    401022c0:	d503201f 	nop
    401022c4:	d503201f 	nop
    401022c8:	d503201f 	nop
    401022cc:	d503201f 	nop
    401022d0:	d503201f 	nop
    401022d4:	d503201f 	nop
    401022d8:	d503201f 	nop
    401022dc:	d503201f 	nop
    401022e0:	d503201f 	nop
    401022e4:	d503201f 	nop
    401022e8:	d503201f 	nop
    401022ec:	d503201f 	nop
    401022f0:	d503201f 	nop
    401022f4:	d503201f 	nop
    401022f8:	d503201f 	nop
    401022fc:	d503201f 	nop
    40102300:	17fffe60 	b	0x40101c80
    40102304:	d503201f 	nop
    40102308:	d503201f 	nop
    4010230c:	d503201f 	nop
    40102310:	d503201f 	nop
    40102314:	d503201f 	nop
    40102318:	d503201f 	nop
    4010231c:	d503201f 	nop
    40102320:	d503201f 	nop
    40102324:	d503201f 	nop
    40102328:	d503201f 	nop
    4010232c:	d503201f 	nop
    40102330:	d503201f 	nop
    40102334:	d503201f 	nop
    40102338:	d503201f 	nop
    4010233c:	d503201f 	nop
    40102340:	d503201f 	nop
    40102344:	d503201f 	nop
    40102348:	d503201f 	nop
    4010234c:	d503201f 	nop
    40102350:	d503201f 	nop
    40102354:	d503201f 	nop
    40102358:	d503201f 	nop
    4010235c:	d503201f 	nop
    40102360:	d503201f 	nop
    40102364:	d503201f 	nop
    40102368:	d503201f 	nop
    4010236c:	d503201f 	nop
    40102370:	d503201f 	nop
    40102374:	d503201f 	nop
    40102378:	d503201f 	nop
    4010237c:	d503201f 	nop
    40102380:	17fffe90 	b	0x40101dc0
    40102384:	d503201f 	nop
    40102388:	d503201f 	nop
    4010238c:	d503201f 	nop
    40102390:	d503201f 	nop
    40102394:	d503201f 	nop
    40102398:	d503201f 	nop
    4010239c:	d503201f 	nop
    401023a0:	d503201f 	nop
    401023a4:	d503201f 	nop
    401023a8:	d503201f 	nop
    401023ac:	d503201f 	nop
    401023b0:	d503201f 	nop
    401023b4:	d503201f 	nop
    401023b8:	d503201f 	nop
    401023bc:	d503201f 	nop
    401023c0:	d503201f 	nop
    401023c4:	d503201f 	nop
    401023c8:	d503201f 	nop
    401023cc:	d503201f 	nop
    401023d0:	d503201f 	nop
    401023d4:	d503201f 	nop
    401023d8:	d503201f 	nop
    401023dc:	d503201f 	nop
    401023e0:	d503201f 	nop
    401023e4:	d503201f 	nop
    401023e8:	d503201f 	nop
    401023ec:	d503201f 	nop
    401023f0:	d503201f 	nop
    401023f4:	d503201f 	nop
    401023f8:	d503201f 	nop
    401023fc:	d503201f 	nop
    40102400:	17fffdb0 	b	0x40101ac0
    40102404:	d503201f 	nop
    40102408:	d503201f 	nop
    4010240c:	d503201f 	nop
    40102410:	d503201f 	nop
    40102414:	d503201f 	nop
    40102418:	d503201f 	nop
    4010241c:	d503201f 	nop
    40102420:	d503201f 	nop
    40102424:	d503201f 	nop
    40102428:	d503201f 	nop
    4010242c:	d503201f 	nop
    40102430:	d503201f 	nop
    40102434:	d503201f 	nop
    40102438:	d503201f 	nop
    4010243c:	d503201f 	nop
    40102440:	d503201f 	nop
    40102444:	d503201f 	nop
    40102448:	d503201f 	nop
    4010244c:	d503201f 	nop
    40102450:	d503201f 	nop
    40102454:	d503201f 	nop
    40102458:	d503201f 	nop
    4010245c:	d503201f 	nop
    40102460:	d503201f 	nop
    40102464:	d503201f 	nop
    40102468:	d503201f 	nop
    4010246c:	d503201f 	nop
    40102470:	d503201f 	nop
    40102474:	d503201f 	nop
    40102478:	d503201f 	nop
    4010247c:	d503201f 	nop
    40102480:	17fffde0 	b	0x40101c00
    40102484:	d503201f 	nop
    40102488:	d503201f 	nop
    4010248c:	d503201f 	nop
    40102490:	d503201f 	nop
    40102494:	d503201f 	nop
    40102498:	d503201f 	nop
    4010249c:	d503201f 	nop
    401024a0:	d503201f 	nop
    401024a4:	d503201f 	nop
    401024a8:	d503201f 	nop
    401024ac:	d503201f 	nop
    401024b0:	d503201f 	nop
    401024b4:	d503201f 	nop
    401024b8:	d503201f 	nop
    401024bc:	d503201f 	nop
    401024c0:	d503201f 	nop
    401024c4:	d503201f 	nop
    401024c8:	d503201f 	nop
    401024cc:	d503201f 	nop
    401024d0:	d503201f 	nop
    401024d4:	d503201f 	nop
    401024d8:	d503201f 	nop
    401024dc:	d503201f 	nop
    401024e0:	d503201f 	nop
    401024e4:	d503201f 	nop
    401024e8:	d503201f 	nop
    401024ec:	d503201f 	nop
    401024f0:	d503201f 	nop
    401024f4:	d503201f 	nop
    401024f8:	d503201f 	nop
    401024fc:	d503201f 	nop
    40102500:	17fffe10 	b	0x40101d40
    40102504:	d503201f 	nop
    40102508:	d503201f 	nop
    4010250c:	d503201f 	nop
    40102510:	d503201f 	nop
    40102514:	d503201f 	nop
    40102518:	d503201f 	nop
    4010251c:	d503201f 	nop
    40102520:	d503201f 	nop
    40102524:	d503201f 	nop
    40102528:	d503201f 	nop
    4010252c:	d503201f 	nop
    40102530:	d503201f 	nop
    40102534:	d503201f 	nop
    40102538:	d503201f 	nop
    4010253c:	d503201f 	nop
    40102540:	d503201f 	nop
    40102544:	d503201f 	nop
    40102548:	d503201f 	nop
    4010254c:	d503201f 	nop
    40102550:	d503201f 	nop
    40102554:	d503201f 	nop
    40102558:	d503201f 	nop
    4010255c:	d503201f 	nop
    40102560:	d503201f 	nop
    40102564:	d503201f 	nop
    40102568:	d503201f 	nop
    4010256c:	d503201f 	nop
    40102570:	d503201f 	nop
    40102574:	d503201f 	nop
    40102578:	d503201f 	nop
    4010257c:	d503201f 	nop
    40102580:	17fffe40 	b	0x40101e80
    40102584:	d503201f 	nop
    40102588:	d503201f 	nop
    4010258c:	d503201f 	nop
    40102590:	d503201f 	nop
    40102594:	d503201f 	nop
    40102598:	d503201f 	nop
    4010259c:	d503201f 	nop
    401025a0:	d503201f 	nop
    401025a4:	d503201f 	nop
    401025a8:	d503201f 	nop
    401025ac:	d503201f 	nop
    401025b0:	d503201f 	nop
    401025b4:	d503201f 	nop
    401025b8:	d503201f 	nop
    401025bc:	d503201f 	nop
    401025c0:	d503201f 	nop
    401025c4:	d503201f 	nop
    401025c8:	d503201f 	nop
    401025cc:	d503201f 	nop
    401025d0:	d503201f 	nop
    401025d4:	d503201f 	nop
    401025d8:	d503201f 	nop
    401025dc:	d503201f 	nop
    401025e0:	d503201f 	nop
    401025e4:	d503201f 	nop
    401025e8:	d503201f 	nop
    401025ec:	d503201f 	nop
    401025f0:	d503201f 	nop
    401025f4:	d503201f 	nop
    401025f8:	d503201f 	nop
    401025fc:	d503201f 	nop
    40102600:	17fffd30 	b	0x40101ac0
    40102604:	d503201f 	nop
    40102608:	d503201f 	nop
    4010260c:	d503201f 	nop
    40102610:	d503201f 	nop
    40102614:	d503201f 	nop
    40102618:	d503201f 	nop
    4010261c:	d503201f 	nop
    40102620:	d503201f 	nop
    40102624:	d503201f 	nop
    40102628:	d503201f 	nop
    4010262c:	d503201f 	nop
    40102630:	d503201f 	nop
    40102634:	d503201f 	nop
    40102638:	d503201f 	nop
    4010263c:	d503201f 	nop
    40102640:	d503201f 	nop
    40102644:	d503201f 	nop
    40102648:	d503201f 	nop
    4010264c:	d503201f 	nop
    40102650:	d503201f 	nop
    40102654:	d503201f 	nop
    40102658:	d503201f 	nop
    4010265c:	d503201f 	nop
    40102660:	d503201f 	nop
    40102664:	d503201f 	nop
    40102668:	d503201f 	nop
    4010266c:	d503201f 	nop
    40102670:	d503201f 	nop
    40102674:	d503201f 	nop
    40102678:	d503201f 	nop
    4010267c:	d503201f 	nop
    40102680:	17fffd60 	b	0x40101c00
    40102684:	d503201f 	nop
    40102688:	d503201f 	nop
    4010268c:	d503201f 	nop
    40102690:	d503201f 	nop
    40102694:	d503201f 	nop
    40102698:	d503201f 	nop
    4010269c:	d503201f 	nop
    401026a0:	d503201f 	nop
    401026a4:	d503201f 	nop
    401026a8:	d503201f 	nop
    401026ac:	d503201f 	nop
    401026b0:	d503201f 	nop
    401026b4:	d503201f 	nop
    401026b8:	d503201f 	nop
    401026bc:	d503201f 	nop
    401026c0:	d503201f 	nop
    401026c4:	d503201f 	nop
    401026c8:	d503201f 	nop
    401026cc:	d503201f 	nop
    401026d0:	d503201f 	nop
    401026d4:	d503201f 	nop
    401026d8:	d503201f 	nop
    401026dc:	d503201f 	nop
    401026e0:	d503201f 	nop
    401026e4:	d503201f 	nop
    401026e8:	d503201f 	nop
    401026ec:	d503201f 	nop
    401026f0:	d503201f 	nop
    401026f4:	d503201f 	nop
    401026f8:	d503201f 	nop
    401026fc:	d503201f 	nop
    40102700:	17fffd90 	b	0x40101d40
    40102704:	d503201f 	nop
    40102708:	d503201f 	nop
    4010270c:	d503201f 	nop
    40102710:	d503201f 	nop
    40102714:	d503201f 	nop
    40102718:	d503201f 	nop
    4010271c:	d503201f 	nop
    40102720:	d503201f 	nop
    40102724:	d503201f 	nop
    40102728:	d503201f 	nop
    4010272c:	d503201f 	nop
    40102730:	d503201f 	nop
    40102734:	d503201f 	nop
    40102738:	d503201f 	nop
    4010273c:	d503201f 	nop
    40102740:	d503201f 	nop
    40102744:	d503201f 	nop
    40102748:	d503201f 	nop
    4010274c:	d503201f 	nop
    40102750:	d503201f 	nop
    40102754:	d503201f 	nop
    40102758:	d503201f 	nop
    4010275c:	d503201f 	nop
    40102760:	d503201f 	nop
    40102764:	d503201f 	nop
    40102768:	d503201f 	nop
    4010276c:	d503201f 	nop
    40102770:	d503201f 	nop
    40102774:	d503201f 	nop
    40102778:	d503201f 	nop
    4010277c:	d503201f 	nop
    40102780:	17fffdc0 	b	0x40101e80
    40102784:	d503201f 	nop
    40102788:	2a282420 	orn	w0, w1, w8, lsl #9
    4010278c:	0000302c 	.inst	0x0000302c ; undefined
    40102790:	aa1e03e5 	mov	x5, x30
    40102794:	5800196e 	ldr	x14, 0x40102ac0
    40102798:	aa0e03e6 	mov	x6, x14
    4010279c:	d2800008 	mov	x8, #0x0                   	// #0
    401027a0:	914005c9 	add	x9, x14, #0x1, lsl #12
    401027a4:	d280004a 	mov	x10, #0x2                   	// #2
    401027a8:	94000083 	bl	0x401029b4
    401027ac:	91400dc6 	add	x6, x14, #0x3, lsl #12
    401027b0:	d2800007 	mov	x7, #0x0                   	// #0
    401027b4:	d2800008 	mov	x8, #0x0                   	// #0
    401027b8:	aa0803e9 	mov	x9, x8
    401027bc:	d280080a 	mov	x10, #0x40                  	// #64
    401027c0:	9400009a 	bl	0x40102a28
    401027c4:	91400dc6 	add	x6, x14, #0x3, lsl #12
    401027c8:	58001807 	ldr	x7, 0x40102ac8
    401027cc:	d2a10008 	mov	x8, #0x8000000             	// #134217728
    401027d0:	aa0803e9 	mov	x9, x8
    401027d4:	d280380a 	mov	x10, #0x1c0                 	// #448
    401027d8:	94000094 	bl	0x40102a28
    401027dc:	914005c6 	add	x6, x14, #0x1, lsl #12
    401027e0:	d2800008 	mov	x8, #0x0                   	// #0
    401027e4:	91400dc9 	add	x9, x14, #0x3, lsl #12
    401027e8:	9400007e 	bl	0x401029e0
    401027ec:	914005c6 	add	x6, x14, #0x1, lsl #12
    401027f0:	58001707 	ldr	x7, 0x40102ad0
    401027f4:	d2a80008 	mov	x8, #0x40000000            	// #1073741824
    401027f8:	aa0803e9 	mov	x9, x8
    401027fc:	d2801fea 	mov	x10, #0xff                  	// #255
    40102800:	9400007f 	bl	0x401029fc
    40102804:	914005c6 	add	x6, x14, #0x1, lsl #12
    40102808:	58001687 	ldr	x7, 0x40102ad8
    4010280c:	d2c00808 	mov	x8, #0x4000000000          	// #274877906944
    40102810:	aa0803e9 	mov	x9, x8
    40102814:	d280200a 	mov	x10, #0x100                 	// #256
    40102818:	94000079 	bl	0x401029fc
    4010281c:	914005c6 	add	x6, x14, #0x1, lsl #12
    40102820:	914004c6 	add	x6, x6, #0x1, lsl #12
    40102824:	58001527 	ldr	x7, 0x40102ac8
    40102828:	d2c01008 	mov	x8, #0x8000000000          	// #549755813888
    4010282c:	aa0803e9 	mov	x9, x8
    40102830:	d280400a 	mov	x10, #0x200                 	// #512
    40102834:	94000072 	bl	0x401029fc
    40102838:	91400dc6 	add	x6, x14, #0x3, lsl #12
    4010283c:	914004c6 	add	x6, x6, #0x1, lsl #12
    40102840:	58001487 	ldr	x7, 0x40102ad0
    40102844:	d2a80008 	mov	x8, #0x40000000            	// #1073741824
    40102848:	aa0803e9 	mov	x9, x8
    4010284c:	d280400a 	mov	x10, #0x200                 	// #512
    40102850:	94000076 	bl	0x40102a28
    40102854:	914005c6 	add	x6, x14, #0x1, lsl #12
    40102858:	d2a80008 	mov	x8, #0x40000000            	// #1073741824
    4010285c:	91400dc9 	add	x9, x14, #0x3, lsl #12
    40102860:	91400529 	add	x9, x9, #0x1, lsl #12
    40102864:	9400005f 	bl	0x401029e0
    40102868:	914015d0 	add	x16, x14, #0x5, lsl #12
    4010286c:	d2a80011 	mov	x17, #0x40000000            	// #1073741824
    40102870:	aa1003e6 	mov	x6, x16
    40102874:	580012e7 	ldr	x7, 0x40102ad0
    40102878:	aa1103e8 	mov	x8, x17
    4010287c:	aa1103e9 	mov	x9, x17
    40102880:	d34cfdea 	lsr	x10, x15, #12
    40102884:	9400007b 	bl	0x40102a70
    40102888:	91400dc6 	add	x6, x14, #0x3, lsl #12
    4010288c:	914004c6 	add	x6, x6, #0x1, lsl #12
    40102890:	aa1103e8 	mov	x8, x17
    40102894:	aa1003e9 	mov	x9, x16
    40102898:	9400006f 	bl	0x40102a54
    4010289c:	91400610 	add	x16, x16, #0x1, lsl #12
    401028a0:	91480231 	add	x17, x17, #0x200, lsl #12
    401028a4:	d14801ef 	sub	x15, x15, #0x200, lsl #12
    401028a8:	b5ffff4f 	cbnz	x15, 0x40102890
    401028ac:	580011a8 	ldr	x8, 0x40102ae0
    401028b0:	580011c9 	ldr	x9, 0x40102ae8
    401028b4:	cb08012a 	sub	x10, x9, x8
    401028b8:	914015c6 	add	x6, x14, #0x5, lsl #12
    401028bc:	580011a7 	ldr	x7, 0x40102af0
    401028c0:	aa0803e9 	mov	x9, x8
    401028c4:	d34cfd4a 	lsr	x10, x10, #12
    401028c8:	9400006a 	bl	0x40102a70
    401028cc:	58001168 	ldr	x8, 0x40102af8
    401028d0:	58001189 	ldr	x9, 0x40102b00
    401028d4:	cb08012a 	sub	x10, x9, x8
    401028d8:	914015c6 	add	x6, x14, #0x5, lsl #12
    401028dc:	58001167 	ldr	x7, 0x40102b08
    401028e0:	aa0803e9 	mov	x9, x8
    401028e4:	d34cfd4a 	lsr	x10, x10, #12
    401028e8:	94000062 	bl	0x40102a70
    401028ec:	58001128 	ldr	x8, 0x40102b10
    401028f0:	58001149 	ldr	x9, 0x40102b18
    401028f4:	cb08012a 	sub	x10, x9, x8
    401028f8:	914015c6 	add	x6, x14, #0x5, lsl #12
    401028fc:	58000fa7 	ldr	x7, 0x40102af0
    40102900:	aa0803e9 	mov	x9, x8
    40102904:	d34cfd4a 	lsr	x10, x10, #12
    40102908:	9400005a 	bl	0x40102a70
    4010290c:	aa0503fe 	mov	x30, x5
    40102910:	d65f03c0 	ret
    40102914:	d5033f9f 	dsb	sy
    40102918:	5800105b 	ldr	x27, 0x40102b20
    4010291c:	d518201b 	msr	ttbr0_el1, x27
    40102920:	d5033fdf 	isb
    40102924:	d510025f 	msr	mdscr_el1, xzr
    40102928:	d508871f 	tlbi	vmalle1
    4010292c:	d503379f 	dsb	nsh
    40102930:	58000fc2 	ldr	x2, 0x40102b28
    40102934:	d518a202 	msr	mair_el1, x2
    40102938:	d5380703 	mrs	x3, id_aa64mmfr0_el1
    4010293c:	58000fa5 	ldr	x5, 0x40102b30
    40102940:	d3400c64 	ubfx	x4, x3, #0, #4
    40102944:	386468a4 	ldrb	w4, [x5, x4]
    40102948:	d2800805 	mov	x5, #0x40                  	// #64
    4010294c:	cb0400a5 	sub	x5, x5, x4
    40102950:	aa0503e4 	mov	x4, x5
    40102954:	d370bca5 	lsl	x5, x5, #16
    40102958:	aa050085 	orr	x5, x4, x5
    4010295c:	58000ee2 	ldr	x2, 0x40102b38
    40102960:	aa0200a2 	orr	x2, x5, x2
    40102964:	b3600862 	bfi	x2, x3, #32, #3
    40102968:	d5182042 	msr	tcr_el1, x2
    4010296c:	aa1e03f6 	mov	x22, x30
    40102970:	58000e80 	ldr	x0, 0x40102b40
    40102974:	58000ea1 	ldr	x1, 0x40102b48
    40102978:	58000ec2 	ldr	x2, 0x40102b50
    4010297c:	f9400042 	ldr	x2, [x2]
    40102980:	8b010041 	add	x1, x2, x1
    40102984:	91404021 	add	x1, x1, #0x10, lsl #12
    40102988:	cb000021 	sub	x1, x1, x0
    4010298c:	97fff694 	bl	0x401003dc
    40102990:	58000e42 	ldr	x2, 0x40102b58
    40102994:	58000e63 	ldr	x3, 0x40102b60
    40102998:	d5381001 	mrs	x1, sctlr_el1
    4010299c:	8a230021 	bic	x1, x1, x3
    401029a0:	aa020021 	orr	x1, x1, x2
    401029a4:	d5181001 	msr	sctlr_el1, x1
    401029a8:	d5033fdf 	isb
    401029ac:	aa1603fe 	mov	x30, x22
    401029b0:	d65f03c0 	ret
    401029b4:	d367fd0b 	lsr	x11, x8, #39
    401029b8:	9240216b 	and	x11, x11, #0x1ff
    401029bc:	d280006c 	mov	x12, #0x3                   	// #3
    401029c0:	d34cfd29 	lsr	x9, x9, #12
    401029c4:	aa09318d 	orr	x13, x12, x9, lsl #12
    401029c8:	f82b78cd 	str	x13, [x6, x11, lsl #3]
    401029cc:	d100054a 	sub	x10, x10, #0x1
    401029d0:	9100056b 	add	x11, x11, #0x1
    401029d4:	91000529 	add	x9, x9, #0x1
    401029d8:	b5ffff6a 	cbnz	x10, 0x401029c4
    401029dc:	d65f03c0 	ret
    401029e0:	d35efd0b 	lsr	x11, x8, #30
    401029e4:	9240216b 	and	x11, x11, #0x1ff
    401029e8:	d280006c 	mov	x12, #0x3                   	// #3
    401029ec:	d34cfd29 	lsr	x9, x9, #12
    401029f0:	aa09318d 	orr	x13, x12, x9, lsl #12
    401029f4:	f82b78cd 	str	x13, [x6, x11, lsl #3]
    401029f8:	d65f03c0 	ret
    401029fc:	d35efd0b 	lsr	x11, x8, #30
    40102a00:	9240216b 	and	x11, x11, #0x1ff
    40102a04:	aa0703ec 	mov	x12, x7
    40102a08:	d35efd29 	lsr	x9, x9, #30
    40102a0c:	aa09798d 	orr	x13, x12, x9, lsl #30
    40102a10:	f82b78cd 	str	x13, [x6, x11, lsl #3]
    40102a14:	d100054a 	sub	x10, x10, #0x1
    40102a18:	9100056b 	add	x11, x11, #0x1
    40102a1c:	91000529 	add	x9, x9, #0x1
    40102a20:	b5ffff6a 	cbnz	x10, 0x40102a0c
    40102a24:	d65f03c0 	ret
    40102a28:	d355fd0b 	lsr	x11, x8, #21
    40102a2c:	9240216b 	and	x11, x11, #0x1ff
    40102a30:	aa0703ec 	mov	x12, x7
    40102a34:	d355fd29 	lsr	x9, x9, #21
    40102a38:	aa09558d 	orr	x13, x12, x9, lsl #21
    40102a3c:	f82b78cd 	str	x13, [x6, x11, lsl #3]
    40102a40:	d100054a 	sub	x10, x10, #0x1
    40102a44:	9100056b 	add	x11, x11, #0x1
    40102a48:	91000529 	add	x9, x9, #0x1
    40102a4c:	b5ffff6a 	cbnz	x10, 0x40102a38
    40102a50:	d65f03c0 	ret
    40102a54:	d355fd0b 	lsr	x11, x8, #21
    40102a58:	9240216b 	and	x11, x11, #0x1ff
    40102a5c:	d280006c 	mov	x12, #0x3                   	// #3
    40102a60:	d34cfd29 	lsr	x9, x9, #12
    40102a64:	aa09318d 	orr	x13, x12, x9, lsl #12
    40102a68:	f82b78cd 	str	x13, [x6, x11, lsl #3]
    40102a6c:	d65f03c0 	ret
    40102a70:	d355fd0b 	lsr	x11, x8, #21
    40102a74:	9240216b 	and	x11, x11, #0x1ff
    40102a78:	d374cd6b 	lsl	x11, x11, #12
    40102a7c:	8b060166 	add	x6, x11, x6
    40102a80:	d34cfd0b 	lsr	x11, x8, #12
    40102a84:	9240216b 	and	x11, x11, #0x1ff
    40102a88:	aa0703ec 	mov	x12, x7
    40102a8c:	b240058c 	orr	x12, x12, #0x3
    40102a90:	d34cfd29 	lsr	x9, x9, #12
    40102a94:	aa09318d 	orr	x13, x12, x9, lsl #12
    40102a98:	f82b78cd 	str	x13, [x6, x11, lsl #3]
    40102a9c:	9100056b 	add	x11, x11, #0x1
    40102aa0:	9240216b 	and	x11, x11, #0x1ff
    40102aa4:	b500004b 	cbnz	x11, 0x40102aac
    40102aa8:	914004c6 	add	x6, x6, #0x1, lsl #12
    40102aac:	91000529 	add	x9, x9, #0x1
    40102ab0:	d100054a 	sub	x10, x10, #0x1
    40102ab4:	b5ffff0a 	cbnz	x10, 0x40102a94
    40102ab8:	d65f03c0 	ret
    40102abc:	d503201f 	nop
    40102ac0:	4013d000 	.inst	0x4013d000 ; undefined
    40102ac4:	00000000 	.inst	0x00000000 ; undefined
    40102ac8:	00000705 	.inst	0x00000705 ; undefined
    40102acc:	00600000 	.inst	0x00600000 ; undefined
    40102ad0:	00000715 	.inst	0x00000715 ; undefined
    40102ad4:	00600000 	.inst	0x00600000 ; undefined
    40102ad8:	00000701 	.inst	0x00000701 ; undefined
    40102adc:	00600000 	.inst	0x00600000 ; undefined
    40102ae0:	40000000 	.inst	0x40000000 ; undefined
    40102ae4:	00000000 	.inst	0x00000000 ; undefined
    40102ae8:	40100000 	.inst	0x40100000 ; undefined
    40102aec:	00000000 	.inst	0x00000000 ; undefined
    40102af0:	00000795 	.inst	0x00000795 ; undefined
    40102af4:	00600000 	.inst	0x00600000 ; undefined
    40102af8:	40100000 	.inst	0x40100000 ; undefined
    40102afc:	00000000 	.inst	0x00000000 ; undefined
    40102b00:	40117000 	.inst	0x40117000 ; undefined
    40102b04:	00000000 	.inst	0x00000000 ; undefined
    40102b08:	00000795 	.inst	0x00000795 ; undefined
    40102b0c:	00400000 	.inst	0x00400000 ; undefined
    40102b10:	40118000 	.inst	0x40118000 ; undefined
    40102b14:	00000000 	.inst	0x00000000 ; undefined
    40102b18:	4011abe8 	.inst	0x4011abe8 ; undefined
    40102b1c:	00000000 	.inst	0x00000000 ; undefined
    40102b20:	4013d000 	.inst	0x4013d000 ; undefined
    40102b24:	00000000 	.inst	0x00000000 ; undefined
    40102b28:	440c0400 	.inst	0x440c0400 ; undefined
    40102b2c:	0000ffbb 	.inst	0x0000ffbb ; undefined
    40102b30:	40102788 	.inst	0x40102788 ; undefined
    40102b34:	00000000 	.inst	0x00000000 ; undefined
    40102b38:	35003500 	cbnz	w0, 0x401031d8
    40102b3c:	00000010 	.inst	0x00000010 ; undefined
    40102b40:	4011b000 	.inst	0x4011b000 ; undefined
    40102b44:	00000000 	.inst	0x00000000 ; undefined
    40102b48:	4013d000 	.inst	0x4013d000 ; undefined
    40102b4c:	00000000 	.inst	0x00000000 ; undefined
    40102b50:	4011b018 	.inst	0x4011b018 ; undefined
    40102b54:	00000000 	.inst	0x00000000 ; undefined
    40102b58:	34d5d93d 	cbz	w29, 0x400ae67c
    40102b5c:	00000000 	.inst	0x00000000 ; undefined
    40102b60:	cb2a26c2 	sub	x2, x22, w10, uxth #1
    40102b64:	00000000 	.inst	0x00000000 ; undefined
    40102b68:	d10143ff 	sub	sp, sp, #0x50
    40102b6c:	a9017bfd 	stp	x29, x30, [sp, #16]
    40102b70:	f90013f7 	str	x23, [sp, #32]
    40102b74:	a90357f6 	stp	x22, x21, [sp, #48]
    40102b78:	a9044ff4 	stp	x20, x19, [sp, #64]
    40102b7c:	910043fd 	add	x29, sp, #0x10
    40102b80:	aa0003f3 	mov	x19, x0
    40102b84:	940016ea 	bl	0x4010872c
    40102b88:	35000900 	cbnz	w0, 0x40102ca8
    40102b8c:	d00000d7 	adrp	x23, 0x4011c000
    40102b90:	aa1303e0 	mov	x0, x19
    40102b94:	f90056f3 	str	x19, [x23, #168]
    40102b98:	97fff51a 	bl	0x40100000
    40102b9c:	f94056e0 	ldr	x0, [x23, #168]
    40102ba0:	d00000a1 	adrp	x1, 0x40118000
    40102ba4:	91359821 	add	x1, x1, #0xd66
    40102ba8:	94001ebb 	bl	0x4010a694
    40102bac:	34000400 	cbz	w0, 0x40102c2c
    40102bb0:	2a0003e1 	mov	w1, w0
    40102bb4:	f94056e0 	ldr	x0, [x23, #168]
    40102bb8:	d00000a2 	adrp	x2, 0x40118000
    40102bbc:	9135b842 	add	x2, x2, #0xd6e
    40102bc0:	d10013a3 	sub	x3, x29, #0x4
    40102bc4:	9400202e 	bl	0x4010ac7c
    40102bc8:	b4000320 	cbz	x0, 0x40102c2c
    40102bcc:	b85fc3b5 	ldur	w21, [x29, #-4]
    40102bd0:	710006bf 	cmp	w21, #0x1
    40102bd4:	540002cb 	b.lt	0x40102c2c  // b.tstop
    40102bd8:	aa0003f4 	mov	x20, x0
    40102bdc:	711002bf 	cmp	w21, #0x400
    40102be0:	54000169 	b.ls	0x40102c0c  // b.plast
    40102be4:	d00000a1 	adrp	x1, 0x40118000
    40102be8:	d00000a2 	adrp	x2, 0x40118000
    40102bec:	d00000a4 	adrp	x4, 0x40118000
    40102bf0:	9124c821 	add	x1, x1, #0x932
    40102bf4:	91348442 	add	x2, x2, #0xd21
    40102bf8:	9135dc84 	add	x4, x4, #0xd77
    40102bfc:	52800020 	mov	w0, #0x1                   	// #1
    40102c00:	52801863 	mov	w3, #0xc3                  	// #195
    40102c04:	940045c1 	bl	0x40114308
    40102c08:	52808015 	mov	w21, #0x400                 	// #1024
    40102c0c:	d00000d6 	adrp	x22, 0x4011c000
    40102c10:	9102c2d6 	add	x22, x22, #0xb0
    40102c14:	aa1603e0 	mov	x0, x22
    40102c18:	aa1403e1 	mov	x1, x20
    40102c1c:	aa1503e2 	mov	x2, x21
    40102c20:	9400312e 	bl	0x4010f0d8
    40102c24:	8b1602a8 	add	x8, x21, x22
    40102c28:	381ff11f 	sturb	wzr, [x8, #-1]
    40102c2c:	f94056e0 	ldr	x0, [x23, #168]
    40102c30:	d00000a2 	adrp	x2, 0x40118000
    40102c34:	91366442 	add	x2, x2, #0xd99
    40102c38:	12800001 	mov	w1, #0xffffffff            	// #-1
    40102c3c:	940022f1 	bl	0x4010b800
    40102c40:	2a0003e1 	mov	w1, w0
    40102c44:	36f80100 	tbz	w0, #31, 0x40102c64
    40102c48:	f94056e0 	ldr	x0, [x23, #168]
    40102c4c:	d00000a2 	adrp	x2, 0x40118000
    40102c50:	91369842 	add	x2, x2, #0xda6
    40102c54:	12800001 	mov	w1, #0xffffffff            	// #-1
    40102c58:	940022ea 	bl	0x4010b800
    40102c5c:	2a0003e1 	mov	w1, w0
    40102c60:	37f804e0 	tbnz	w0, #31, 0x40102cfc
    40102c64:	f94056e0 	ldr	x0, [x23, #168]
    40102c68:	d00000a2 	adrp	x2, 0x40118000
    40102c6c:	9136cc42 	add	x2, x2, #0xdb3
    40102c70:	910063a3 	add	x3, x29, #0x18
    40102c74:	94002002 	bl	0x4010ac7c
    40102c78:	b4000420 	cbz	x0, 0x40102cfc
    40102c7c:	b9401ba8 	ldr	w8, [x29, #24]
    40102c80:	7100051f 	cmp	w8, #0x1
    40102c84:	540003cb 	b.lt	0x40102cfc  // b.tstop
    40102c88:	d00000a1 	adrp	x1, 0x40118000
    40102c8c:	9136e821 	add	x1, x1, #0xdba
    40102c90:	aa0003f4 	mov	x20, x0
    40102c94:	94003150 	bl	0x4010f1d4
    40102c98:	35000220 	cbnz	w0, 0x40102cdc
    40102c9c:	d0ffffe8 	adrp	x8, 0x40100000
    40102ca0:	911fe108 	add	x8, x8, #0x7f8
    40102ca4:	14000017 	b	0x40102d00
    40102ca8:	9400279c 	bl	0x4010cb18
    40102cac:	d00000a1 	adrp	x1, 0x40118000
    40102cb0:	d00000a2 	adrp	x2, 0x40118000
    40102cb4:	d00000a4 	adrp	x4, 0x40118000
    40102cb8:	aa0003e5 	mov	x5, x0
    40102cbc:	9124c821 	add	x1, x1, #0x932
    40102cc0:	91348442 	add	x2, x2, #0xd21
    40102cc4:	91355484 	add	x4, x4, #0xd55
    40102cc8:	528006c3 	mov	w3, #0x36                  	// #54
    40102ccc:	2a1f03e0 	mov	w0, wzr
    40102cd0:	9400458e 	bl	0x40114308
    40102cd4:	52800060 	mov	w0, #0x3                   	// #3
    40102cd8:	940000dc 	bl	0x40103048
    40102cdc:	d00000a1 	adrp	x1, 0x40118000
    40102ce0:	9136f821 	add	x1, x1, #0xdbe
    40102ce4:	aa1403e0 	mov	x0, x20
    40102ce8:	9400313b 	bl	0x4010f1d4
    40102cec:	35000080 	cbnz	w0, 0x40102cfc
    40102cf0:	d0ffffe8 	adrp	x8, 0x40100000
    40102cf4:	911e7108 	add	x8, x8, #0x79c
    40102cf8:	14000002 	b	0x40102d00
    40102cfc:	aa1f03e8 	mov	x8, xzr
    40102d00:	f94056e0 	ldr	x0, [x23, #168]
    40102d04:	d00001c9 	adrp	x9, 0x4013c000
    40102d08:	f9016128 	str	x8, [x9, #704]
    40102d0c:	b9001fbf 	str	wzr, [x29, #28]
    40102d10:	94001d5f 	bl	0x4010a28c
    40102d14:	f94056e0 	ldr	x0, [x23, #168]
    40102d18:	d00000a2 	adrp	x2, 0x40118000
    40102d1c:	f00000a3 	adrp	x3, 0x40119000
    40102d20:	91370842 	add	x2, x2, #0xdc2
    40102d24:	91328863 	add	x3, x3, #0xca2
    40102d28:	12800001 	mov	w1, #0xffffffff            	// #-1
    40102d2c:	528000e4 	mov	w4, #0x7                   	// #7
    40102d30:	94002116 	bl	0x4010b188
    40102d34:	36f80280 	tbz	w0, #31, 0x40102d84
    40102d38:	aa1303e0 	mov	x0, x19
    40102d3c:	9400150b 	bl	0x40108168
    40102d40:	94000097 	bl	0x40102f9c
    40102d44:	2a1f03e0 	mov	w0, wzr
    40102d48:	9400025d 	bl	0x401036bc
    40102d4c:	94000272 	bl	0x40103714
    40102d50:	35000360 	cbnz	w0, 0x40102dbc
    40102d54:	d00000d3 	adrp	x19, 0x4011c000
    40102d58:	9102c273 	add	x19, x19, #0xb0
    40102d5c:	d00000c8 	adrp	x8, 0x4011c000
    40102d60:	aa1303e0 	mov	x0, x19
    40102d64:	f9402908 	ldr	x8, [x8, #80]
    40102d68:	9100011f 	mov	sp, x8
    40102d6c:	940030c1 	bl	0x4010f070
    40102d70:	aa0003e2 	mov	x2, x0
    40102d74:	d00000a0 	adrp	x0, 0x40118000
    40102d78:	91383000 	add	x0, x0, #0xe0c
    40102d7c:	aa1303e1 	mov	x1, x19
    40102d80:	940042a4 	bl	0x40113810
    40102d84:	2a0003f4 	mov	w20, w0
    40102d88:	f94056e0 	ldr	x0, [x23, #168]
    40102d8c:	2a1403e1 	mov	w1, w20
    40102d90:	9400183b 	bl	0x40108e7c
    40102d94:	7100101f 	cmp	w0, #0x4
    40102d98:	540002a3 	b.cc	0x40102dec  // b.lo, b.ul, b.last
    40102d9c:	d00000a1 	adrp	x1, 0x40118000
    40102da0:	d00000a2 	adrp	x2, 0x40118000
    40102da4:	d00000a4 	adrp	x4, 0x40118000
    40102da8:	9124c821 	add	x1, x1, #0x932
    40102dac:	91348442 	add	x2, x2, #0xd21
    40102db0:	91257484 	add	x4, x4, #0x95d
    40102db4:	52800f83 	mov	w3, #0x7c                  	// #124
    40102db8:	1400001a 	b	0x40102e20
    40102dbc:	d00000a1 	adrp	x1, 0x40118000
    40102dc0:	d00000a2 	adrp	x2, 0x40118000
    40102dc4:	d00000a4 	adrp	x4, 0x40118000
    40102dc8:	2a0003e5 	mov	w5, w0
    40102dcc:	9124c821 	add	x1, x1, #0x932
    40102dd0:	91348442 	add	x2, x2, #0xd21
    40102dd4:	9134a484 	add	x4, x4, #0xd29
    40102dd8:	52801dc3 	mov	w3, #0xee                  	// #238
    40102ddc:	2a1f03e0 	mov	w0, wzr
    40102de0:	9400454a 	bl	0x40114308
    40102de4:	52800060 	mov	w0, #0x3                   	// #3
    40102de8:	94000098 	bl	0x40103048
    40102dec:	2a0003f5 	mov	w21, w0
    40102df0:	f94056e0 	ldr	x0, [x23, #168]
    40102df4:	2a1403e1 	mov	w1, w20
    40102df8:	9400183a 	bl	0x40108ee0
    40102dfc:	7100101f 	cmp	w0, #0x4
    40102e00:	54000183 	b.cc	0x40102e30  // b.lo, b.ul, b.last
    40102e04:	d00000a1 	adrp	x1, 0x40118000
    40102e08:	d00000a2 	adrp	x2, 0x40118000
    40102e0c:	d00000a4 	adrp	x4, 0x40118000
    40102e10:	9124c821 	add	x1, x1, #0x932
    40102e14:	91348442 	add	x2, x2, #0xd21
    40102e18:	91260c84 	add	x4, x4, #0x983
    40102e1c:	52801003 	mov	w3, #0x80                  	// #128
    40102e20:	2a1f03e0 	mov	w0, wzr
    40102e24:	94004539 	bl	0x40114308
    40102e28:	52800060 	mov	w0, #0x3                   	// #3
    40102e2c:	94000087 	bl	0x40103048
    40102e30:	2a0003f6 	mov	w22, w0
    40102e34:	f94056e0 	ldr	x0, [x23, #168]
    40102e38:	d00000a2 	adrp	x2, 0x40118000
    40102e3c:	91269842 	add	x2, x2, #0x9a6
    40102e40:	910073a3 	add	x3, x29, #0x1c
    40102e44:	2a1403e1 	mov	w1, w20
    40102e48:	94001f8d 	bl	0x4010ac7c
    40102e4c:	aa0003e5 	mov	x5, x0
    40102e50:	b5000060 	cbnz	x0, 0x40102e5c
    40102e54:	b9401fa6 	ldr	w6, [x29, #28]
    40102e58:	14000005 	b	0x40102e6c
    40102e5c:	b9401fa6 	ldr	w6, [x29, #28]
    40102e60:	0b1502c8 	add	w8, w22, w21
    40102e64:	6b0808df 	cmp	w6, w8, lsl #2
    40102e68:	5400018a 	b.ge	0x40102e98  // b.tcont
    40102e6c:	d00000a1 	adrp	x1, 0x40118000
    40102e70:	d00000a2 	adrp	x2, 0x40118000
    40102e74:	d00000a4 	adrp	x4, 0x40118000
    40102e78:	9124c821 	add	x1, x1, #0x932
    40102e7c:	91348442 	add	x2, x2, #0xd21
    40102e80:	9126a884 	add	x4, x4, #0x9aa
    40102e84:	528011c3 	mov	w3, #0x8e                  	// #142
    40102e88:	2a1f03e0 	mov	w0, wzr
    40102e8c:	9400451f 	bl	0x40114308
    40102e90:	52800060 	mov	w0, #0x3                   	// #3
    40102e94:	9400006d 	bl	0x40103048
    40102e98:	f94000a8 	ldr	x8, [x5]
    40102e9c:	d0ffffe9 	adrp	x9, 0x40100000
    40102ea0:	91000129 	add	x9, x9, #0x0
    40102ea4:	dac00d08 	rev	x8, x8
    40102ea8:	eb09011f 	cmp	x8, x9
    40102eac:	54000129 	b.ls	0x40102ed0  // b.plast
    40102eb0:	d00000a1 	adrp	x1, 0x40118000
    40102eb4:	d00000a2 	adrp	x2, 0x40118000
    40102eb8:	d00000a4 	adrp	x4, 0x40118000
    40102ebc:	9124c821 	add	x1, x1, #0x932
    40102ec0:	91348442 	add	x2, x2, #0xd21
    40102ec4:	91373884 	add	x4, x4, #0xdce
    40102ec8:	528012e3 	mov	w3, #0x97                  	// #151
    40102ecc:	17ffffd5 	b	0x40102e20
    40102ed0:	f94004a9 	ldr	x9, [x5, #8]
    40102ed4:	b00000cb 	adrp	x11, 0x4011b000
    40102ed8:	f9400d6b 	ldr	x11, [x11, #24]
    40102edc:	d00000ca 	adrp	x10, 0x4011c000
    40102ee0:	dac00d29 	rev	x9, x9
    40102ee4:	8b080128 	add	x8, x9, x8
    40102ee8:	9100c14a 	add	x10, x10, #0x30
    40102eec:	52a00029 	mov	w9, #0x10000               	// #65536
    40102ef0:	927ced08 	and	x8, x8, #0xfffffffffffffff0
    40102ef4:	a9022548 	stp	x8, x9, [x10, #32]
    40102ef8:	f00001c9 	adrp	x9, 0x4013d000
    40102efc:	91000129 	add	x9, x9, #0x0
    40102f00:	913ffd6b 	add	x11, x11, #0xfff
    40102f04:	9274cd29 	and	x9, x9, #0xfffffffffffff000
    40102f08:	9274cd6b 	and	x11, x11, #0xfffffffffffff000
    40102f0c:	f900394b 	str	x11, [x10, #112]
    40102f10:	8b09016b 	add	x11, x11, x9
    40102f14:	d1404108 	sub	x8, x8, #0x10, lsl #12
    40102f18:	a9062d49 	stp	x9, x11, [x10, #96]
    40102f1c:	eb0b0109 	subs	x9, x8, x11
    40102f20:	a900214b 	stp	x11, x8, [x10]
    40102f24:	a9012149 	stp	x9, x8, [x10, #16]
    40102f28:	54fff082 	b.cs	0x40102d38  // b.hs, b.nlast
    40102f2c:	d00000a1 	adrp	x1, 0x40118000
    40102f30:	d00000a2 	adrp	x2, 0x40118000
    40102f34:	d00000a4 	adrp	x4, 0x40118000
    40102f38:	9124c821 	add	x1, x1, #0x932
    40102f3c:	91348442 	add	x2, x2, #0xd21
    40102f40:	9137ac84 	add	x4, x4, #0xdeb
    40102f44:	528015e3 	mov	w3, #0xaf                  	// #175
    40102f48:	17ffffb6 	b	0x40102e20
    40102f4c:	d50342ff 	msr	daifclr, #0x2
    40102f50:	d65f03c0 	ret
    40102f54:	d50342df 	msr	daifset, #0x2
    40102f58:	d65f03c0 	ret
    40102f5c:	a9bf7bfd 	stp	x29, x30, [sp, #-16]!
    40102f60:	910003fd 	mov	x29, sp
    40102f64:	d50342ff 	msr	daifclr, #0x2
    40102f68:	97fff4d5 	bl	0x401002bc
    40102f6c:	d50342df 	msr	daifset, #0x2
    40102f70:	a8c17bfd 	ldp	x29, x30, [sp], #16
    40102f74:	d65f03c0 	ret
    40102f78:	d53b4220 	mrs	x0, daif
    40102f7c:	d50342df 	msr	daifset, #0x2
    40102f80:	d65f03c0 	ret
    40102f84:	d51b4220 	msr	daif, x0
    40102f88:	d65f03c0 	ret
    40102f8c:	d53b4228 	mrs	x8, daif
    40102f90:	12190100 	and	w0, w8, #0x80
    40102f94:	d65f03c0 	ret
    40102f98:	d65f03c0 	ret
    40102f9c:	a9bf7bfd 	stp	x29, x30, [sp, #-16]!
    40102fa0:	910003fd 	mov	x29, sp
    40102fa4:	d00000c8 	adrp	x8, 0x4011c000
    40102fa8:	f9405500 	ldr	x0, [x8, #168]
    40102fac:	d00001c1 	adrp	x1, 0x4013c000
    40102fb0:	910b2021 	add	x1, x1, #0x2c8
    40102fb4:	94001033 	bl	0x40107080
    40102fb8:	35000100 	cbnz	w0, 0x40102fd8
    40102fbc:	d00001c8 	adrp	x8, 0x4013c000
    40102fc0:	f9416508 	ldr	x8, [x8, #712]
    40102fc4:	f9401508 	ldr	x8, [x8, #40]
    40102fc8:	d63f0100 	blr	x8
    40102fcc:	35000060 	cbnz	w0, 0x40102fd8
    40102fd0:	a8c17bfd 	ldp	x29, x30, [sp], #16
    40102fd4:	d65f03c0 	ret
    40102fd8:	d00000a1 	adrp	x1, 0x40118000
    40102fdc:	d00000a2 	adrp	x2, 0x40118000
    40102fe0:	d00000a4 	adrp	x4, 0x40118000
    40102fe4:	2a0003e5 	mov	w5, w0
    40102fe8:	9124c821 	add	x1, x1, #0x932
    40102fec:	91385c42 	add	x2, x2, #0xe17
    40102ff0:	91388484 	add	x4, x4, #0xe21
    40102ff4:	52800783 	mov	w3, #0x3c                  	// #60
    40102ff8:	2a1f03e0 	mov	w0, wzr
    40102ffc:	940044c3 	bl	0x40114308
    40103000:	52800060 	mov	w0, #0x3                   	// #3
    40103004:	94000011 	bl	0x40103048
    40103008:	b00001c8 	adrp	x8, 0x4013c000
    4010300c:	f9416508 	ldr	x8, [x8, #712]
    40103010:	f9401900 	ldr	x0, [x8, #48]
    40103014:	d61f0000 	br	x0
    40103018:	b00001c8 	adrp	x8, 0x4013c000
    4010301c:	f9416508 	ldr	x8, [x8, #712]
    40103020:	f9402501 	ldr	x1, [x8, #72]
    40103024:	d61f0020 	br	x1
    40103028:	b00001c8 	adrp	x8, 0x4013c000
    4010302c:	f9416508 	ldr	x8, [x8, #712]
    40103030:	f9402101 	ldr	x1, [x8, #64]
    40103034:	d61f0020 	br	x1
    40103038:	b00001c8 	adrp	x8, 0x4013c000
    4010303c:	f9416508 	ldr	x8, [x8, #712]
    40103040:	f9403d02 	ldr	x2, [x8, #120]
    40103044:	d61f0040 	br	x2
    40103048:	a9bf7bfd 	stp	x29, x30, [sp, #-16]!
    4010304c:	910003fd 	mov	x29, sp
    40103050:	97fff4c0 	bl	0x40100350
    40103054:	94000001 	bl	0x40103058
    40103058:	a9bf7bfd 	stp	x29, x30, [sp, #-16]!
    4010305c:	910003fd 	mov	x29, sp
    40103060:	d50342df 	msr	daifset, #0x2
    40103064:	97fff496 	bl	0x401002bc
    40103068:	17ffffff 	b	0x40103064
    4010306c:	128001e0 	mov	w0, #0xfffffff0            	// #-16
    40103070:	d65f03c0 	ret
    40103074:	b00000c8 	adrp	x8, 0x4011c000
    40103078:	9101c108 	add	x8, x8, #0x70
    4010307c:	f9400109 	ldr	x9, [x8]
    40103080:	f9400d08 	ldr	x8, [x8, #24]
    40103084:	5280012a 	mov	w10, #0x9                   	// #9
    40103088:	f100013f 	cmp	x9, #0x0
    4010308c:	1a8a0549 	cinc	w9, w10, ne  // ne = any
    40103090:	f100011f 	cmp	x8, #0x0
    40103094:	1a890520 	cinc	w0, w9, ne  // ne = any
    40103098:	d65f03c0 	ret
    4010309c:	a9bf7bfd 	stp	x29, x30, [sp, #-16]!
    401030a0:	910003fd 	mov	x29, sp
    401030a4:	b4000ce1 	cbz	x1, 0x40103240
    401030a8:	7100281f 	cmp	w0, #0xa
    401030ac:	54000ba8 	b.hi	0x40103220  // b.pmore
    401030b0:	b00000a9 	adrp	x9, 0x40118000
    401030b4:	2a0003e8 	mov	w8, w0
    401030b8:	91041129 	add	x9, x9, #0x104
    401030bc:	1000008a 	adr	x10, 0x401030cc
    401030c0:	3868692b 	ldrb	w11, [x9, x8]
    401030c4:	8b0b094a 	add	x10, x10, x11, lsl #2
    401030c8:	d61f0140 	br	x10
    401030cc:	b0ffffe8 	adrp	x8, 0x40100000
    401030d0:	900000a9 	adrp	x9, 0x40117000
    401030d4:	2a1f03e0 	mov	w0, wzr
    401030d8:	91000108 	add	x8, x8, #0x0
    401030dc:	91000129 	add	x9, x9, #0x0
    401030e0:	14000021 	b	0x40103164
    401030e4:	f00000a8 	adrp	x8, 0x4011a000
    401030e8:	f00000a9 	adrp	x9, 0x4011a000
    401030ec:	2a1f03e0 	mov	w0, wzr
    401030f0:	912fa108 	add	x8, x8, #0xbe8
    401030f4:	912fa129 	add	x9, x9, #0xbe8
    401030f8:	1400001b 	b	0x40103164
    401030fc:	900000a8 	adrp	x8, 0x40117000
    40103100:	900000a9 	adrp	x9, 0x40117000
    40103104:	2a1f03e0 	mov	w0, wzr
    40103108:	91000108 	add	x8, x8, #0x0
    4010310c:	91000129 	add	x9, x9, #0x0
    40103110:	14000015 	b	0x40103164
    40103114:	b00000c8 	adrp	x8, 0x4011c000
    40103118:	f9403908 	ldr	x8, [x8, #112]
    4010311c:	b4000828 	cbz	x8, 0x40103220
    40103120:	b00000c9 	adrp	x9, 0x4011c000
    40103124:	f9403129 	ldr	x9, [x9, #96]
    40103128:	2a1f03e0 	mov	w0, wzr
    4010312c:	f9000029 	str	x9, [x1]
    40103130:	52800689 	mov	w9, #0x34                  	// #52
    40103134:	1400003f 	b	0x40103230
    40103138:	900000a8 	adrp	x8, 0x40117000
    4010313c:	900000a9 	adrp	x9, 0x40117000
    40103140:	2a1f03e0 	mov	w0, wzr
    40103144:	91000108 	add	x8, x8, #0x0
    40103148:	91000129 	add	x9, x9, #0x0
    4010314c:	14000006 	b	0x40103164
    40103150:	b00000a8 	adrp	x8, 0x40118000
    40103154:	f00000a9 	adrp	x9, 0x4011a000
    40103158:	2a1f03e0 	mov	w0, wzr
    4010315c:	91000108 	add	x8, x8, #0x0
    40103160:	912fa129 	add	x9, x9, #0xbe8
    40103164:	f9000028 	str	x8, [x1]
    40103168:	cb080128 	sub	x8, x9, x8
    4010316c:	52800249 	mov	w9, #0x12                  	// #18
    40103170:	14000030 	b	0x40103230
    40103174:	b00000c8 	adrp	x8, 0x4011c000
    40103178:	9100c108 	add	x8, x8, #0x30
    4010317c:	f9400109 	ldr	x9, [x8]
    40103180:	2a1f03e0 	mov	w0, wzr
    40103184:	f9000029 	str	x9, [x1]
    40103188:	f9400908 	ldr	x8, [x8, #16]
    4010318c:	52800629 	mov	w9, #0x31                  	// #49
    40103190:	14000028 	b	0x40103230
    40103194:	900000c8 	adrp	x8, 0x4011b000
    40103198:	900000c9 	adrp	x9, 0x4011b000
    4010319c:	2a1f03e0 	mov	w0, wzr
    401031a0:	91000108 	add	x8, x8, #0x0
    401031a4:	910d7129 	add	x9, x9, #0x35c
    401031a8:	14000006 	b	0x401031c0
    401031ac:	b00000c8 	adrp	x8, 0x4011c000
    401031b0:	d00001c9 	adrp	x9, 0x4013d000
    401031b4:	2a1f03e0 	mov	w0, wzr
    401031b8:	91000108 	add	x8, x8, #0x0
    401031bc:	91000129 	add	x9, x9, #0x0
    401031c0:	f9000028 	str	x8, [x1]
    401031c4:	cb080128 	sub	x8, x9, x8
    401031c8:	52800649 	mov	w9, #0x32                  	// #50
    401031cc:	14000019 	b	0x40103230
    401031d0:	b00000c8 	adrp	x8, 0x4011c000
    401031d4:	91012108 	add	x8, x8, #0x48
    401031d8:	f9400109 	ldr	x9, [x8]
    401031dc:	2a1f03e0 	mov	w0, wzr
    401031e0:	f9000029 	str	x9, [x1]
    401031e4:	f9400908 	ldr	x8, [x8, #16]
    401031e8:	52800649 	mov	w9, #0x32                  	// #50
    401031ec:	14000011 	b	0x40103230
    401031f0:	b00000c8 	adrp	x8, 0x4011c000
    401031f4:	9101c108 	add	x8, x8, #0x70
    401031f8:	f9400109 	ldr	x9, [x8]
    401031fc:	b4000129 	cbz	x9, 0x40103220
    40103200:	f9400d08 	ldr	x8, [x8, #24]
    40103204:	b40000e8 	cbz	x8, 0x40103220
    40103208:	b00000c9 	adrp	x9, 0x4011c000
    4010320c:	f9403d29 	ldr	x9, [x9, #120]
    40103210:	2a1f03e0 	mov	w0, wzr
    40103214:	f9000029 	str	x9, [x1]
    40103218:	52800629 	mov	w9, #0x31                  	// #49
    4010321c:	14000005 	b	0x40103230
    40103220:	aa1f03e8 	mov	x8, xzr
    40103224:	2a1f03e9 	mov	w9, wzr
    40103228:	12800000 	mov	w0, #0xffffffff            	// #-1
    4010322c:	f900003f 	str	xzr, [x1]
    40103230:	f9000428 	str	x8, [x1, #8]
    40103234:	b9001029 	str	w9, [x1, #16]
    40103238:	a8c17bfd 	ldp	x29, x30, [sp], #16
    4010323c:	d65f03c0 	ret
    40103240:	b00000a1 	adrp	x1, 0x40118000
    40103244:	b00000a2 	adrp	x2, 0x40118000
    40103248:	b00000a4 	adrp	x4, 0x40118000
    4010324c:	f00000a5 	adrp	x5, 0x4011a000
    40103250:	9124c821 	add	x1, x1, #0x932
    40103254:	91393442 	add	x2, x2, #0xe4d
    40103258:	912c6c84 	add	x4, x4, #0xb1b
    4010325c:	9108b0a5 	add	x5, x5, #0x22c
    40103260:	528004e3 	mov	w3, #0x27                  	// #39
    40103264:	2a1f03e0 	mov	w0, wzr
    40103268:	94004428 	bl	0x40114308
    4010326c:	52800060 	mov	w0, #0x3                   	// #3
    40103270:	97ffff76 	bl	0x40103048
    40103274:	2a1f03e0 	mov	w0, wzr
    40103278:	d65f03c0 	ret
    4010327c:	a9bd7bfd 	stp	x29, x30, [sp, #-48]!
    40103280:	f9000bf5 	str	x21, [sp, #16]
    40103284:	a9024ff4 	stp	x20, x19, [sp, #32]
    40103288:	910003fd 	mov	x29, sp
    4010328c:	b4000621 	cbz	x1, 0x40103350
    40103290:	aa0003f3 	mov	x19, x0
    40103294:	f10fec1f 	cmp	x0, #0x3fb
    40103298:	54000069 	b.ls	0x401032a4  // b.plast
    4010329c:	128002a0 	mov	w0, #0xffffffea            	// #-22
    401032a0:	14000026 	b	0x40103338
    401032a4:	aa0203f4 	mov	x20, x2
    401032a8:	aa0103f5 	mov	x21, x1
    401032ac:	97ffff33 	bl	0x40102f78
    401032b0:	b00000c9 	adrp	x9, 0x4011c000
    401032b4:	9112c129 	add	x9, x9, #0x4b0
    401032b8:	8b131d28 	add	x8, x9, x19, lsl #7
    401032bc:	f940010a 	ldr	x10, [x8]
    401032c0:	b400032a 	cbz	x10, 0x40103324
    401032c4:	f8410d0a 	ldr	x10, [x8, #16]!
    401032c8:	b40002ea 	cbz	x10, 0x40103324
    401032cc:	8b131d2a 	add	x10, x9, x19, lsl #7
    401032d0:	aa0a03e8 	mov	x8, x10
    401032d4:	f8420d0b 	ldr	x11, [x8, #32]!
    401032d8:	b400026b 	cbz	x11, 0x40103324
    401032dc:	f8430d48 	ldr	x8, [x10, #48]!
    401032e0:	b4000208 	cbz	x8, 0x40103320
    401032e4:	8b131d2a 	add	x10, x9, x19, lsl #7
    401032e8:	aa0a03e8 	mov	x8, x10
    401032ec:	f8440d0b 	ldr	x11, [x8, #64]!
    401032f0:	b40001ab 	cbz	x11, 0x40103324
    401032f4:	f8450d48 	ldr	x8, [x10, #80]!
    401032f8:	b4000148 	cbz	x8, 0x40103320
    401032fc:	8b131d29 	add	x9, x9, x19, lsl #7
    40103300:	aa0903e8 	mov	x8, x9
    40103304:	f8460d0a 	ldr	x10, [x8, #96]!
    40103308:	b40000ea 	cbz	x10, 0x40103324
    4010330c:	f8470d28 	ldr	x8, [x9, #112]!
    40103310:	b40001c8 	cbz	x8, 0x40103348
    40103314:	97ffff1c 	bl	0x40102f84
    40103318:	12800160 	mov	w0, #0xfffffff4            	// #-12
    4010331c:	14000007 	b	0x40103338
    40103320:	aa0a03e8 	mov	x8, x10
    40103324:	a9005115 	stp	x21, x20, [x8]
    40103328:	97ffff17 	bl	0x40102f84
    4010332c:	2a1303e0 	mov	w0, w19
    40103330:	97ffff3e 	bl	0x40103028
    40103334:	2a1f03e0 	mov	w0, wzr
    40103338:	a9424ff4 	ldp	x20, x19, [sp, #32]
    4010333c:	f9400bf5 	ldr	x21, [sp, #16]
    40103340:	a8c37bfd 	ldp	x29, x30, [sp], #48
    40103344:	d65f03c0 	ret
    40103348:	aa0903e8 	mov	x8, x9
    4010334c:	17fffff6 	b	0x40103324
    40103350:	b00000a1 	adrp	x1, 0x40118000
    40103354:	b00000a2 	adrp	x2, 0x40118000
    40103358:	b00000a4 	adrp	x4, 0x40118000
    4010335c:	b00000a5 	adrp	x5, 0x40118000
    40103360:	9124c821 	add	x1, x1, #0x932
    40103364:	91395842 	add	x2, x2, #0xe56
    40103368:	912c6c84 	add	x4, x4, #0xb1b
    4010336c:	913970a5 	add	x5, x5, #0xe5c
    40103370:	52800803 	mov	w3, #0x40                  	// #64
    40103374:	2a1f03e0 	mov	w0, wzr
    40103378:	940043e4 	bl	0x40114308
    4010337c:	52800060 	mov	w0, #0x3                   	// #3
    40103380:	97ffff32 	bl	0x40103048
    40103384:	a9bd7bfd 	stp	x29, x30, [sp, #-48]!
    40103388:	f9000bf5 	str	x21, [sp, #16]
    4010338c:	a9024ff4 	stp	x20, x19, [sp, #32]
    40103390:	910003fd 	mov	x29, sp
    40103394:	f10fec1f 	cmp	x0, #0x3fb
    40103398:	54001488 	b.hi	0x40103628  // b.pmore
    4010339c:	b00000d4 	adrp	x20, 0x4011c000
    401033a0:	9112c294 	add	x20, x20, #0x4b0
    401033a4:	8b001e95 	add	x21, x20, x0, lsl #7
    401033a8:	f94002a8 	ldr	x8, [x21]
    401033ac:	aa0003f3 	mov	x19, x0
    401033b0:	b40011e8 	cbz	x8, 0x401035ec
    401033b4:	97fff5ba 	bl	0x40100a9c
    401033b8:	2a0003e8 	mov	w8, w0
    401033bc:	eb13011f 	cmp	x8, x19
    401033c0:	540000e0 	b.eq	0x401033dc  // b.none
    401033c4:	b00001c8 	adrp	x8, 0x4013c000
    401033c8:	910ae108 	add	x8, x8, #0x2b8
    401033cc:	085f7d09 	ldxrb	w9, [x8]
    401033d0:	32000129 	orr	w9, w9, #0x1
    401033d4:	080a7d09 	stxrb	w10, w9, [x8]
    401033d8:	35ffffaa 	cbnz	w10, 0x401033cc
    401033dc:	f94002a8 	ldr	x8, [x21]
    401033e0:	8b131e95 	add	x21, x20, x19, lsl #7
    401033e4:	f94006a0 	ldr	x0, [x21, #8]
    401033e8:	d63f0100 	blr	x8
    401033ec:	7100041f 	cmp	w0, #0x1
    401033f0:	54001120 	b.eq	0x40103614  // b.none
    401033f4:	f8410ea8 	ldr	x8, [x21, #16]!
    401033f8:	b4000fa8 	cbz	x8, 0x401035ec
    401033fc:	97fff5a8 	bl	0x40100a9c
    40103400:	2a0003e8 	mov	w8, w0
    40103404:	eb13011f 	cmp	x8, x19
    40103408:	540000e0 	b.eq	0x40103424  // b.none
    4010340c:	b00001c8 	adrp	x8, 0x4013c000
    40103410:	910ae108 	add	x8, x8, #0x2b8
    40103414:	085f7d09 	ldxrb	w9, [x8]
    40103418:	32000129 	orr	w9, w9, #0x1
    4010341c:	080a7d09 	stxrb	w10, w9, [x8]
    40103420:	35ffffaa 	cbnz	w10, 0x40103414
    40103424:	f94002a8 	ldr	x8, [x21]
    40103428:	8b131e95 	add	x21, x20, x19, lsl #7
    4010342c:	f9400ea0 	ldr	x0, [x21, #24]
    40103430:	d63f0100 	blr	x8
    40103434:	7100041f 	cmp	w0, #0x1
    40103438:	54000ee0 	b.eq	0x40103614  // b.none
    4010343c:	f8420ea8 	ldr	x8, [x21, #32]!
    40103440:	b4000d68 	cbz	x8, 0x401035ec
    40103444:	97fff596 	bl	0x40100a9c
    40103448:	2a0003e8 	mov	w8, w0
    4010344c:	eb13011f 	cmp	x8, x19
    40103450:	540000e0 	b.eq	0x4010346c  // b.none
    40103454:	b00001c8 	adrp	x8, 0x4013c000
    40103458:	910ae108 	add	x8, x8, #0x2b8
    4010345c:	085f7d09 	ldxrb	w9, [x8]
    40103460:	32000129 	orr	w9, w9, #0x1
    40103464:	080a7d09 	stxrb	w10, w9, [x8]
    40103468:	35ffffaa 	cbnz	w10, 0x4010345c
    4010346c:	f94002a8 	ldr	x8, [x21]
    40103470:	8b131e95 	add	x21, x20, x19, lsl #7
    40103474:	f94016a0 	ldr	x0, [x21, #40]
    40103478:	d63f0100 	blr	x8
    4010347c:	7100041f 	cmp	w0, #0x1
    40103480:	54000ca0 	b.eq	0x40103614  // b.none
    40103484:	f8430ea8 	ldr	x8, [x21, #48]!
    40103488:	b4000b28 	cbz	x8, 0x401035ec
    4010348c:	97fff584 	bl	0x40100a9c
    40103490:	2a0003e8 	mov	w8, w0
    40103494:	eb13011f 	cmp	x8, x19
    40103498:	540000e0 	b.eq	0x401034b4  // b.none
    4010349c:	b00001c8 	adrp	x8, 0x4013c000
    401034a0:	910ae108 	add	x8, x8, #0x2b8
    401034a4:	085f7d09 	ldxrb	w9, [x8]
    401034a8:	32000129 	orr	w9, w9, #0x1
    401034ac:	080a7d09 	stxrb	w10, w9, [x8]
    401034b0:	35ffffaa 	cbnz	w10, 0x401034a4
    401034b4:	f94002a8 	ldr	x8, [x21]
    401034b8:	8b131e95 	add	x21, x20, x19, lsl #7
    401034bc:	f9401ea0 	ldr	x0, [x21, #56]
    401034c0:	d63f0100 	blr	x8
    401034c4:	7100041f 	cmp	w0, #0x1
    401034c8:	54000a60 	b.eq	0x40103614  // b.none
    401034cc:	f8440ea8 	ldr	x8, [x21, #64]!
    401034d0:	b40008e8 	cbz	x8, 0x401035ec
    401034d4:	97fff572 	bl	0x40100a9c
    401034d8:	2a0003e8 	mov	w8, w0
    401034dc:	eb13011f 	cmp	x8, x19
    401034e0:	540000e0 	b.eq	0x401034fc  // b.none
    401034e4:	b00001c8 	adrp	x8, 0x4013c000
    401034e8:	910ae108 	add	x8, x8, #0x2b8
    401034ec:	085f7d09 	ldxrb	w9, [x8]
    401034f0:	32000129 	orr	w9, w9, #0x1
    401034f4:	080a7d09 	stxrb	w10, w9, [x8]
    401034f8:	35ffffaa 	cbnz	w10, 0x401034ec
    401034fc:	f94002a8 	ldr	x8, [x21]
    40103500:	8b131e95 	add	x21, x20, x19, lsl #7
    40103504:	f94026a0 	ldr	x0, [x21, #72]
    40103508:	d63f0100 	blr	x8
    4010350c:	7100041f 	cmp	w0, #0x1
    40103510:	54000820 	b.eq	0x40103614  // b.none
    40103514:	f8450ea8 	ldr	x8, [x21, #80]!
    40103518:	b40006a8 	cbz	x8, 0x401035ec
    4010351c:	97fff560 	bl	0x40100a9c
    40103520:	2a0003e8 	mov	w8, w0
    40103524:	eb13011f 	cmp	x8, x19
    40103528:	540000e0 	b.eq	0x40103544  // b.none
    4010352c:	b00001c8 	adrp	x8, 0x4013c000
    40103530:	910ae108 	add	x8, x8, #0x2b8
    40103534:	085f7d09 	ldxrb	w9, [x8]
    40103538:	32000129 	orr	w9, w9, #0x1
    4010353c:	080a7d09 	stxrb	w10, w9, [x8]
    40103540:	35ffffaa 	cbnz	w10, 0x40103534
    40103544:	f94002a8 	ldr	x8, [x21]
    40103548:	8b131e95 	add	x21, x20, x19, lsl #7
    4010354c:	f9402ea0 	ldr	x0, [x21, #88]
    40103550:	d63f0100 	blr	x8
    40103554:	7100041f 	cmp	w0, #0x1
    40103558:	540005e0 	b.eq	0x40103614  // b.none
    4010355c:	f8460ea8 	ldr	x8, [x21, #96]!
    40103560:	b4000468 	cbz	x8, 0x401035ec
    40103564:	97fff54e 	bl	0x40100a9c
    40103568:	2a0003e8 	mov	w8, w0
    4010356c:	eb13011f 	cmp	x8, x19
    40103570:	540000e0 	b.eq	0x4010358c  // b.none
    40103574:	b00001c8 	adrp	x8, 0x4013c000
    40103578:	910ae108 	add	x8, x8, #0x2b8
    4010357c:	085f7d09 	ldxrb	w9, [x8]
    40103580:	32000129 	orr	w9, w9, #0x1
    40103584:	080a7d09 	stxrb	w10, w9, [x8]
    40103588:	35ffffaa 	cbnz	w10, 0x4010357c
    4010358c:	f94002a8 	ldr	x8, [x21]
    40103590:	8b131e95 	add	x21, x20, x19, lsl #7
    40103594:	f94036a0 	ldr	x0, [x21, #104]
    40103598:	d63f0100 	blr	x8
    4010359c:	7100041f 	cmp	w0, #0x1
    401035a0:	540003a0 	b.eq	0x40103614  // b.none
    401035a4:	f8470ea8 	ldr	x8, [x21, #112]!
    401035a8:	b4000228 	cbz	x8, 0x401035ec
    401035ac:	97fff53c 	bl	0x40100a9c
    401035b0:	2a0003e8 	mov	w8, w0
    401035b4:	eb13011f 	cmp	x8, x19
    401035b8:	540000e0 	b.eq	0x401035d4  // b.none
    401035bc:	b00001c8 	adrp	x8, 0x4013c000
    401035c0:	910ae108 	add	x8, x8, #0x2b8
    401035c4:	085f7d09 	ldxrb	w9, [x8]
    401035c8:	32000129 	orr	w9, w9, #0x1
    401035cc:	080a7d09 	stxrb	w10, w9, [x8]
    401035d0:	35ffffaa 	cbnz	w10, 0x401035c4
    401035d4:	8b131e89 	add	x9, x20, x19, lsl #7
    401035d8:	f94002a8 	ldr	x8, [x21]
    401035dc:	f9403d20 	ldr	x0, [x9, #120]
    401035e0:	d63f0100 	blr	x8
    401035e4:	7100041f 	cmp	w0, #0x1
    401035e8:	54000160 	b.eq	0x40103614  // b.none
    401035ec:	b00000a1 	adrp	x1, 0x40118000
    401035f0:	b00000a2 	adrp	x2, 0x40118000
    401035f4:	b00000a4 	adrp	x4, 0x40118000
    401035f8:	9124c821 	add	x1, x1, #0x932
    401035fc:	91395842 	add	x2, x2, #0xe56
    40103600:	91398484 	add	x4, x4, #0xe61
    40103604:	52800f63 	mov	w3, #0x7b                  	// #123
    40103608:	2a1f03e0 	mov	w0, wzr
    4010360c:	aa1303e5 	mov	x5, x19
    40103610:	9400433e 	bl	0x40114308
    40103614:	2a1303e0 	mov	w0, w19
    40103618:	a9424ff4 	ldp	x20, x19, [sp, #32]
    4010361c:	f9400bf5 	ldr	x21, [sp, #16]
    40103620:	a8c37bfd 	ldp	x29, x30, [sp], #48
    40103624:	17fffe79 	b	0x40103008
    40103628:	b00000a1 	adrp	x1, 0x40118000
    4010362c:	b00000a2 	adrp	x2, 0x40118000
    40103630:	b00000a4 	adrp	x4, 0x40118000
    40103634:	d00000a5 	adrp	x5, 0x40119000
    40103638:	9124c821 	add	x1, x1, #0x932
    4010363c:	91395842 	add	x2, x2, #0xe56
    40103640:	912c6c84 	add	x4, x4, #0xb1b
    40103644:	912140a5 	add	x5, x5, #0x850
    40103648:	52800be3 	mov	w3, #0x5f                  	// #95
    4010364c:	2a1f03e0 	mov	w0, wzr
    40103650:	9400432e 	bl	0x40114308
    40103654:	52800060 	mov	w0, #0x3                   	// #3
    40103658:	97fffe7c 	bl	0x40103048
    4010365c:	a9bf7bfd 	stp	x29, x30, [sp, #-16]!
    40103660:	910003fd 	mov	x29, sp
    40103664:	97fffe4a 	bl	0x40102f8c
    40103668:	34000080 	cbz	w0, 0x40103678
    4010366c:	2a1f03e0 	mov	w0, wzr
    40103670:	a8c17bfd 	ldp	x29, x30, [sp], #16
    40103674:	d65f03c0 	ret
    40103678:	b00000a1 	adrp	x1, 0x40118000
    4010367c:	b00000a2 	adrp	x2, 0x40118000
    40103680:	b00000a4 	adrp	x4, 0x40118000
    40103684:	b00000a5 	adrp	x5, 0x40118000
    40103688:	9124c821 	add	x1, x1, #0x932
    4010368c:	91395842 	add	x2, x2, #0xe56
    40103690:	912c6c84 	add	x4, x4, #0xb1b
    40103694:	912cc8a5 	add	x5, x5, #0xb32
    40103698:	52801063 	mov	w3, #0x83                  	// #131
    4010369c:	9400431b 	bl	0x40114308
    401036a0:	52800060 	mov	w0, #0x3                   	// #3
    401036a4:	97fffe69 	bl	0x40103048
    401036a8:	d65f03c0 	ret
    401036ac:	aa1f03e0 	mov	x0, xzr
    401036b0:	d65f03c0 	ret
    401036b4:	2a1f03e0 	mov	w0, wzr
    401036b8:	d65f03c0 	ret
    401036bc:	35000080 	cbnz	w0, 0x401036cc
    401036c0:	b00001c0 	adrp	x0, 0x4013c000
    401036c4:	910c0000 	add	x0, x0, #0x300
    401036c8:	d65f03c0 	ret
    401036cc:	a9bf7bfd 	stp	x29, x30, [sp, #-16]!
    401036d0:	910003fd 	mov	x29, sp
    401036d4:	b00000a1 	adrp	x1, 0x40118000
    401036d8:	b00000a2 	adrp	x2, 0x40118000
    401036dc:	b00000a4 	adrp	x4, 0x40118000
    401036e0:	b00000a5 	adrp	x5, 0x40118000
    401036e4:	9124c821 	add	x1, x1, #0x932
    401036e8:	9139d042 	add	x2, x2, #0xe74
    401036ec:	912c6c84 	add	x4, x4, #0xb1b
    401036f0:	9139eca5 	add	x5, x5, #0xe7b
    401036f4:	52800da3 	mov	w3, #0x6d                  	// #109
    401036f8:	2a1f03e0 	mov	w0, wzr
    401036fc:	94004303 	bl	0x40114308
    40103700:	52800060 	mov	w0, #0x3                   	// #3
    40103704:	97fffe51 	bl	0x40103048
    40103708:	b00001c0 	adrp	x0, 0x4013c000
    4010370c:	910c0000 	add	x0, x0, #0x300
    40103710:	d65f03c0 	ret
    40103714:	a9be7bfd 	stp	x29, x30, [sp, #-32]!
    40103718:	a9014ff4 	stp	x20, x19, [sp, #16]
    4010371c:	910003fd 	mov	x29, sp
    40103720:	b00001d4 	adrp	x20, 0x4013c000
    40103724:	910c0294 	add	x20, x20, #0x300
    40103728:	aa0003f3 	mov	x19, x0
    4010372c:	eb14001f 	cmp	x0, x20
    40103730:	540001e0 	b.eq	0x4010376c  // b.none
    40103734:	b9400268 	ldr	w8, [x19]
    40103738:	7100051f 	cmp	w8, #0x1
    4010373c:	54000220 	b.eq	0x40103780  // b.none
    40103740:	b00000a1 	adrp	x1, 0x40118000
    40103744:	b00000a2 	adrp	x2, 0x40118000
    40103748:	b00000a4 	adrp	x4, 0x40118000
    4010374c:	b00000a5 	adrp	x5, 0x40118000
    40103750:	9124c821 	add	x1, x1, #0x932
    40103754:	9139d042 	add	x2, x2, #0xe74
    40103758:	912c6c84 	add	x4, x4, #0xb1b
    4010375c:	913a14a5 	add	x5, x5, #0xe85
    40103760:	52801163 	mov	w3, #0x8b                  	// #139
    40103764:	2a1f03e0 	mov	w0, wzr
    40103768:	1400001c 	b	0x401037d8
    4010376c:	b900069f 	str	wzr, [x20, #4]
    40103770:	97fff59b 	bl	0x40100ddc
    40103774:	52800028 	mov	w8, #0x1                   	// #1
    40103778:	f9000680 	str	x0, [x20, #8]
    4010377c:	b9000288 	str	w8, [x20]
    40103780:	aa1303e0 	mov	x0, x19
    40103784:	97ffffcc 	bl	0x401036b4
    40103788:	2a0003f4 	mov	w20, w0
    4010378c:	350000c0 	cbnz	w0, 0x401037a4
    40103790:	97fffdff 	bl	0x40102f8c
    40103794:	34000100 	cbz	w0, 0x401037b4
    40103798:	d5033e9f 	dsb	st
    4010379c:	52800068 	mov	w8, #0x3                   	// #3
    401037a0:	b9000268 	str	w8, [x19]
    401037a4:	2a1403e0 	mov	w0, w20
    401037a8:	a9414ff4 	ldp	x20, x19, [sp, #16]
    401037ac:	a8c27bfd 	ldp	x29, x30, [sp], #32
    401037b0:	d65f03c0 	ret
    401037b4:	b00000a1 	adrp	x1, 0x40118000
    401037b8:	b00000a2 	adrp	x2, 0x40118000
    401037bc:	b00000a4 	adrp	x4, 0x40118000
    401037c0:	b00000a5 	adrp	x5, 0x40118000
    401037c4:	9124c821 	add	x1, x1, #0x932
    401037c8:	9139d042 	add	x2, x2, #0xe74
    401037cc:	912c6c84 	add	x4, x4, #0xb1b
    401037d0:	912cc8a5 	add	x5, x5, #0xb32
    401037d4:	52801263 	mov	w3, #0x93                  	// #147
    401037d8:	940042cc 	bl	0x40114308
    401037dc:	52800060 	mov	w0, #0x3                   	// #3
    401037e0:	97fffe1a 	bl	0x40103048
    401037e4:	a9bf7bfd 	stp	x29, x30, [sp, #-16]!
    401037e8:	910003fd 	mov	x29, sp
    401037ec:	b00001c0 	adrp	x0, 0x4013c000
    401037f0:	910c0000 	add	x0, x0, #0x300
    401037f4:	94000001 	bl	0x401037f8
    401037f8:	a9be7bfd 	stp	x29, x30, [sp, #-32]!
    401037fc:	f9000bf3 	str	x19, [sp, #16]
    40103800:	910003fd 	mov	x29, sp
    40103804:	aa0003f3 	mov	x19, x0
    40103808:	97fffdd3 	bl	0x40102f54
    4010380c:	12800008 	mov	w8, #0xffffffff            	// #-1
    40103810:	b9000268 	str	w8, [x19]
    40103814:	b900127f 	str	wzr, [x19, #16]
    40103818:	97fff2a9 	bl	0x401002bc
    4010381c:	17ffffff 	b	0x40103818
    40103820:	a9be7bfd 	stp	x29, x30, [sp, #-32]!
    40103824:	a9014ff4 	stp	x20, x19, [sp, #16]
    40103828:	910003fd 	mov	x29, sp
    4010382c:	aa0003f3 	mov	x19, x0
    40103830:	97fffdd2 	bl	0x40102f78
    40103834:	aa0003f4 	mov	x20, x0
    40103838:	aa1303e0 	mov	x0, x19
    4010383c:	97fff426 	bl	0x401008d4
    40103840:	aa1403e0 	mov	x0, x20
    40103844:	a9414ff4 	ldp	x20, x19, [sp, #16]
    40103848:	a8c27bfd 	ldp	x29, x30, [sp], #32
    4010384c:	17fffdce 	b	0x40102f84
    40103850:	17fff563 	b	0x40100ddc
    40103854:	a9bf7bfd 	stp	x29, x30, [sp, #-16]!
    40103858:	910003fd 	mov	x29, sp
    4010385c:	b4000180 	cbz	x0, 0x4010388c
    40103860:	b00001c8 	adrp	x8, 0x4013c000
    40103864:	f9415909 	ldr	x9, [x8, #688]
    40103868:	b4000089 	cbz	x9, 0x40103878
    4010386c:	12800000 	mov	w0, #0xffffffff            	// #-1
    40103870:	a8c17bfd 	ldp	x29, x30, [sp], #16
    40103874:	d65f03c0 	ret
    40103878:	f9015900 	str	x0, [x8, #688]
    4010387c:	97fffe7e 	bl	0x40103274
    40103880:	2a1f03e0 	mov	w0, wzr
    40103884:	a8c17bfd 	ldp	x29, x30, [sp], #16
    40103888:	d65f03c0 	ret
    4010388c:	b00000a1 	adrp	x1, 0x40118000
    40103890:	b00000a2 	adrp	x2, 0x40118000
    40103894:	b00000a4 	adrp	x4, 0x40118000
    40103898:	b00000a5 	adrp	x5, 0x40118000
    4010389c:	9124c821 	add	x1, x1, #0x932
    401038a0:	91393442 	add	x2, x2, #0xe4d
    401038a4:	912c6c84 	add	x4, x4, #0xb1b
    401038a8:	913c58a5 	add	x5, x5, #0xf16
    401038ac:	52800543 	mov	w3, #0x2a                  	// #42
    401038b0:	94004296 	bl	0x40114308
    401038b4:	52800060 	mov	w0, #0x3                   	// #3
    401038b8:	97fffde4 	bl	0x40103048
    401038bc:	b00001c8 	adrp	x8, 0x4013c000
    401038c0:	f9415900 	ldr	x0, [x8, #688]
    401038c4:	d65f03c0 	ret
    401038c8:	900000c9 	adrp	x9, 0x4011b000
    401038cc:	91012129 	add	x9, x9, #0x48
    401038d0:	f9400128 	ldr	x8, [x9]
    401038d4:	eb09011f 	cmp	x8, x9
    401038d8:	540008e0 	b.eq	0x401039f4  // b.none
    401038dc:	12bfe00a 	mov	w10, #0xffffff              	// #16777215
    401038e0:	529fffeb 	mov	w11, #0xffff                	// #65535
    401038e4:	f940090c 	ldr	x12, [x8, #16]
    401038e8:	9100198c 	add	x12, x12, #0x6
    401038ec:	14000002 	b	0x401038f4
    401038f0:	9100318c 	add	x12, x12, #0xc
    401038f4:	b85fa18d 	ldur	w13, [x12, #-6]
    401038f8:	6b0a01bf 	cmp	w13, w10
    401038fc:	540001c1 	b.ne	0x40103934  // b.any
    40103900:	78dfe18d 	ldursh	w13, [x12, #-2]
    40103904:	310005bf 	cmn	w13, #0x1
    40103908:	54000241 	b.ne	0x40103950  // b.any
    4010390c:	79c0018d 	ldrsh	w13, [x12]
    40103910:	310005bf 	cmn	w13, #0x1
    40103914:	540001e1 	b.ne	0x40103950  // b.any
    40103918:	79c0058d 	ldrsh	w13, [x12, #2]
    4010391c:	310005bf 	cmn	w13, #0x1
    40103920:	54000181 	b.ne	0x40103950  // b.any
    40103924:	79c0098d 	ldrsh	w13, [x12, #4]
    40103928:	310005bf 	cmn	w13, #0x1
    4010392c:	54000121 	b.ne	0x40103950  // b.any
    40103930:	14000029 	b	0x401039d4
    40103934:	b940000e 	ldr	w14, [x0]
    40103938:	6b0a01df 	cmp	w14, w10
    4010393c:	540000a0 	b.eq	0x40103950  // b.none
    40103940:	6b0a01bf 	cmp	w13, w10
    40103944:	54000060 	b.eq	0x40103950  // b.none
    40103948:	6b0d01df 	cmp	w14, w13
    4010394c:	54fffd21 	b.ne	0x401038f0  // b.any
    40103950:	7940080d 	ldrh	w13, [x0, #4]
    40103954:	6b0b01bf 	cmp	w13, w11
    40103958:	540000c0 	b.eq	0x40103970  // b.none
    4010395c:	785fe18e 	ldurh	w14, [x12, #-2]
    40103960:	6b0b01df 	cmp	w14, w11
    40103964:	54000060 	b.eq	0x40103970  // b.none
    40103968:	6b0e01bf 	cmp	w13, w14
    4010396c:	54fffc21 	b.ne	0x401038f0  // b.any
    40103970:	79400c0d 	ldrh	w13, [x0, #6]
    40103974:	6b0b01bf 	cmp	w13, w11
    40103978:	540000c0 	b.eq	0x40103990  // b.none
    4010397c:	7940018e 	ldrh	w14, [x12]
    40103980:	6b0b01df 	cmp	w14, w11
    40103984:	54000060 	b.eq	0x40103990  // b.none
    40103988:	6b0e01bf 	cmp	w13, w14
    4010398c:	54fffb21 	b.ne	0x401038f0  // b.any
    40103990:	7940100d 	ldrh	w13, [x0, #8]
    40103994:	6b0b01bf 	cmp	w13, w11
    40103998:	540000c0 	b.eq	0x401039b0  // b.none
    4010399c:	7940058e 	ldrh	w14, [x12, #2]
    401039a0:	6b0b01df 	cmp	w14, w11
    401039a4:	54000060 	b.eq	0x401039b0  // b.none
    401039a8:	6b0e01bf 	cmp	w13, w14
    401039ac:	54fffa21 	b.ne	0x401038f0  // b.any
    401039b0:	7940140d 	ldrh	w13, [x0, #10]
    401039b4:	6b0b01bf 	cmp	w13, w11
    401039b8:	540001a0 	b.eq	0x401039ec  // b.none
    401039bc:	7940098e 	ldrh	w14, [x12, #4]
    401039c0:	6b0b01df 	cmp	w14, w11
    401039c4:	54000140 	b.eq	0x401039ec  // b.none
    401039c8:	6b0e01bf 	cmp	w13, w14
    401039cc:	54fff921 	b.ne	0x401038f0  // b.any
    401039d0:	14000007 	b	0x401039ec
    401039d4:	f9400108 	ldr	x8, [x8]
    401039d8:	aa1f03e1 	mov	x1, xzr
    401039dc:	eb09011f 	cmp	x8, x9
    401039e0:	54fff821 	b.ne	0x401038e4  // b.any
    401039e4:	aa0103e0 	mov	x0, x1
    401039e8:	d65f03c0 	ret
    401039ec:	aa0803e0 	mov	x0, x8
    401039f0:	d65f03c0 	ret
    401039f4:	aa1f03e0 	mov	x0, xzr
    401039f8:	d65f03c0 	ret
    401039fc:	a9bf7bfd 	stp	x29, x30, [sp, #-16]!
    40103a00:	910003fd 	mov	x29, sp
    40103a04:	b4000120 	cbz	x0, 0x40103a28
    40103a08:	900000c8 	adrp	x8, 0x4011b000
    40103a0c:	91012108 	add	x8, x8, #0x48
    40103a10:	f9400509 	ldr	x9, [x8, #8]
    40103a14:	f9000500 	str	x0, [x8, #8]
    40103a18:	a9002408 	stp	x8, x9, [x0]
    40103a1c:	f9000120 	str	x0, [x9]
    40103a20:	a8c17bfd 	ldp	x29, x30, [sp], #16
    40103a24:	d65f03c0 	ret
    40103a28:	b00000a1 	adrp	x1, 0x40118000
    40103a2c:	b00000a2 	adrp	x2, 0x40118000
    40103a30:	b00000a4 	adrp	x4, 0x40118000
    40103a34:	b00000a5 	adrp	x5, 0x40118000
    40103a38:	913a6c21 	add	x1, x1, #0xe9b
    40103a3c:	913a9442 	add	x2, x2, #0xea5
    40103a40:	912c6c84 	add	x4, x4, #0xb1b
    40103a44:	913abca5 	add	x5, x5, #0xeaf
    40103a48:	528012e3 	mov	w3, #0x97                  	// #151
    40103a4c:	9400422f 	bl	0x40114308
    40103a50:	52800060 	mov	w0, #0x3                   	// #3
    40103a54:	97fffd7d 	bl	0x40103048
    40103a58:	900000c0 	adrp	x0, 0x4011b000
    40103a5c:	91008000 	add	x0, x0, #0x20
    40103a60:	1400408d 	b	0x40113c94
    40103a64:	a9bb7bfd 	stp	x29, x30, [sp, #-80]!
    40103a68:	a90167fa 	stp	x26, x25, [sp, #16]
    40103a6c:	a9025ff8 	stp	x24, x23, [sp, #32]
    40103a70:	a90357f6 	stp	x22, x21, [sp, #48]
    40103a74:	a9044ff4 	stp	x20, x19, [sp, #64]
    40103a78:	910003fd 	mov	x29, sp
    40103a7c:	b4000620 	cbz	x0, 0x40103b40
    40103a80:	900000c8 	adrp	x8, 0x4011b000
    40103a84:	f9002100 	str	x0, [x8, #64]
    40103a88:	900000c8 	adrp	x8, 0x4011b000
    40103a8c:	91010108 	add	x8, x8, #0x40
    40103a90:	f8408d18 	ldr	x24, [x8, #8]!
    40103a94:	aa0003f3 	mov	x19, x0
    40103a98:	eb08031f 	cmp	x24, x8
    40103a9c:	54000440 	b.eq	0x40103b24  // b.none
    40103aa0:	900000d9 	adrp	x25, 0x4011b000
    40103aa4:	b00000b4 	adrp	x20, 0x40118000
    40103aa8:	b00000b5 	adrp	x21, 0x40118000
    40103aac:	b00000b6 	adrp	x22, 0x40118000
    40103ab0:	91012339 	add	x25, x25, #0x48
    40103ab4:	913a6e94 	add	x20, x20, #0xe9b
    40103ab8:	913a96b5 	add	x21, x21, #0xea5
    40103abc:	913b0ed6 	add	x22, x22, #0xec3
    40103ac0:	aa1803fa 	mov	x26, x24
    40103ac4:	14000004 	b	0x40103ad4
    40103ac8:	eb19035f 	cmp	x26, x25
    40103acc:	aa1a03f8 	mov	x24, x26
    40103ad0:	540002a0 	b.eq	0x40103b24  // b.none
    40103ad4:	aa1a03f7 	mov	x23, x26
    40103ad8:	f9400f48 	ldr	x8, [x26, #24]
    40103adc:	f940035a 	ldr	x26, [x26]
    40103ae0:	b4ffff48 	cbz	x8, 0x40103ac8
    40103ae4:	aa1303e0 	mov	x0, x19
    40103ae8:	d63f0100 	blr	x8
    40103aec:	34fffee0 	cbz	w0, 0x40103ac8
    40103af0:	2a0003e6 	mov	w6, w0
    40103af4:	52800020 	mov	w0, #0x1                   	// #1
    40103af8:	528011a3 	mov	w3, #0x8d                  	// #141
    40103afc:	aa1403e1 	mov	x1, x20
    40103b00:	aa1503e2 	mov	x2, x21
    40103b04:	aa1603e4 	mov	x4, x22
    40103b08:	aa1703e5 	mov	x5, x23
    40103b0c:	940041ff 	bl	0x40114308
    40103b10:	a94022e9 	ldp	x9, x8, [x23]
    40103b14:	f9000528 	str	x8, [x9, #8]
    40103b18:	f9000109 	str	x9, [x8]
    40103b1c:	a90062f8 	stp	x24, x24, [x23]
    40103b20:	17ffffea 	b	0x40103ac8
    40103b24:	a9444ff4 	ldp	x20, x19, [sp, #64]
    40103b28:	a94357f6 	ldp	x22, x21, [sp, #48]
    40103b2c:	a9425ff8 	ldp	x24, x23, [sp, #32]
    40103b30:	a94167fa 	ldp	x26, x25, [sp, #16]
    40103b34:	2a1f03e0 	mov	w0, wzr
    40103b38:	a8c57bfd 	ldp	x29, x30, [sp], #80
    40103b3c:	d65f03c0 	ret
    40103b40:	b00000a1 	adrp	x1, 0x40118000
    40103b44:	b00000a2 	adrp	x2, 0x40118000
    40103b48:	b00000a4 	adrp	x4, 0x40118000
    40103b4c:	b00000a5 	adrp	x5, 0x40118000
    40103b50:	913a6c21 	add	x1, x1, #0xe9b
    40103b54:	913a9442 	add	x2, x2, #0xea5
    40103b58:	912c6c84 	add	x4, x4, #0xb1b
    40103b5c:	913c58a5 	add	x5, x5, #0xf16
    40103b60:	52801063 	mov	w3, #0x83                  	// #131
    40103b64:	940041e9 	bl	0x40114308
    40103b68:	52800060 	mov	w0, #0x3                   	// #3
    40103b6c:	97fffd37 	bl	0x40103048
    40103b70:	900000c8 	adrp	x8, 0x4011b000
    40103b74:	f9402100 	ldr	x0, [x8, #64]
    40103b78:	14000001 	b	0x40103b7c
    40103b7c:	d10443ff 	sub	sp, sp, #0x110
    40103b80:	a90b7bfd 	stp	x29, x30, [sp, #176]
    40103b84:	a90c6ffc 	stp	x28, x27, [sp, #192]
    40103b88:	a90d67fa 	stp	x26, x25, [sp, #208]
    40103b8c:	a90e5ff8 	stp	x24, x23, [sp, #224]
    40103b90:	a90f57f6 	stp	x22, x21, [sp, #240]
    40103b94:	a9104ff4 	stp	x20, x19, [sp, #256]
    40103b98:	9102c3fd 	add	x29, sp, #0xb0
    40103b9c:	d10083a8 	sub	x8, x29, #0x20
    40103ba0:	2a1f03f4 	mov	w20, wzr
    40103ba4:	b27e0118 	orr	x24, x8, #0x4
    40103ba8:	b27f0516 	orr	x22, x8, #0x6
    40103bac:	91002113 	add	x19, x8, #0x8
    40103bb0:	91002908 	add	x8, x8, #0xa
    40103bb4:	f9000be0 	str	x0, [sp, #16]
    40103bb8:	b81dc3bf 	stur	wzr, [x29, #-36]
    40103bbc:	f90017e8 	str	x8, [sp, #40]
    40103bc0:	f90003f3 	str	x19, [sp]
    40103bc4:	14000004 	b	0x40103bd4
    40103bc8:	11000694 	add	w20, w20, #0x1
    40103bcc:	7104029f 	cmp	w20, #0x100
    40103bd0:	54001740 	b.eq	0x40103eb8  // b.none
    40103bd4:	53165688 	lsl	w8, w20, #10
    40103bd8:	2a1f03f9 	mov	w25, wzr
    40103bdc:	2a1f03fa 	mov	w26, wzr
    40103be0:	2a1f03fb 	mov	w27, wzr
    40103be4:	b9001fe8 	str	w8, [sp, #28]
    40103be8:	53103e88 	lsl	w8, w20, #16
    40103bec:	b9000fe8 	str	w8, [sp, #12]
    40103bf0:	14000012 	b	0x40103c38
    40103bf4:	52800082 	mov	w2, #0x4                   	// #4
    40103bf8:	52800043 	mov	w3, #0x2                   	// #2
    40103bfc:	52808004 	mov	w4, #0x400                 	// #1024
    40103c00:	2a1403e0 	mov	w0, w20
    40103c04:	2a1f03e1 	mov	w1, wzr
    40103c08:	94000109 	bl	0x4010402c
    40103c0c:	52800082 	mov	w2, #0x4                   	// #4
    40103c10:	52800043 	mov	w3, #0x2                   	// #2
    40103c14:	52800024 	mov	w4, #0x1                   	// #1
    40103c18:	2a1403e0 	mov	w0, w20
    40103c1c:	2a1f03e1 	mov	w1, wzr
    40103c20:	94000103 	bl	0x4010402c
    40103c24:	1100077b 	add	w27, w27, #0x1
    40103c28:	1120035a 	add	w26, w26, #0x800
    40103c2c:	7100837f 	cmp	w27, #0x20
    40103c30:	11008339 	add	w25, w25, #0x20
    40103c34:	54fffca0 	b.eq	0x40103bc8  // b.none
    40103c38:	531d737c 	lsl	w28, w27, #3
    40103c3c:	52800043 	mov	w3, #0x2                   	// #2
    40103c40:	2a1403e0 	mov	w0, w20
    40103c44:	2a1c03e1 	mov	w1, w28
    40103c48:	2a1f03e2 	mov	w2, wzr
    40103c4c:	aa1803e4 	mov	x4, x24
    40103c50:	b81f03bf 	stur	wzr, [x29, #-16]
    40103c54:	381f43b4 	sturb	w20, [x29, #-12]
    40103c58:	381f53bb 	sturb	w27, [x29, #-11]
    40103c5c:	381f63bf 	sturb	wzr, [x29, #-10]
    40103c60:	940000b6 	bl	0x40103f38
    40103c64:	78de43a8 	ldursh	w8, [x29, #-28]
    40103c68:	3100051f 	cmn	w8, #0x1
    40103c6c:	54fffdc0 	b.eq	0x40103c24  // b.none
    40103c70:	d10083a4 	sub	x4, x29, #0x20
    40103c74:	52800102 	mov	w2, #0x8                   	// #8
    40103c78:	52800083 	mov	w3, #0x4                   	// #4
    40103c7c:	2a1403e0 	mov	w0, w20
    40103c80:	2a1c03e1 	mov	w1, w28
    40103c84:	940000ad 	bl	0x40103f38
    40103c88:	52800043 	mov	w3, #0x2                   	// #2
    40103c8c:	2a1403e0 	mov	w0, w20
    40103c90:	2a1c03e1 	mov	w1, w28
    40103c94:	2a1f03e2 	mov	w2, wzr
    40103c98:	aa1803e4 	mov	x4, x24
    40103c9c:	940000a7 	bl	0x40103f38
    40103ca0:	52800042 	mov	w2, #0x2                   	// #2
    40103ca4:	52800043 	mov	w3, #0x2                   	// #2
    40103ca8:	2a1403e0 	mov	w0, w20
    40103cac:	2a1c03e1 	mov	w1, w28
    40103cb0:	aa1603e4 	mov	x4, x22
    40103cb4:	940000a1 	bl	0x40103f38
    40103cb8:	52800582 	mov	w2, #0x2c                  	// #44
    40103cbc:	52800043 	mov	w3, #0x2                   	// #2
    40103cc0:	2a1403e0 	mov	w0, w20
    40103cc4:	2a1c03e1 	mov	w1, w28
    40103cc8:	aa1303e4 	mov	x4, x19
    40103ccc:	9400009b 	bl	0x40103f38
    40103cd0:	f94017e4 	ldr	x4, [sp, #40]
    40103cd4:	528005c2 	mov	w2, #0x2e                  	// #46
    40103cd8:	52800043 	mov	w3, #0x2                   	// #2
    40103cdc:	2a1403e0 	mov	w0, w20
    40103ce0:	2a1c03e1 	mov	w1, w28
    40103ce4:	94000095 	bl	0x40103f38
    40103ce8:	2a1b0288 	orr	w8, w20, w27
    40103cec:	34fff848 	cbz	w8, 0x40103bf4
    40103cf0:	900000c8 	adrp	x8, 0x4011b000
    40103cf4:	f9404908 	ldr	x8, [x8, #144]
    40103cf8:	52800082 	mov	w2, #0x4                   	// #4
    40103cfc:	52800043 	mov	w3, #0x2                   	// #2
    40103d00:	52808004 	mov	w4, #0x400                 	// #1024
    40103d04:	f90013e8 	str	x8, [sp, #32]
    40103d08:	b9401fe8 	ldr	w8, [sp, #28]
    40103d0c:	2a1403e0 	mov	w0, w20
    40103d10:	2a1c03e1 	mov	w1, w28
    40103d14:	2a080337 	orr	w23, w25, w8
    40103d18:	940000c5 	bl	0x4010402c
    40103d1c:	52800202 	mov	w2, #0x10                  	// #16
    40103d20:	52800083 	mov	w3, #0x4                   	// #4
    40103d24:	2a1403e0 	mov	w0, w20
    40103d28:	2a1c03e1 	mov	w1, w28
    40103d2c:	2a1703e4 	mov	w4, w23
    40103d30:	940000bf 	bl	0x4010402c
    40103d34:	52800082 	mov	w2, #0x4                   	// #4
    40103d38:	52800043 	mov	w3, #0x2                   	// #2
    40103d3c:	528000a4 	mov	w4, #0x5                   	// #5
    40103d40:	2a1403e0 	mov	w0, w20
    40103d44:	2a1c03e1 	mov	w1, w28
    40103d48:	940000b9 	bl	0x4010402c
    40103d4c:	d10083a0 	sub	x0, x29, #0x20
    40103d50:	97fffede 	bl	0x401038c8
    40103d54:	b4fff680 	cbz	x0, 0x40103c24
    40103d58:	aa0003f5 	mov	x21, x0
    40103d5c:	d10093a4 	sub	x4, x29, #0x24
    40103d60:	528007a2 	mov	w2, #0x3d                  	// #61
    40103d64:	52800023 	mov	w3, #0x1                   	// #1
    40103d68:	2a1403e0 	mov	w0, w20
    40103d6c:	2a1c03e1 	mov	w1, w28
    40103d70:	aa1803f3 	mov	x19, x24
    40103d74:	aa1603f8 	mov	x24, x22
    40103d78:	94000070 	bl	0x40103f38
    40103d7c:	b9400fe9 	ldr	w9, [sp, #12]
    40103d80:	b85dc3a8 	ldur	w8, [x29, #-36]
    40103d84:	9100d3e0 	add	x0, sp, #0x34
    40103d88:	910103e1 	add	x1, sp, #0x40
    40103d8c:	2a090349 	orr	w9, w26, w9
    40103d90:	5ac00929 	rev	w9, w9
    40103d94:	b90037e9 	str	w9, [sp, #52]
    40103d98:	52800029 	mov	w9, #0x1                   	// #1
    40103d9c:	2908a3e9 	stp	w9, w8, [sp, #68]
    40103da0:	f80383ff 	stur	xzr, [sp, #56]
    40103da4:	94000114 	bl	0x401041f4
    40103da8:	b9404fe1 	ldr	w1, [sp, #76]
    40103dac:	2a1f03e0 	mov	w0, wzr
    40103db0:	94000cc3 	bl	0x401070bc
    40103db4:	f94012a8 	ldr	x8, [x21, #32]
    40103db8:	b4000928 	cbz	x8, 0x40103edc
    40103dbc:	2a0003f6 	mov	w22, w0
    40103dc0:	f9400be0 	ldr	x0, [sp, #16]
    40103dc4:	b4000a20 	cbz	x0, 0x40103f08
    40103dc8:	f9400408 	ldr	x8, [x0, #8]
    40103dcc:	52800021 	mov	w1, #0x1                   	// #1
    40103dd0:	52800902 	mov	w2, #0x48                  	// #72
    40103dd4:	d63f0100 	blr	x8
    40103dd8:	b4000500 	cbz	x0, 0x40103e78
    40103ddc:	f94013e8 	ldr	x8, [sp, #32]
    40103de0:	aa0003fc 	mov	x28, x0
    40103de4:	91004000 	add	x0, x0, #0x10
    40103de8:	d10083a1 	sub	x1, x29, #0x20
    40103dec:	52800182 	mov	w2, #0xc                   	// #12
    40103df0:	8b374117 	add	x23, x8, w23, uxtw
    40103df4:	94002c52 	bl	0x4010ef3c
    40103df8:	91007380 	add	x0, x28, #0x1c
    40103dfc:	d10043a1 	sub	x1, x29, #0x10
    40103e00:	52800102 	mov	w2, #0x8                   	// #8
    40103e04:	94002c4e 	bl	0x4010ef3c
    40103e08:	93407ec8 	sxtw	x8, w22
    40103e0c:	f9001795 	str	x21, [x28, #40]
    40103e10:	a903a397 	stp	x23, x8, [x28, #56]
    40103e14:	f94012a8 	ldr	x8, [x21, #32]
    40103e18:	aa1803f6 	mov	x22, x24
    40103e1c:	aa1303f8 	mov	x24, x19
    40103e20:	f94003f3 	ldr	x19, [sp]
    40103e24:	b4fff008 	cbz	x8, 0x40103c24
    40103e28:	aa1c03e0 	mov	x0, x28
    40103e2c:	d63f0100 	blr	x8
    40103e30:	36ffefa0 	tbz	w0, #31, 0x40103c24
    40103e34:	385f43a5 	ldurb	w5, [x29, #-12]
    40103e38:	385f53a6 	ldurb	w6, [x29, #-11]
    40103e3c:	385f63a7 	ldurb	w7, [x29, #-10]
    40103e40:	b00000a1 	adrp	x1, 0x40118000
    40103e44:	b00000a2 	adrp	x2, 0x40118000
    40103e48:	b00000a4 	adrp	x4, 0x40118000
    40103e4c:	52800020 	mov	w0, #0x1                   	// #1
    40103e50:	52800ce3 	mov	w3, #0x67                  	// #103
    40103e54:	913a6c21 	add	x1, x1, #0xe9b
    40103e58:	913b9c42 	add	x2, x2, #0xee7
    40103e5c:	913d8884 	add	x4, x4, #0xf62
    40103e60:	9400412a 	bl	0x40114308
    40103e64:	f9400be0 	ldr	x0, [sp, #16]
    40103e68:	aa1c03e1 	mov	x1, x28
    40103e6c:	f9401408 	ldr	x8, [x0, #40]
    40103e70:	d63f0100 	blr	x8
    40103e74:	17ffff6c 	b	0x40103c24
    40103e78:	385f43a5 	ldurb	w5, [x29, #-12]
    40103e7c:	385f53a6 	ldurb	w6, [x29, #-11]
    40103e80:	385f63a7 	ldurb	w7, [x29, #-10]
    40103e84:	b00000a1 	adrp	x1, 0x40118000
    40103e88:	b00000a2 	adrp	x2, 0x40118000
    40103e8c:	b00000a4 	adrp	x4, 0x40118000
    40103e90:	52800020 	mov	w0, #0x1                   	// #1
    40103e94:	52800aa3 	mov	w3, #0x55                  	// #85
    40103e98:	913a6c21 	add	x1, x1, #0xe9b
    40103e9c:	913b9c42 	add	x2, x2, #0xee7
    40103ea0:	913ca084 	add	x4, x4, #0xf28
    40103ea4:	94004119 	bl	0x40114308
    40103ea8:	aa1803f6 	mov	x22, x24
    40103eac:	aa1303f8 	mov	x24, x19
    40103eb0:	f94003f3 	ldr	x19, [sp]
    40103eb4:	17ffff5c 	b	0x40103c24
    40103eb8:	a9504ff4 	ldp	x20, x19, [sp, #256]
    40103ebc:	a94f57f6 	ldp	x22, x21, [sp, #240]
    40103ec0:	a94e5ff8 	ldp	x24, x23, [sp, #224]
    40103ec4:	a94d67fa 	ldp	x26, x25, [sp, #208]
    40103ec8:	a94c6ffc 	ldp	x28, x27, [sp, #192]
    40103ecc:	a94b7bfd 	ldp	x29, x30, [sp, #176]
    40103ed0:	2a1f03e0 	mov	w0, wzr
    40103ed4:	910443ff 	add	sp, sp, #0x110
    40103ed8:	d65f03c0 	ret
    40103edc:	b00000a1 	adrp	x1, 0x40118000
    40103ee0:	b00000a2 	adrp	x2, 0x40118000
    40103ee4:	b00000a4 	adrp	x4, 0x40118000
    40103ee8:	b00000a5 	adrp	x5, 0x40118000
    40103eec:	913a6c21 	add	x1, x1, #0xe9b
    40103ef0:	913b9c42 	add	x2, x2, #0xee7
    40103ef4:	912c6c84 	add	x4, x4, #0xb1b
    40103ef8:	913bdca5 	add	x5, x5, #0xef7
    40103efc:	52800963 	mov	w3, #0x4b                  	// #75
    40103f00:	2a1f03e0 	mov	w0, wzr
    40103f04:	1400000a 	b	0x40103f2c
    40103f08:	b00000a1 	adrp	x1, 0x40118000
    40103f0c:	b00000a2 	adrp	x2, 0x40118000
    40103f10:	b00000a4 	adrp	x4, 0x40118000
    40103f14:	b00000a5 	adrp	x5, 0x40118000
    40103f18:	913a6c21 	add	x1, x1, #0xe9b
    40103f1c:	913b9c42 	add	x2, x2, #0xee7
    40103f20:	912c6c84 	add	x4, x4, #0xb1b
    40103f24:	913c50a5 	add	x5, x5, #0xf14
    40103f28:	528009c3 	mov	w3, #0x4e                  	// #78
    40103f2c:	940040f7 	bl	0x40114308
    40103f30:	52800060 	mov	w0, #0x3                   	// #3
    40103f34:	97fffc45 	bl	0x40103048
    40103f38:	a9bf7bfd 	stp	x29, x30, [sp, #-16]!
    40103f3c:	910003fd 	mov	x29, sp
    40103f40:	900000c8 	adrp	x8, 0x4011b000
    40103f44:	d5033d9f 	dsb	ld
    40103f48:	91020108 	add	x8, x8, #0x80
    40103f4c:	39400109 	ldrb	w9, [x8]
    40103f50:	6b20013f 	cmp	w9, w0, uxtb
    40103f54:	54000388 	b.hi	0x40103fc4  // b.pmore
    40103f58:	39400509 	ldrb	w9, [x8, #1]
    40103f5c:	6b20013f 	cmp	w9, w0, uxtb
    40103f60:	54000323 	b.cc	0x40103fc4  // b.lo, b.ul, b.last
    40103f64:	f9400508 	ldr	x8, [x8, #8]
    40103f68:	900000ca 	adrp	x10, 0x4011b000
    40103f6c:	f940394a 	ldr	x10, [x10, #112]
    40103f70:	12001c09 	and	w9, w0, #0xff
    40103f74:	b9400108 	ldr	w8, [x8]
    40103f78:	12001c2b 	and	w11, w1, #0xff
    40103f7c:	1103e10c 	add	w12, w8, #0xf8
    40103f80:	1ac82128 	lsl	w8, w9, w8
    40103f84:	8b28c148 	add	x8, x10, w8, sxtw
    40103f88:	1acc2169 	lsl	w9, w11, w12
    40103f8c:	8b29c108 	add	x8, x8, w9, sxtw
    40103f90:	ab22c108 	adds	x8, x8, w2, sxtw
    40103f94:	54000180 	b.eq	0x40103fc4  // b.none
    40103f98:	7100107f 	cmp	w3, #0x4
    40103f9c:	540001c0 	b.eq	0x40103fd4  // b.none
    40103fa0:	7100087f 	cmp	w3, #0x2
    40103fa4:	54000220 	b.eq	0x40103fe8  // b.none
    40103fa8:	7100047f 	cmp	w3, #0x1
    40103fac:	54000281 	b.ne	0x40103ffc  // b.any
    40103fb0:	2a1f03e0 	mov	w0, wzr
    40103fb4:	39400108 	ldrb	w8, [x8]
    40103fb8:	39000088 	strb	w8, [x4]
    40103fbc:	a8c17bfd 	ldp	x29, x30, [sp], #16
    40103fc0:	d65f03c0 	ret
    40103fc4:	12800000 	mov	w0, #0xffffffff            	// #-1
    40103fc8:	b9000080 	str	w0, [x4]
    40103fcc:	a8c17bfd 	ldp	x29, x30, [sp], #16
    40103fd0:	d65f03c0 	ret
    40103fd4:	2a1f03e0 	mov	w0, wzr
    40103fd8:	b9400108 	ldr	w8, [x8]
    40103fdc:	b9000088 	str	w8, [x4]
    40103fe0:	a8c17bfd 	ldp	x29, x30, [sp], #16
    40103fe4:	d65f03c0 	ret
    40103fe8:	2a1f03e0 	mov	w0, wzr
    40103fec:	79400108 	ldrh	w8, [x8]
    40103ff0:	79000088 	strh	w8, [x4]
    40103ff4:	a8c17bfd 	ldp	x29, x30, [sp], #16
    40103ff8:	d65f03c0 	ret
    40103ffc:	b00000a1 	adrp	x1, 0x40118000
    40104000:	900000a2 	adrp	x2, 0x40118000
    40104004:	900000a4 	adrp	x4, 0x40118000
    40104008:	913a6c21 	add	x1, x1, #0xe9b
    4010400c:	913e6842 	add	x2, x2, #0xf9a
    40104010:	913e9484 	add	x4, x4, #0xfa5
    40104014:	52800020 	mov	w0, #0x1                   	// #1
    40104018:	52800da3 	mov	w3, #0x6d                  	// #109
    4010401c:	940040bb 	bl	0x40114308
    40104020:	2a1f03e0 	mov	w0, wzr
    40104024:	a8c17bfd 	ldp	x29, x30, [sp], #16
    40104028:	d65f03c0 	ret
    4010402c:	a9bf7bfd 	stp	x29, x30, [sp, #-16]!
    40104030:	910003fd 	mov	x29, sp
    40104034:	f00000a9 	adrp	x9, 0x4011b000
    40104038:	91020129 	add	x9, x9, #0x80
    4010403c:	3940012a 	ldrb	w10, [x9]
    40104040:	2a0003e8 	mov	w8, w0
    40104044:	6b20015f 	cmp	w10, w0, uxtb
    40104048:	12800000 	mov	w0, #0xffffffff            	// #-1
    4010404c:	54000568 	b.hi	0x401040f8  // b.pmore
    40104050:	3940052a 	ldrb	w10, [x9, #1]
    40104054:	6b28015f 	cmp	w10, w8, uxtb
    40104058:	54000503 	b.cc	0x401040f8  // b.lo, b.ul, b.last
    4010405c:	f9400529 	ldr	x9, [x9, #8]
    40104060:	f00000aa 	adrp	x10, 0x4011b000
    40104064:	f940394a 	ldr	x10, [x10, #112]
    40104068:	12001d08 	and	w8, w8, #0xff
    4010406c:	b9400129 	ldr	w9, [x9]
    40104070:	12001c2b 	and	w11, w1, #0xff
    40104074:	1103e12c 	add	w12, w9, #0xf8
    40104078:	1ac92108 	lsl	w8, w8, w9
    4010407c:	8b28c148 	add	x8, x10, w8, sxtw
    40104080:	1acc2169 	lsl	w9, w11, w12
    40104084:	8b29c108 	add	x8, x8, w9, sxtw
    40104088:	ab22c108 	adds	x8, x8, w2, sxtw
    4010408c:	54000120 	b.eq	0x401040b0  // b.none
    40104090:	7100107f 	cmp	w3, #0x4
    40104094:	54000140 	b.eq	0x401040bc  // b.none
    40104098:	7100087f 	cmp	w3, #0x2
    4010409c:	54000140 	b.eq	0x401040c4  // b.none
    401040a0:	7100047f 	cmp	w3, #0x1
    401040a4:	54000141 	b.ne	0x401040cc  // b.any
    401040a8:	39000104 	strb	w4, [x8]
    401040ac:	14000011 	b	0x401040f0
    401040b0:	12800000 	mov	w0, #0xffffffff            	// #-1
    401040b4:	a8c17bfd 	ldp	x29, x30, [sp], #16
    401040b8:	d65f03c0 	ret
    401040bc:	b9000104 	str	w4, [x8]
    401040c0:	1400000c 	b	0x401040f0
    401040c4:	79000104 	strh	w4, [x8]
    401040c8:	1400000a 	b	0x401040f0
    401040cc:	900000a1 	adrp	x1, 0x40118000
    401040d0:	900000a2 	adrp	x2, 0x40118000
    401040d4:	900000a4 	adrp	x4, 0x40118000
    401040d8:	913a6c21 	add	x1, x1, #0xe9b
    401040dc:	913e6842 	add	x2, x2, #0xf9a
    401040e0:	913f1c84 	add	x4, x4, #0xfc7
    401040e4:	52800020 	mov	w0, #0x1                   	// #1
    401040e8:	52801043 	mov	w3, #0x82                  	// #130
    401040ec:	94004087 	bl	0x40114308
    401040f0:	d5033e9f 	dsb	st
    401040f4:	2a1f03e0 	mov	w0, wzr
    401040f8:	a8c17bfd 	ldp	x29, x30, [sp], #16
    401040fc:	d65f03c0 	ret
    40104100:	a9bd7bfd 	stp	x29, x30, [sp, #-48]!
    40104104:	f9000bf5 	str	x21, [sp, #16]
    40104108:	a9024ff4 	stp	x20, x19, [sp, #32]
    4010410c:	910003fd 	mov	x29, sp
    40104110:	aa0103f3 	mov	x19, x1
    40104114:	b4000661 	cbz	x1, 0x401041e0
    40104118:	f9400408 	ldr	x8, [x0, #8]
    4010411c:	aa0003f4 	mov	x20, x0
    40104120:	b40000c8 	cbz	x8, 0x40104138
    40104124:	b9801a89 	ldrsw	x9, [x20, #24]
    40104128:	f9400a8a 	ldr	x10, [x20, #16]
    4010412c:	8b090909 	add	x9, x8, x9, lsl #2
    40104130:	eb0a013f 	cmp	x9, x10
    40104134:	54000069 	b.ls	0x40104140  // b.plast
    40104138:	aa1f03f3 	mov	x19, xzr
    4010413c:	14000029 	b	0x401041e0
    40104140:	b9400109 	ldr	w9, [x8]
    40104144:	2a0203f5 	mov	w21, w2
    40104148:	5ac00929 	rev	w9, w9
    4010414c:	b9000269 	str	w9, [x19]
    40104150:	b9400109 	ldr	w9, [x8]
    40104154:	12000529 	and	w9, w9, #0x3
    40104158:	7100053f 	cmp	w9, #0x1
    4010415c:	54000061 	b.ne	0x40104168  // b.any
    40104160:	52802009 	mov	w9, #0x100                 	// #256
    40104164:	1400000c 	b	0x40104194
    40104168:	900000a1 	adrp	x1, 0x40118000
    4010416c:	900000a2 	adrp	x2, 0x40118000
    40104170:	b00000a4 	adrp	x4, 0x40119000
    40104174:	913a6c21 	add	x1, x1, #0xe9b
    40104178:	913e6842 	add	x2, x2, #0xf9a
    4010417c:	91010084 	add	x4, x4, #0x40
    40104180:	52800020 	mov	w0, #0x1                   	// #1
    40104184:	52801383 	mov	w3, #0x9c                  	// #156
    40104188:	94004060 	bl	0x40114308
    4010418c:	f9400688 	ldr	x8, [x20, #8]
    40104190:	2a1f03e9 	mov	w9, wzr
    40104194:	b9002269 	str	w9, [x19, #32]
    40104198:	f8404109 	ldur	x9, [x8, #4]
    4010419c:	91003102 	add	x2, x8, #0xc
    401041a0:	2a1503e1 	mov	w1, w21
    401041a4:	dac00d29 	rev	x9, x9
    401041a8:	f9000669 	str	x9, [x19, #8]
    401041ac:	900000c9 	adrp	x9, 0x4011c000
    401041b0:	f9405520 	ldr	x0, [x9, #168]
    401041b4:	940009b5 	bl	0x40106888
    401041b8:	f9000a60 	str	x0, [x19, #16]
    401041bc:	f9400688 	ldr	x8, [x20, #8]
    401041c0:	b9801e89 	ldrsw	x9, [x20, #28]
    401041c4:	8b090909 	add	x9, x8, x9, lsl #2
    401041c8:	f840c129 	ldur	x9, [x9, #12]
    401041cc:	dac00d29 	rev	x9, x9
    401041d0:	f9000e69 	str	x9, [x19, #24]
    401041d4:	b9801a89 	ldrsw	x9, [x20, #24]
    401041d8:	8b090908 	add	x8, x8, x9, lsl #2
    401041dc:	f9000688 	str	x8, [x20, #8]
    401041e0:	aa1303e0 	mov	x0, x19
    401041e4:	a9424ff4 	ldp	x20, x19, [sp, #32]
    401041e8:	f9400bf5 	ldr	x21, [sp, #16]
    401041ec:	a8c37bfd 	ldp	x29, x30, [sp], #48
    401041f0:	d65f03c0 	ret
    401041f4:	d10343ff 	sub	sp, sp, #0xd0
    401041f8:	a9077bfd 	stp	x29, x30, [sp, #112]
    401041fc:	a9086ffc 	stp	x28, x27, [sp, #128]
    40104200:	a90967fa 	stp	x26, x25, [sp, #144]
    40104204:	a90a5ff8 	stp	x24, x23, [sp, #160]
    40104208:	a90b57f6 	stp	x22, x21, [sp, #176]
    4010420c:	a90c4ff4 	stp	x20, x19, [sp, #192]
    40104210:	9101c3fd 	add	x29, sp, #0x70
    40104214:	900001c8 	adrp	x8, 0x4013c000
    40104218:	900000da 	adrp	x26, 0x4011c000
    4010421c:	b9434115 	ldr	w21, [x8, #832]
    40104220:	aa0003f4 	mov	x20, x0
    40104224:	f9405740 	ldr	x0, [x26, #168]
    40104228:	900000a2 	adrp	x2, 0x40118000
    4010422c:	aa0103f3 	mov	x19, x1
    40104230:	913fa842 	add	x2, x2, #0xfea
    40104234:	910083e3 	add	x3, sp, #0x20
    40104238:	2a1503e1 	mov	w1, w21
    4010423c:	b9002bff 	str	wzr, [sp, #40]
    40104240:	94001a8f 	bl	0x4010ac7c
    40104244:	b40003a0 	cbz	x0, 0x401042b8
    40104248:	37f82595 	tbnz	w21, #31, 0x401046f8
    4010424c:	b9400019 	ldr	w25, [x0]
    40104250:	b9400668 	ldr	w8, [x19, #4]
    40104254:	5ac00b3b 	rev	w27, w25
    40104258:	6b1b011f 	cmp	w8, w27
    4010425c:	540024e1 	b.ne	0x401046f8  // b.any
    40104260:	900000b6 	adrp	x22, 0x40118000
    40104264:	913feed6 	add	x22, x22, #0xffb
    40104268:	2a1503f7 	mov	w23, w21
    4010426c:	f9405740 	ldr	x0, [x26, #168]
    40104270:	2a1703e1 	mov	w1, w23
    40104274:	aa1603e2 	mov	x2, x22
    40104278:	aa1f03e3 	mov	x3, xzr
    4010427c:	94001a80 	bl	0x4010ac7c
    40104280:	f9405748 	ldr	x8, [x26, #168]
    40104284:	aa0003f8 	mov	x24, x0
    40104288:	2a1703e1 	mov	w1, w23
    4010428c:	aa0803e0 	mov	x0, x8
    40104290:	94001b71 	bl	0x4010b054
    40104294:	b5000078 	cbnz	x24, 0x401042a0
    40104298:	2a0003f7 	mov	w23, w0
    4010429c:	36fffe80 	tbz	w0, #31, 0x4010426c
    401042a0:	b4000578 	cbz	x24, 0x4010434c
    401042a4:	b9400308 	ldr	w8, [x24]
    401042a8:	5ac00916 	rev	w22, w8
    401042ac:	710006df 	cmp	w22, #0x1
    401042b0:	5400050a 	b.ge	0x40104350  // b.tcont
    401042b4:	14000041 	b	0x401043b8
    401042b8:	b00000b6 	adrp	x22, 0x40119000
    401042bc:	900000b7 	adrp	x23, 0x40118000
    401042c0:	910196d6 	add	x22, x22, #0x65
    401042c4:	913faaf7 	add	x23, x23, #0xfea
    401042c8:	f9405758 	ldr	x24, [x26, #168]
    401042cc:	1400000c 	b	0x401042fc
    401042d0:	aa1803e0 	mov	x0, x24
    401042d4:	2a1503e1 	mov	w1, w21
    401042d8:	94001b5f 	bl	0x4010b054
    401042dc:	2a0003f5 	mov	w21, w0
    401042e0:	37f820c0 	tbnz	w0, #31, 0x401046f8
    401042e4:	aa1803e0 	mov	x0, x24
    401042e8:	2a1503e1 	mov	w1, w21
    401042ec:	aa1703e2 	mov	x2, x23
    401042f0:	aa1f03e3 	mov	x3, xzr
    401042f4:	94001a62 	bl	0x4010ac7c
    401042f8:	b50001c0 	cbnz	x0, 0x40104330
    401042fc:	9100b3e3 	add	x3, sp, #0x2c
    40104300:	aa1803e0 	mov	x0, x24
    40104304:	2a1503e1 	mov	w1, w21
    40104308:	aa1603e2 	mov	x2, x22
    4010430c:	94001a5c 	bl	0x4010ac7c
    40104310:	b4fffe00 	cbz	x0, 0x401042d0
    40104314:	b9400008 	ldr	w8, [x0]
    40104318:	aa1803e0 	mov	x0, x24
    4010431c:	5ac00901 	rev	w1, w8
    40104320:	94001bde 	bl	0x4010b298
    40104324:	2a0003f5 	mov	w21, w0
    40104328:	36fffde0 	tbz	w0, #31, 0x401042e4
    4010432c:	140000f3 	b	0x401046f8
    40104330:	f9405740 	ldr	x0, [x26, #168]
    40104334:	910083e3 	add	x3, sp, #0x20
    40104338:	2a1503e1 	mov	w1, w21
    4010433c:	aa1703e2 	mov	x2, x23
    40104340:	94001a4f 	bl	0x4010ac7c
    40104344:	b4fffc20 	cbz	x0, 0x401042c8
    40104348:	17ffffc1 	b	0x4010424c
    4010434c:	52800056 	mov	w22, #0x2                   	// #2
    40104350:	710006df 	cmp	w22, #0x1
    40104354:	2a1603e8 	mov	w8, w22
    40104358:	54000068 	b.hi	0x40104364  // b.pmore
    4010435c:	aa1f03e9 	mov	x9, xzr
    40104360:	1400001f 	b	0x401043dc
    40104364:	927f7909 	and	x9, x8, #0xfffffffe
    40104368:	9100b3eb 	add	x11, sp, #0x2c
    4010436c:	9100128a 	add	x10, x20, #0x4
    40104370:	9100116b 	add	x11, x11, #0x4
    40104374:	aa0903ec 	mov	x12, x9
    40104378:	14000009 	b	0x4010439c
    4010437c:	f100029f 	cmp	x20, #0x0
    40104380:	1a8d03ed 	csel	w13, wzr, w13, eq  // eq = none
    40104384:	1a8e03ee 	csel	w14, wzr, w14, eq  // eq = none
    40104388:	9100214a 	add	x10, x10, #0x8
    4010438c:	f100098c 	subs	x12, x12, #0x2
    40104390:	293fb96d 	stp	w13, w14, [x11, #-4]
    40104394:	9100216b 	add	x11, x11, #0x8
    40104398:	540000c0 	b.eq	0x401043b0  // b.none
    4010439c:	b4000054 	cbz	x20, 0x401043a4
    401043a0:	b85fc14d 	ldur	w13, [x10, #-4]
    401043a4:	b4fffed4 	cbz	x20, 0x4010437c
    401043a8:	b940014e 	ldr	w14, [x10]
    401043ac:	17fffff4 	b	0x4010437c
    401043b0:	eb08013f 	cmp	x9, x8
    401043b4:	54000141 	b.ne	0x401043dc  // b.any
    401043b8:	7100077f 	cmp	w27, #0x1
    401043bc:	5400062b 	b.lt	0x40104480  // b.tstop
    401043c0:	52a02009 	mov	w9, #0x1000000             	// #16777216
    401043c4:	93407ec8 	sxtw	x8, w22
    401043c8:	6b09033f 	cmp	w25, w9
    401043cc:	2a1b03e9 	mov	w9, w27
    401043d0:	54000221 	b.ne	0x40104414  // b.any
    401043d4:	aa1f03ea 	mov	x10, xzr
    401043d8:	1400001f 	b	0x40104454
    401043dc:	d37ef52b 	lsl	x11, x9, #2
    401043e0:	9100b3ea 	add	x10, sp, #0x2c
    401043e4:	8b0b014a 	add	x10, x10, x11
    401043e8:	8b0b028b 	add	x11, x20, x11
    401043ec:	cb090108 	sub	x8, x8, x9
    401043f0:	14000006 	b	0x40104408
    401043f4:	2a1f03e9 	mov	w9, wzr
    401043f8:	b8004549 	str	w9, [x10], #4
    401043fc:	f1000508 	subs	x8, x8, #0x1
    40104400:	9100116b 	add	x11, x11, #0x4
    40104404:	54fffda0 	b.eq	0x401043b8  // b.none
    40104408:	b4ffff74 	cbz	x20, 0x401043f4
    4010440c:	b9400169 	ldr	w9, [x11]
    40104410:	17fffffa 	b	0x401043f8
    40104414:	9100b3eb 	add	x11, sp, #0x2c
    40104418:	927f792a 	and	x10, x9, #0xfffffffe
    4010441c:	8b08096b 	add	x11, x11, x8, lsl #2
    40104420:	9100116b 	add	x11, x11, #0x4
    40104424:	9100326c 	add	x12, x19, #0xc
    40104428:	aa0a03ed 	mov	x13, x10
    4010442c:	297fbd8e 	ldp	w14, w15, [x12, #-4]
    40104430:	f10009ad 	subs	x13, x13, #0x2
    40104434:	9100218c 	add	x12, x12, #0x8
    40104438:	5ac009ce 	rev	w14, w14
    4010443c:	5ac009ef 	rev	w15, w15
    40104440:	293fbd6e 	stp	w14, w15, [x11, #-4]
    40104444:	9100216b 	add	x11, x11, #0x8
    40104448:	54ffff21 	b.ne	0x4010442c  // b.any
    4010444c:	eb09015f 	cmp	x10, x9
    40104450:	54000180 	b.eq	0x40104480  // b.none
    40104454:	8b0a0a6b 	add	x11, x19, x10, lsl #2
    40104458:	8b08014c 	add	x12, x10, x8
    4010445c:	9100b3ed 	add	x13, sp, #0x2c
    40104460:	91002168 	add	x8, x11, #0x8
    40104464:	8b0c09ab 	add	x11, x13, x12, lsl #2
    40104468:	cb0a0129 	sub	x9, x9, x10
    4010446c:	b840450a 	ldr	w10, [x8], #4
    40104470:	f1000529 	subs	x9, x9, #0x1
    40104474:	5ac0094a 	rev	w10, w10
    40104478:	b800456a 	str	w10, [x11], #4
    4010447c:	54ffff81 	b.ne	0x4010446c  // b.any
    40104480:	37f814f5 	tbnz	w21, #31, 0x4010471c
    40104484:	9100b3e8 	add	x8, sp, #0x2c
    40104488:	b00000b7 	adrp	x23, 0x40119000
    4010448c:	b00000b8 	adrp	x24, 0x40119000
    40104490:	b00000b9 	adrp	x25, 0x40119000
    40104494:	f9000fe8 	str	x8, [sp, #24]
    40104498:	91002268 	add	x8, x19, #0x8
    4010449c:	91002af7 	add	x23, x23, #0xa
    401044a0:	91007f18 	add	x24, x24, #0x1f
    401044a4:	91019739 	add	x25, x25, #0x65
    401044a8:	a9004fe8 	stp	x8, x19, [sp]
    401044ac:	f9405740 	ldr	x0, [x26, #168]
    401044b0:	2a1503e1 	mov	w1, w21
    401044b4:	aa1703e2 	mov	x2, x23
    401044b8:	94000abe 	bl	0x40106fb0
    401044bc:	37001380 	tbnz	w0, #0, 0x4010472c
    401044c0:	b5000054 	cbnz	x20, 0x401044c8
    401044c4:	350011b6 	cbnz	w22, 0x401046f8
    401044c8:	f9405740 	ldr	x0, [x26, #168]
    401044cc:	910093e3 	add	x3, sp, #0x24
    401044d0:	2a1503e1 	mov	w1, w21
    401044d4:	aa1803e2 	mov	x2, x24
    401044d8:	940019e9 	bl	0x4010ac7c
    401044dc:	b4000d20 	cbz	x0, 0x40104680
    401044e0:	b94027e8 	ldr	w8, [sp, #36]
    401044e4:	aa0003fc 	mov	x28, x0
    401044e8:	f9405740 	ldr	x0, [x26, #168]
    401044ec:	b00000a2 	adrp	x2, 0x40119000
    401044f0:	13027d08 	asr	w8, w8, #2
    401044f4:	2a1503e1 	mov	w1, w21
    401044f8:	9100b442 	add	x2, x2, #0x2d
    401044fc:	aa1f03e3 	mov	x3, xzr
    40104500:	b90027e8 	str	w8, [sp, #36]
    40104504:	940019de 	bl	0x4010ac7c
    40104508:	b94027e8 	ldr	w8, [sp, #36]
    4010450c:	0b1b02d8 	add	w24, w22, w27
    40104510:	f100001f 	cmp	x0, #0x0
    40104514:	9100a3e9 	add	x9, sp, #0x28
    40104518:	11000713 	add	w19, w24, #0x1
    4010451c:	9a800129 	csel	x9, x9, x0, eq  // eq = none
    40104520:	6b13011f 	cmp	w8, w19
    40104524:	f9000be9 	str	x9, [sp, #16]
    40104528:	54000e8d 	b.le	0x401046f8
    4010452c:	93407f19 	sxtw	x25, w24
    40104530:	7100071f 	cmp	w24, #0x1
    40104534:	5400026b 	b.lt	0x40104580  // b.tstop
    40104538:	a9412beb 	ldp	x11, x10, [sp, #16]
    4010453c:	51000508 	sub	w8, w8, #0x1
    40104540:	52800037 	mov	w23, #0x1                   	// #1
    40104544:	aa1903e9 	mov	x9, x25
    40104548:	aa1c03ec 	mov	x12, x28
    4010454c:	b840454d 	ldr	w13, [x10], #4
    40104550:	b840458e 	ldr	w14, [x12], #4
    40104554:	b840456f 	ldr	w15, [x11], #4
    40104558:	b90027e8 	str	w8, [sp, #36]
    4010455c:	51000508 	sub	w8, w8, #0x1
    40104560:	4a0d01cd 	eor	w13, w14, w13
    40104564:	6a0f01bf 	tst	w13, w15
    40104568:	1a9f17ed 	cset	w13, eq  // eq = none
    4010456c:	f1000529 	subs	x9, x9, #0x1
    40104570:	0a0d02f7 	and	w23, w23, w13
    40104574:	54fffec1 	b.ne	0x4010454c  // b.any
    40104578:	8b190b9c 	add	x28, x28, x25, lsl #2
    4010457c:	14000002 	b	0x40104584
    40104580:	52800037 	mov	w23, #0x1                   	// #1
    40104584:	f9405740 	ldr	x0, [x26, #168]
    40104588:	b8404788 	ldr	w8, [x28], #4
    4010458c:	5ac00901 	rev	w1, w8
    40104590:	94001b42 	bl	0x4010b298
    40104594:	b94027e8 	ldr	w8, [sp, #36]
    40104598:	51000508 	sub	w8, w8, #0x1
    4010459c:	b90027e8 	str	w8, [sp, #36]
    401045a0:	37f80ac0 	tbnz	w0, #31, 0x401046f8
    401045a4:	2a0003f5 	mov	w21, w0
    401045a8:	f9405740 	ldr	x0, [x26, #168]
    401045ac:	900000a2 	adrp	x2, 0x40118000
    401045b0:	910083e3 	add	x3, sp, #0x20
    401045b4:	2a1503e1 	mov	w1, w21
    401045b8:	913fa842 	add	x2, x2, #0xfea
    401045bc:	940019b0 	bl	0x4010ac7c
    401045c0:	b40009c0 	cbz	x0, 0x401046f8
    401045c4:	b9400016 	ldr	w22, [x0]
    401045c8:	f9405740 	ldr	x0, [x26, #168]
    401045cc:	900000a2 	adrp	x2, 0x40118000
    401045d0:	910083e3 	add	x3, sp, #0x20
    401045d4:	2a1503e1 	mov	w1, w21
    401045d8:	913fec42 	add	x2, x2, #0xffb
    401045dc:	940019a8 	bl	0x4010ac7c
    401045e0:	b40008c0 	cbz	x0, 0x401046f8
    401045e4:	b9400008 	ldr	w8, [x0]
    401045e8:	5ac00adb 	rev	w27, w22
    401045ec:	5ac00916 	rev	w22, w8
    401045f0:	0b1b02c9 	add	w9, w22, w27
    401045f4:	7100413f 	cmp	w9, #0x10
    401045f8:	5400096c 	b.gt	0x40104724
    401045fc:	b94027e8 	ldr	w8, [sp, #36]
    40104600:	6b090108 	subs	w8, w8, w9
    40104604:	5400090b 	b.lt	0x40104724  // b.tstop
    40104608:	8b29cb9c 	add	x28, x28, w9, sxtw #2
    4010460c:	6b13011f 	cmp	w8, w19
    40104610:	b90027e8 	str	w8, [sp, #36]
    40104614:	5400004d 	b.le	0x4010461c
    40104618:	34fff8d7 	cbz	w23, 0x40104530
    4010461c:	340006f7 	cbz	w23, 0x401046f8
    40104620:	cb36cb88 	sub	x8, x28, w22, sxtw #2
    40104624:	7100077f 	cmp	w27, #0x1
    40104628:	cb3bc908 	sub	x8, x8, w27, sxtw #2
    4010462c:	f9000fe8 	str	x8, [sp, #24]
    40104630:	5400016b 	b.lt	0x4010465c  // b.tstop
    40104634:	f94003ea 	ldr	x10, [sp]
    40104638:	aa1f03e8 	mov	x8, xzr
    4010463c:	cb3bc108 	sub	x8, x8, w27, sxtw
    40104640:	8b080b88 	add	x8, x28, x8, lsl #2
    40104644:	2a1b03e9 	mov	w9, w27
    40104648:	b840450b 	ldr	w11, [x8], #4
    4010464c:	f1000529 	subs	x9, x9, #0x1
    40104650:	5ac0096b 	rev	w11, w11
    40104654:	b800454b 	str	w11, [x10], #4
    40104658:	54ffff81 	b.ne	0x40104648  // b.any
    4010465c:	f94007f3 	ldr	x19, [sp, #8]
    40104660:	b00000b7 	adrp	x23, 0x40119000
    40104664:	b00000b8 	adrp	x24, 0x40119000
    40104668:	b00000b9 	adrp	x25, 0x40119000
    4010466c:	91002af7 	add	x23, x23, #0xa
    40104670:	91007f18 	add	x24, x24, #0x1f
    40104674:	91019739 	add	x25, x25, #0x65
    40104678:	b900067b 	str	w27, [x19, #4]
    4010467c:	1400001b 	b	0x401046e8
    40104680:	f940575c 	ldr	x28, [x26, #168]
    40104684:	1400000d 	b	0x401046b8
    40104688:	aa1c03e0 	mov	x0, x28
    4010468c:	2a1503e1 	mov	w1, w21
    40104690:	94001a71 	bl	0x4010b054
    40104694:	2a0003f5 	mov	w21, w0
    40104698:	37f80280 	tbnz	w0, #31, 0x401046e8
    4010469c:	900000a2 	adrp	x2, 0x40118000
    401046a0:	aa1c03e0 	mov	x0, x28
    401046a4:	2a1503e1 	mov	w1, w21
    401046a8:	913fa842 	add	x2, x2, #0xfea
    401046ac:	aa1f03e3 	mov	x3, xzr
    401046b0:	94001973 	bl	0x4010ac7c
    401046b4:	b50001a0 	cbnz	x0, 0x401046e8
    401046b8:	d10013a3 	sub	x3, x29, #0x4
    401046bc:	aa1c03e0 	mov	x0, x28
    401046c0:	2a1503e1 	mov	w1, w21
    401046c4:	aa1903e2 	mov	x2, x25
    401046c8:	9400196d 	bl	0x4010ac7c
    401046cc:	b4fffde0 	cbz	x0, 0x40104688
    401046d0:	b9400008 	ldr	w8, [x0]
    401046d4:	aa1c03e0 	mov	x0, x28
    401046d8:	5ac00901 	rev	w1, w8
    401046dc:	94001aef 	bl	0x4010b298
    401046e0:	2a0003f5 	mov	w21, w0
    401046e4:	36fffdc0 	tbz	w0, #31, 0x4010469c
    401046e8:	12800020 	mov	w0, #0xfffffffe            	// #-2
    401046ec:	b9000275 	str	w21, [x19]
    401046f0:	36ffedf5 	tbz	w21, #31, 0x401044ac
    401046f4:	14000002 	b	0x401046fc
    401046f8:	128002a0 	mov	w0, #0xffffffea            	// #-22
    401046fc:	a94c4ff4 	ldp	x20, x19, [sp, #192]
    40104700:	a94b57f6 	ldp	x22, x21, [sp, #176]
    40104704:	a94a5ff8 	ldp	x24, x23, [sp, #160]
    40104708:	a94967fa 	ldp	x26, x25, [sp, #144]
    4010470c:	a9486ffc 	ldp	x28, x27, [sp, #128]
    40104710:	a9477bfd 	ldp	x29, x30, [sp, #112]
    40104714:	910343ff 	add	sp, sp, #0xd0
    40104718:	d65f03c0 	ret
    4010471c:	12800020 	mov	w0, #0xfffffffe            	// #-2
    40104720:	17fffff7 	b	0x401046fc
    40104724:	128001a0 	mov	w0, #0xfffffff2            	// #-14
    40104728:	17fffff5 	b	0x401046fc
    4010472c:	2a1f03e0 	mov	w0, wzr
    40104730:	17fffff3 	b	0x401046fc
    40104734:	f100001f 	cmp	x0, #0x0
    40104738:	128002a8 	mov	w8, #0xffffffea            	// #-22
    4010473c:	1a9f0100 	csel	w0, w8, wzr, eq  // eq = none
    40104740:	d65f03c0 	ret
    40104744:	d10203ff 	sub	sp, sp, #0x80
    40104748:	a9027bfd 	stp	x29, x30, [sp, #32]
    4010474c:	a9036ffc 	stp	x28, x27, [sp, #48]
    40104750:	a90467fa 	stp	x26, x25, [sp, #64]
    40104754:	a9055ff8 	stp	x24, x23, [sp, #80]
    40104758:	a90657f6 	stp	x22, x21, [sp, #96]
    4010475c:	a9074ff4 	stp	x20, x19, [sp, #112]
    40104760:	910083fd 	add	x29, sp, #0x20
    40104764:	900000d8 	adrp	x24, 0x4011c000
    40104768:	f9405700 	ldr	x0, [x24, #168]
    4010476c:	b00000a2 	adrp	x2, 0x40119000
    40104770:	91039442 	add	x2, x2, #0xe5
    40104774:	12800001 	mov	w1, #0xffffffff            	// #-1
    40104778:	94001c22 	bl	0x4010b800
    4010477c:	900001d9 	adrp	x25, 0x4013c000
    40104780:	b9034320 	str	w0, [x25, #832]
    40104784:	37f810a0 	tbnz	w0, #31, 0x40104998
    40104788:	2a0003e1 	mov	w1, w0
    4010478c:	f9405700 	ldr	x0, [x24, #168]
    40104790:	900000a2 	adrp	x2, 0x40118000
    40104794:	91269842 	add	x2, x2, #0x9a6
    40104798:	d10023a3 	sub	x3, x29, #0x8
    4010479c:	94001938 	bl	0x4010ac7c
    401047a0:	b4000520 	cbz	x0, 0x40104844
    401047a4:	aa0003f3 	mov	x19, x0
    401047a8:	f9405700 	ldr	x0, [x24, #168]
    401047ac:	b9434321 	ldr	w1, [x25, #832]
    401047b0:	910043e3 	add	x3, sp, #0x10
    401047b4:	910023e4 	add	x4, sp, #0x8
    401047b8:	2a1f03e2 	mov	w2, wzr
    401047bc:	94000919 	bl	0x40106c20
    401047c0:	a9402668 	ldp	x8, x9, [x19]
    401047c4:	f9405700 	ldr	x0, [x24, #168]
    401047c8:	b9434321 	ldr	w1, [x25, #832]
    401047cc:	f00000aa 	adrp	x10, 0x4011b000
    401047d0:	b00000a2 	adrp	x2, 0x40119000
    401047d4:	dac00d08 	rev	x8, x8
    401047d8:	9101c14a 	add	x10, x10, #0x70
    401047dc:	dac00d29 	rev	x9, x9
    401047e0:	91025842 	add	x2, x2, #0x96
    401047e4:	d10023a3 	sub	x3, x29, #0x8
    401047e8:	a900a3e9 	stp	x9, x8, [sp, #8]
    401047ec:	a9002548 	stp	x8, x9, [x10]
    401047f0:	94001923 	bl	0x4010ac7c
    401047f4:	b40003a0 	cbz	x0, 0x40104868
    401047f8:	b9400008 	ldr	w8, [x0]
    401047fc:	f00000a9 	adrp	x9, 0x4011b000
    40104800:	91020129 	add	x9, x9, #0x80
    40104804:	53187d08 	lsr	w8, w8, #24
    40104808:	39000128 	strb	w8, [x9]
    4010480c:	b940040a 	ldr	w10, [x0, #4]
    40104810:	5ac0094a 	rev	w10, w10
    40104814:	6b2a011f 	cmp	w8, w10, uxtb
    40104818:	3900052a 	strb	w10, [x9, #1]
    4010481c:	54000389 	b.ls	0x4010488c  // b.plast
    40104820:	900000a1 	adrp	x1, 0x40118000
    40104824:	900000a2 	adrp	x2, 0x40118000
    40104828:	b00000a4 	adrp	x4, 0x40119000
    4010482c:	913a6c21 	add	x1, x1, #0xe9b
    40104830:	913e6842 	add	x2, x2, #0xf9a
    40104834:	91031884 	add	x4, x4, #0xc6
    40104838:	52800020 	mov	w0, #0x1                   	// #1
    4010483c:	52803803 	mov	w3, #0x1c0                 	// #448
    40104840:	14000055 	b	0x40104994
    40104844:	900000a1 	adrp	x1, 0x40118000
    40104848:	900000a2 	adrp	x2, 0x40118000
    4010484c:	b00000a4 	adrp	x4, 0x40119000
    40104850:	913a6c21 	add	x1, x1, #0xe9b
    40104854:	913e6842 	add	x2, x2, #0xf9a
    40104858:	9101d884 	add	x4, x4, #0x76
    4010485c:	52800020 	mov	w0, #0x1                   	// #1
    40104860:	52803423 	mov	w3, #0x1a1                 	// #417
    40104864:	1400004c 	b	0x40104994
    40104868:	900000a1 	adrp	x1, 0x40118000
    4010486c:	900000a2 	adrp	x2, 0x40118000
    40104870:	b00000a4 	adrp	x4, 0x40119000
    40104874:	913a6c21 	add	x1, x1, #0xe9b
    40104878:	913e6842 	add	x2, x2, #0xf9a
    4010487c:	91028084 	add	x4, x4, #0xa0
    40104880:	52800020 	mov	w0, #0x1                   	// #1
    40104884:	528036c3 	mov	w3, #0x1b6                 	// #438
    40104888:	14000043 	b	0x40104994
    4010488c:	b9434334 	ldr	w20, [x25, #832]
    40104890:	f9405700 	ldr	x0, [x24, #168]
    40104894:	2a1403e1 	mov	w1, w20
    40104898:	94001179 	bl	0x40108e7c
    4010489c:	f9405708 	ldr	x8, [x24, #168]
    401048a0:	b00000a2 	adrp	x2, 0x40119000
    401048a4:	2a0003f3 	mov	w19, w0
    401048a8:	9103ec42 	add	x2, x2, #0xfb
    401048ac:	d10013a3 	sub	x3, x29, #0x4
    401048b0:	aa0803e0 	mov	x0, x8
    401048b4:	2a1403e1 	mov	w1, w20
    401048b8:	940018f1 	bl	0x4010ac7c
    401048bc:	b40005c0 	cbz	x0, 0x40104974
    401048c0:	b89fc3a9 	ldursw	x9, [x29, #-4]
    401048c4:	93407e68 	sxtw	x8, w19
    401048c8:	9100151a 	add	x26, x8, #0x5
    401048cc:	d37ef51b 	lsl	x27, x8, #2
    401048d0:	927ef528 	and	x8, x9, #0xfffffffffffffffc
    401048d4:	aa0003f6 	mov	x22, x0
    401048d8:	d37ef75c 	lsl	x28, x26, #2
    401048dc:	8b080013 	add	x19, x0, x8
    401048e0:	b40003b6 	cbz	x22, 0x40104954
    401048e4:	8b1a0ad5 	add	x21, x22, x26, lsl #2
    401048e8:	eb1302bf 	cmp	x21, x19
    401048ec:	54000348 	b.hi	0x40104954  // b.pmore
    401048f0:	b94002c8 	ldr	w8, [x22]
    401048f4:	b9434337 	ldr	w23, [x25, #832]
    401048f8:	12000508 	and	w8, w8, #0x3
    401048fc:	7100051f 	cmp	w8, #0x1
    40104900:	54000061 	b.ne	0x4010490c  // b.any
    40104904:	52802014 	mov	w20, #0x100                 	// #256
    40104908:	1400000b 	b	0x40104934
    4010490c:	900000a1 	adrp	x1, 0x40118000
    40104910:	900000a2 	adrp	x2, 0x40118000
    40104914:	b00000a4 	adrp	x4, 0x40119000
    40104918:	52800020 	mov	w0, #0x1                   	// #1
    4010491c:	52801383 	mov	w3, #0x9c                  	// #156
    40104920:	913a6c21 	add	x1, x1, #0xe9b
    40104924:	913e6842 	add	x2, x2, #0xf9a
    40104928:	91010084 	add	x4, x4, #0x40
    4010492c:	94003e77 	bl	0x40114308
    40104930:	2a1f03f4 	mov	w20, wzr
    40104934:	f9405700 	ldr	x0, [x24, #168]
    40104938:	910032d6 	add	x22, x22, #0xc
    4010493c:	2a1703e1 	mov	w1, w23
    40104940:	aa1603e2 	mov	x2, x22
    40104944:	940007d1 	bl	0x40106888
    40104948:	f87b6ac8 	ldr	x8, [x22, x27]
    4010494c:	aa1503f6 	mov	x22, x21
    40104950:	dac00d09 	rev	x9, x8
    40104954:	7104029f 	cmp	w20, #0x100
    40104958:	54000340 	b.eq	0x401049c0  // b.none
    4010495c:	8b1c02d6 	add	x22, x22, x28
    40104960:	8b1c02c8 	add	x8, x22, x28
    40104964:	eb13011f 	cmp	x8, x19
    40104968:	54fffbc9 	b.ls	0x401048e0  // b.plast
    4010496c:	2a1f03e8 	mov	w8, wzr
    40104970:	1400000b 	b	0x4010499c
    40104974:	900000a1 	adrp	x1, 0x40118000
    40104978:	900000a2 	adrp	x2, 0x40118000
    4010497c:	b00000a4 	adrp	x4, 0x40119000
    40104980:	913a6c21 	add	x1, x1, #0xe9b
    40104984:	913e6842 	add	x2, x2, #0xf9a
    40104988:	91031884 	add	x4, x4, #0xc6
    4010498c:	52800020 	mov	w0, #0x1                   	// #1
    40104990:	528038e3 	mov	w3, #0x1c7                 	// #455
    40104994:	94003e5d 	bl	0x40114308
    40104998:	12800248 	mov	w8, #0xffffffed            	// #-19
    4010499c:	a9474ff4 	ldp	x20, x19, [sp, #112]
    401049a0:	a94657f6 	ldp	x22, x21, [sp, #96]
    401049a4:	a9455ff8 	ldp	x24, x23, [sp, #80]
    401049a8:	a94467fa 	ldp	x26, x25, [sp, #64]
    401049ac:	a9436ffc 	ldp	x28, x27, [sp, #48]
    401049b0:	a9427bfd 	ldp	x29, x30, [sp, #32]
    401049b4:	2a0803e0 	mov	w0, w8
    401049b8:	910203ff 	add	sp, sp, #0x80
    401049bc:	d65f03c0 	ret
    401049c0:	f00000aa 	adrp	x10, 0x4011b000
    401049c4:	9102414a 	add	x10, x10, #0x90
    401049c8:	2a1f03e8 	mov	w8, wzr
    401049cc:	a9002540 	stp	x0, x9, [x10]
    401049d0:	17fffff3 	b	0x4010499c
    401049d4:	2a1f03e0 	mov	w0, wzr
    401049d8:	d65f03c0 	ret
    401049dc:	a9bf7bfd 	stp	x29, x30, [sp, #-16]!
    401049e0:	910003fd 	mov	x29, sp
    401049e4:	aa0003e1 	mov	x1, x0
    401049e8:	b00000a0 	adrp	x0, 0x40119000
    401049ec:	91039400 	add	x0, x0, #0xe5
    401049f0:	940029f9 	bl	0x4010f1d4
    401049f4:	f00000a8 	adrp	x8, 0x4011b000
    401049f8:	79414108 	ldrh	w8, [x8, #160]
    401049fc:	7100001f 	cmp	w0, #0x0
    40104a00:	5a9f0100 	csinv	w0, w8, wzr, eq  // eq = none
    40104a04:	a8c17bfd 	ldp	x29, x30, [sp], #16
    40104a08:	d65f03c0 	ret
    40104a0c:	f00000a0 	adrp	x0, 0x4011b000
    40104a10:	9102a000 	add	x0, x0, #0xa8
    40104a14:	14000001 	b	0x40104a18
    40104a18:	a9bf7bfd 	stp	x29, x30, [sp, #-16]!
    40104a1c:	910003fd 	mov	x29, sp
    40104a20:	b4000220 	cbz	x0, 0x40104a64
    40104a24:	f00000a8 	adrp	x8, 0x4011b000
    40104a28:	b9411909 	ldr	w9, [x8, #280]
    40104a2c:	f00000a8 	adrp	x8, 0x4011b000
    40104a30:	34000069 	cbz	w9, 0x40104a3c
    40104a34:	f9408909 	ldr	x9, [x8, #272]
    40104a38:	14000006 	b	0x40104a50
    40104a3c:	f00000a9 	adrp	x9, 0x4011b000
    40104a40:	91042129 	add	x9, x9, #0x108
    40104a44:	5280002a 	mov	w10, #0x1                   	// #1
    40104a48:	a900253f 	stp	xzr, x9, [x9]
    40104a4c:	b900112a 	str	w10, [x9, #16]
    40104a50:	a900241f 	stp	xzr, x9, [x0]
    40104a54:	f9000120 	str	x0, [x9]
    40104a58:	f9008900 	str	x0, [x8, #272]
    40104a5c:	a8c17bfd 	ldp	x29, x30, [sp], #16
    40104a60:	d65f03c0 	ret
    40104a64:	b00000a1 	adrp	x1, 0x40119000
    40104a68:	b00000a2 	adrp	x2, 0x40119000
    40104a6c:	900000a4 	adrp	x4, 0x40118000
    40104a70:	900000a5 	adrp	x5, 0x40118000
    40104a74:	91040821 	add	x1, x1, #0x102
    40104a78:	91042c42 	add	x2, x2, #0x10b
    40104a7c:	912c6c84 	add	x4, x4, #0xb1b
    40104a80:	913abca5 	add	x5, x5, #0xeaf
    40104a84:	52801b03 	mov	w3, #0xd8                  	// #216
    40104a88:	94003e20 	bl	0x40114308
    40104a8c:	52800060 	mov	w0, #0x3                   	// #3
    40104a90:	97fff96e 	bl	0x40103048
    40104a94:	f00000a0 	adrp	x0, 0x4011b000
    40104a98:	91038000 	add	x0, x0, #0xe0
    40104a9c:	14003c7e 	b	0x40113c94
    40104aa0:	a9bb7bfd 	stp	x29, x30, [sp, #-80]!
    40104aa4:	f9000bf9 	str	x25, [sp, #16]
    40104aa8:	a9025ff8 	stp	x24, x23, [sp, #32]
    40104aac:	a90357f6 	stp	x22, x21, [sp, #48]
    40104ab0:	a9044ff4 	stp	x20, x19, [sp, #64]
    40104ab4:	910003fd 	mov	x29, sp
    40104ab8:	b4000740 	cbz	x0, 0x40104ba0
    40104abc:	f00000a8 	adrp	x8, 0x4011b000
    40104ac0:	91040108 	add	x8, x8, #0x100
    40104ac4:	b9401909 	ldr	w9, [x8, #24]
    40104ac8:	f9000100 	str	x0, [x8]
    40104acc:	f00000a8 	adrp	x8, 0x4011b000
    40104ad0:	aa0003f3 	mov	x19, x0
    40104ad4:	91042108 	add	x8, x8, #0x108
    40104ad8:	340004a9 	cbz	w9, 0x40104b6c
    40104adc:	f9400118 	ldr	x24, [x8]
    40104ae0:	aa0803e9 	mov	x9, x8
    40104ae4:	f8018d3f 	str	xzr, [x9, #24]!
    40104ae8:	f9001109 	str	x9, [x8, #32]
    40104aec:	b40004d8 	cbz	x24, 0x40104b84
    40104af0:	b00000b4 	adrp	x20, 0x40119000
    40104af4:	b00000b5 	adrp	x21, 0x40119000
    40104af8:	b00000b6 	adrp	x22, 0x40119000
    40104afc:	91040a94 	add	x20, x20, #0x102
    40104b00:	91042eb5 	add	x21, x21, #0x10b
    40104b04:	91046ad6 	add	x22, x22, #0x11a
    40104b08:	f00000b9 	adrp	x25, 0x4011b000
    40104b0c:	14000004 	b	0x40104b1c
    40104b10:	f9008b29 	str	x9, [x25, #272]
    40104b14:	f9000128 	str	x8, [x9]
    40104b18:	b4000378 	cbz	x24, 0x40104b84
    40104b1c:	aa1803f7 	mov	x23, x24
    40104b20:	f9400f08 	ldr	x8, [x24, #24]
    40104b24:	f9400318 	ldr	x24, [x24]
    40104b28:	b4ffff88 	cbz	x8, 0x40104b18
    40104b2c:	aa1303e0 	mov	x0, x19
    40104b30:	d63f0100 	blr	x8
    40104b34:	34ffff20 	cbz	w0, 0x40104b18
    40104b38:	2a0003e6 	mov	w6, w0
    40104b3c:	52800020 	mov	w0, #0x1                   	// #1
    40104b40:	528019e3 	mov	w3, #0xcf                  	// #207
    40104b44:	aa1403e1 	mov	x1, x20
    40104b48:	aa1503e2 	mov	x2, x21
    40104b4c:	aa1603e4 	mov	x4, x22
    40104b50:	aa1703e5 	mov	x5, x23
    40104b54:	94003ded 	bl	0x40114308
    40104b58:	a94026e8 	ldp	x8, x9, [x23]
    40104b5c:	b4fffda8 	cbz	x8, 0x40104b10
    40104b60:	f9000509 	str	x9, [x8, #8]
    40104b64:	f94006e9 	ldr	x9, [x23, #8]
    40104b68:	17ffffeb 	b	0x40104b14
    40104b6c:	52800029 	mov	w9, #0x1                   	// #1
    40104b70:	b9001109 	str	w9, [x8, #16]
    40104b74:	aa0803e9 	mov	x9, x8
    40104b78:	a900211f 	stp	xzr, x8, [x8]
    40104b7c:	f8018d3f 	str	xzr, [x9, #24]!
    40104b80:	f9001109 	str	x9, [x8, #32]
    40104b84:	a9444ff4 	ldp	x20, x19, [sp, #64]
    40104b88:	a94357f6 	ldp	x22, x21, [sp, #48]
    40104b8c:	a9425ff8 	ldp	x24, x23, [sp, #32]
    40104b90:	f9400bf9 	ldr	x25, [sp, #16]
    40104b94:	2a1f03e0 	mov	w0, wzr
    40104b98:	a8c57bfd 	ldp	x29, x30, [sp], #80
    40104b9c:	d65f03c0 	ret
    40104ba0:	b00000a1 	adrp	x1, 0x40119000
    40104ba4:	b00000a2 	adrp	x2, 0x40119000
    40104ba8:	900000a4 	adrp	x4, 0x40118000
    40104bac:	900000a5 	adrp	x5, 0x40118000
    40104bb0:	91040821 	add	x1, x1, #0x102
    40104bb4:	91042c42 	add	x2, x2, #0x10b
    40104bb8:	912c6c84 	add	x4, x4, #0xb1b
    40104bbc:	913c58a5 	add	x5, x5, #0xf16
    40104bc0:	528017e3 	mov	w3, #0xbf                  	// #191
    40104bc4:	94003dd1 	bl	0x40114308
    40104bc8:	52800060 	mov	w0, #0x3                   	// #3
    40104bcc:	97fff91f 	bl	0x40103048
    40104bd0:	d101c3ff 	sub	sp, sp, #0x70
    40104bd4:	a9017bfd 	stp	x29, x30, [sp, #16]
    40104bd8:	a9026ffc 	stp	x28, x27, [sp, #32]
    40104bdc:	a90367fa 	stp	x26, x25, [sp, #48]
    40104be0:	a9045ff8 	stp	x24, x23, [sp, #64]
    40104be4:	a90557f6 	stp	x22, x21, [sp, #80]
    40104be8:	a9064ff4 	stp	x20, x19, [sp, #96]
    40104bec:	910043fd 	add	x29, sp, #0x10
    40104bf0:	900000dc 	adrp	x28, 0x4011c000
    40104bf4:	f9405780 	ldr	x0, [x28, #168]
    40104bf8:	f00000b3 	adrp	x19, 0x4011b000
    40104bfc:	9104c273 	add	x19, x19, #0x130
    40104c00:	d10013a3 	sub	x3, x29, #0x4
    40104c04:	12800001 	mov	w1, #0xffffffff            	// #-1
    40104c08:	aa1303e2 	mov	x2, x19
    40104c0c:	b81fc3bf 	stur	wzr, [x29, #-4]
    40104c10:	9400086c 	bl	0x40106dc0
    40104c14:	37f80a20 	tbnz	w0, #31, 0x40104d58
    40104c18:	b00000b6 	adrp	x22, 0x40119000
    40104c1c:	2a0003f4 	mov	w20, w0
    40104c20:	12800258 	mov	w24, #0xffffffed            	// #-19
    40104c24:	f00000b9 	adrp	x25, 0x4011b000
    40104c28:	f00000b7 	adrp	x23, 0x4011b000
    40104c2c:	91042ed6 	add	x22, x22, #0x10b
    40104c30:	f9408320 	ldr	x0, [x25, #256]
    40104c34:	b4000960 	cbz	x0, 0x40104d60
    40104c38:	f9400408 	ldr	x8, [x0, #8]
    40104c3c:	52800021 	mov	w1, #0x1                   	// #1
    40104c40:	52800702 	mov	w2, #0x38                  	// #56
    40104c44:	d63f0100 	blr	x8
    40104c48:	b4000920 	cbz	x0, 0x40104d6c
    40104c4c:	b9002414 	str	w20, [x0, #36]
    40104c50:	f94086f5 	ldr	x21, [x23, #264]
    40104c54:	aa0003fa 	mov	x26, x0
    40104c58:	b4000675 	cbz	x21, 0x40104d24
    40104c5c:	b89fc3a8 	ldursw	x8, [x29, #-4]
    40104c60:	f8687a7b 	ldr	x27, [x19, x8, lsl #3]
    40104c64:	14000003 	b	0x40104c70
    40104c68:	f94002b5 	ldr	x21, [x21]
    40104c6c:	b40005d5 	cbz	x21, 0x40104d24
    40104c70:	f9401aa8 	ldr	x8, [x21, #48]
    40104c74:	b4ffffa8 	cbz	x8, 0x40104c68
    40104c78:	aa1b03e0 	mov	x0, x27
    40104c7c:	d63f0100 	blr	x8
    40104c80:	121f3808 	and	w8, w0, #0xfffe
    40104c84:	7104011f 	cmp	w8, #0x100
    40104c88:	54ffff01 	b.ne	0x40104c68  // b.any
    40104c8c:	f9400aa8 	ldr	x8, [x21, #16]
    40104c90:	79400108 	ldrh	w8, [x8]
    40104c94:	6b20211f 	cmp	w8, w0, uxth
    40104c98:	54fffe81 	b.ne	0x40104c68  // b.any
    40104c9c:	79002340 	strh	w0, [x26, #16]
    40104ca0:	f94012a8 	ldr	x8, [x21, #32]
    40104ca4:	b4000a28 	cbz	x8, 0x40104de8
    40104ca8:	aa1a03e0 	mov	x0, x26
    40104cac:	d63f0100 	blr	x8
    40104cb0:	37f80280 	tbnz	w0, #31, 0x40104d00
    40104cb4:	f94016a8 	ldr	x8, [x21, #40]
    40104cb8:	b4000ac8 	cbz	x8, 0x40104e10
    40104cbc:	aa1a03e0 	mov	x0, x26
    40104cc0:	d63f0100 	blr	x8
    40104cc4:	2a0003f8 	mov	w24, w0
    40104cc8:	36f80180 	tbz	w0, #31, 0x40104cf8
    40104ccc:	31004f1f 	cmn	w24, #0x13
    40104cd0:	54000140 	b.eq	0x40104cf8  // b.none
    40104cd4:	b00000a1 	adrp	x1, 0x40119000
    40104cd8:	b00000a4 	adrp	x4, 0x40119000
    40104cdc:	52800020 	mov	w0, #0x1                   	// #1
    40104ce0:	52800d83 	mov	w3, #0x6c                  	// #108
    40104ce4:	91040821 	add	x1, x1, #0x102
    40104ce8:	aa1603e2 	mov	x2, x22
    40104cec:	91070484 	add	x4, x4, #0x1c1
    40104cf0:	2a1803e5 	mov	w5, w24
    40104cf4:	94003d85 	bl	0x40114308
    40104cf8:	36f80218 	tbz	w24, #31, 0x40104d38
    40104cfc:	1400000a 	b	0x40104d24
    40104d00:	b00000a1 	adrp	x1, 0x40119000
    40104d04:	b00000a4 	adrp	x4, 0x40119000
    40104d08:	2a0003f8 	mov	w24, w0
    40104d0c:	52800020 	mov	w0, #0x1                   	// #1
    40104d10:	52800fa3 	mov	w3, #0x7d                  	// #125
    40104d14:	91040821 	add	x1, x1, #0x102
    40104d18:	aa1603e2 	mov	x2, x22
    40104d1c:	91066484 	add	x4, x4, #0x199
    40104d20:	94003d7a 	bl	0x40114308
    40104d24:	f9408320 	ldr	x0, [x25, #256]
    40104d28:	b4000480 	cbz	x0, 0x40104db8
    40104d2c:	f9401408 	ldr	x8, [x0, #40]
    40104d30:	aa1a03e1 	mov	x1, x26
    40104d34:	d63f0100 	blr	x8
    40104d38:	f9405780 	ldr	x0, [x28, #168]
    40104d3c:	d10013a3 	sub	x3, x29, #0x4
    40104d40:	2a1403e1 	mov	w1, w20
    40104d44:	aa1303e2 	mov	x2, x19
    40104d48:	9400081e 	bl	0x40106dc0
    40104d4c:	2a0003f4 	mov	w20, w0
    40104d50:	36fff700 	tbz	w0, #31, 0x40104c30
    40104d54:	14000010 	b	0x40104d94
    40104d58:	12800258 	mov	w24, #0xffffffed            	// #-19
    40104d5c:	1400000e 	b	0x40104d94
    40104d60:	9400228d 	bl	0x4010d794
    40104d64:	52800188 	mov	w8, #0xc                   	// #12
    40104d68:	b9000008 	str	w8, [x0]
    40104d6c:	b00000a1 	adrp	x1, 0x40119000
    40104d70:	b00000a2 	adrp	x2, 0x40119000
    40104d74:	b00000a4 	adrp	x4, 0x40119000
    40104d78:	91040821 	add	x1, x1, #0x102
    40104d7c:	91042c42 	add	x2, x2, #0x10b
    40104d80:	91050484 	add	x4, x4, #0x141
    40104d84:	52800020 	mov	w0, #0x1                   	// #1
    40104d88:	52801363 	mov	w3, #0x9b                  	// #155
    40104d8c:	94003d5f 	bl	0x40114308
    40104d90:	12800178 	mov	w24, #0xfffffff4            	// #-12
    40104d94:	2a1803e0 	mov	w0, w24
    40104d98:	a9464ff4 	ldp	x20, x19, [sp, #96]
    40104d9c:	a94557f6 	ldp	x22, x21, [sp, #80]
    40104da0:	a9445ff8 	ldp	x24, x23, [sp, #64]
    40104da4:	a94367fa 	ldp	x26, x25, [sp, #48]
    40104da8:	a9426ffc 	ldp	x28, x27, [sp, #32]
    40104dac:	a9417bfd 	ldp	x29, x30, [sp, #16]
    40104db0:	9101c3ff 	add	sp, sp, #0x70
    40104db4:	d65f03c0 	ret
    40104db8:	b00000a1 	adrp	x1, 0x40119000
    40104dbc:	b00000a2 	adrp	x2, 0x40119000
    40104dc0:	900000a4 	adrp	x4, 0x40118000
    40104dc4:	d00000a5 	adrp	x5, 0x4011a000
    40104dc8:	91040821 	add	x1, x1, #0x102
    40104dcc:	91042c42 	add	x2, x2, #0x10b
    40104dd0:	912c6c84 	add	x4, x4, #0xb1b
    40104dd4:	912cf4a5 	add	x5, x5, #0xb3d
    40104dd8:	52801c63 	mov	w3, #0xe3                  	// #227
    40104ddc:	94003d4b 	bl	0x40114308
    40104de0:	52800060 	mov	w0, #0x3                   	// #3
    40104de4:	97fff899 	bl	0x40103048
    40104de8:	b00000a1 	adrp	x1, 0x40119000
    40104dec:	b00000a2 	adrp	x2, 0x40119000
    40104df0:	900000a4 	adrp	x4, 0x40118000
    40104df4:	b00000a5 	adrp	x5, 0x40119000
    40104df8:	91040821 	add	x1, x1, #0x102
    40104dfc:	91042c42 	add	x2, x2, #0x10b
    40104e00:	912c6c84 	add	x4, x4, #0xb1b
    40104e04:	9105f8a5 	add	x5, x5, #0x17e
    40104e08:	52800ee3 	mov	w3, #0x77                  	// #119
    40104e0c:	1400000a 	b	0x40104e34
    40104e10:	b00000a1 	adrp	x1, 0x40119000
    40104e14:	b00000a2 	adrp	x2, 0x40119000
    40104e18:	900000a4 	adrp	x4, 0x40118000
    40104e1c:	900000a5 	adrp	x5, 0x40118000
    40104e20:	91040821 	add	x1, x1, #0x102
    40104e24:	91042c42 	add	x2, x2, #0x10b
    40104e28:	912c6c84 	add	x4, x4, #0xb1b
    40104e2c:	913bdca5 	add	x5, x5, #0xef7
    40104e30:	52800ca3 	mov	w3, #0x65                  	// #101
    40104e34:	2a1f03e0 	mov	w0, wzr
    40104e38:	17ffffe9 	b	0x40104ddc
    40104e3c:	a9bd7bfd 	stp	x29, x30, [sp, #-48]!
    40104e40:	f9000bf5 	str	x21, [sp, #16]
    40104e44:	a9024ff4 	stp	x20, x19, [sp, #32]
    40104e48:	910003fd 	mov	x29, sp
    40104e4c:	b4000ea0 	cbz	x0, 0x40105020
    40104e50:	f00000a8 	adrp	x8, 0x4011b000
    40104e54:	f940a514 	ldr	x20, [x8, #328]
    40104e58:	aa0003f3 	mov	x19, x0
    40104e5c:	b5000094 	cbnz	x20, 0x40104e6c
    40104e60:	1400003d 	b	0x40104f54
    40104e64:	f9400294 	ldr	x20, [x20]
    40104e68:	b4000774 	cbz	x20, 0x40104f54
    40104e6c:	f9400a8a 	ldr	x10, [x20, #16]
    40104e70:	79400149 	ldrh	w9, [x10]
    40104e74:	34ffff89 	cbz	w9, 0x40104e64
    40104e78:	79404268 	ldrh	w8, [x19, #32]
    40104e7c:	9100094a 	add	x10, x10, #0x2
    40104e80:	6b29211f 	cmp	w8, w9, uxth
    40104e84:	54000080 	b.eq	0x40104e94  // b.none
    40104e88:	78402549 	ldrh	w9, [x10], #2
    40104e8c:	35ffffa9 	cbnz	w9, 0x40104e80
    40104e90:	17fffff5 	b	0x40104e64
    40104e94:	b4000614 	cbz	x20, 0x40104f54
    40104e98:	f9401668 	ldr	x8, [x19, #40]
    40104e9c:	f9001a74 	str	x20, [x19, #48]
    40104ea0:	f9400109 	ldr	x9, [x8]
    40104ea4:	b40000a9 	cbz	x9, 0x40104eb8
    40104ea8:	aa1303e0 	mov	x0, x19
    40104eac:	d63f0120 	blr	x9
    40104eb0:	f9401668 	ldr	x8, [x19, #40]
    40104eb4:	b9003a7f 	str	wzr, [x19, #56]
    40104eb8:	f9401908 	ldr	x8, [x8, #48]
    40104ebc:	b40006e8 	cbz	x8, 0x40104f98
    40104ec0:	52800021 	mov	w1, #0x1                   	// #1
    40104ec4:	aa1303e0 	mov	x0, x19
    40104ec8:	52800035 	mov	w21, #0x1                   	// #1
    40104ecc:	d63f0100 	blr	x8
    40104ed0:	f9401668 	ldr	x8, [x19, #40]
    40104ed4:	f9401908 	ldr	x8, [x8, #48]
    40104ed8:	b4000728 	cbz	x8, 0x40104fbc
    40104edc:	52800041 	mov	w1, #0x2                   	// #2
    40104ee0:	aa1303e0 	mov	x0, x19
    40104ee4:	d63f0100 	blr	x8
    40104ee8:	aa1303e8 	mov	x8, x19
    40104eec:	b9003a75 	str	w21, [x19, #56]
    40104ef0:	f8008d1f 	str	xzr, [x8, #8]!
    40104ef4:	f9000a68 	str	x8, [x19, #16]
    40104ef8:	f9401288 	ldr	x8, [x20, #32]
    40104efc:	aa1303e0 	mov	x0, x19
    40104f00:	d63f0100 	blr	x8
    40104f04:	2a0003f4 	mov	w20, w0
    40104f08:	340003e0 	cbz	w0, 0x40104f84
    40104f0c:	b00000a1 	adrp	x1, 0x40119000
    40104f10:	b00000a2 	adrp	x2, 0x40119000
    40104f14:	b00000a4 	adrp	x4, 0x40119000
    40104f18:	9107dc21 	add	x1, x1, #0x1f7
    40104f1c:	91081042 	add	x2, x2, #0x204
    40104f20:	910a2084 	add	x4, x4, #0x288
    40104f24:	52800020 	mov	w0, #0x1                   	// #1
    40104f28:	52801403 	mov	w3, #0xa0                  	// #160
    40104f2c:	aa1303e5 	mov	x5, x19
    40104f30:	2a1403e6 	mov	w6, w20
    40104f34:	94003cf5 	bl	0x40114308
    40104f38:	f9401668 	ldr	x8, [x19, #40]
    40104f3c:	f9401908 	ldr	x8, [x8, #48]
    40104f40:	b4000228 	cbz	x8, 0x40104f84
    40104f44:	52801001 	mov	w1, #0x80                  	// #128
    40104f48:	aa1303e0 	mov	x0, x19
    40104f4c:	d63f0100 	blr	x8
    40104f50:	1400000d 	b	0x40104f84
    40104f54:	79404266 	ldrh	w6, [x19, #32]
    40104f58:	b00000a1 	adrp	x1, 0x40119000
    40104f5c:	b00000a2 	adrp	x2, 0x40119000
    40104f60:	b00000a4 	adrp	x4, 0x40119000
    40104f64:	9107dc21 	add	x1, x1, #0x1f7
    40104f68:	91081042 	add	x2, x2, #0x204
    40104f6c:	91085884 	add	x4, x4, #0x216
    40104f70:	52800020 	mov	w0, #0x1                   	// #1
    40104f74:	528011a3 	mov	w3, #0x8d                  	// #141
    40104f78:	aa1303e5 	mov	x5, x19
    40104f7c:	94003ce3 	bl	0x40114308
    40104f80:	128001b4 	mov	w20, #0xfffffff2            	// #-14
    40104f84:	2a1403e0 	mov	w0, w20
    40104f88:	a9424ff4 	ldp	x20, x19, [sp, #32]
    40104f8c:	f9400bf5 	ldr	x21, [sp, #16]
    40104f90:	a8c37bfd 	ldp	x29, x30, [sp], #48
    40104f94:	d65f03c0 	ret
    40104f98:	b00000a1 	adrp	x1, 0x40119000
    40104f9c:	b00000a2 	adrp	x2, 0x40119000
    40104fa0:	b00000a4 	adrp	x4, 0x40119000
    40104fa4:	9107dc21 	add	x1, x1, #0x1f7
    40104fa8:	91081042 	add	x2, x2, #0x204
    40104fac:	910ac084 	add	x4, x4, #0x2b0
    40104fb0:	52800020 	mov	w0, #0x1                   	// #1
    40104fb4:	52800e63 	mov	w3, #0x73                  	// #115
    40104fb8:	14000009 	b	0x40104fdc
    40104fbc:	b00000a1 	adrp	x1, 0x40119000
    40104fc0:	b00000a2 	adrp	x2, 0x40119000
    40104fc4:	b00000a4 	adrp	x4, 0x40119000
    40104fc8:	9107dc21 	add	x1, x1, #0x1f7
    40104fcc:	91081042 	add	x2, x2, #0x204
    40104fd0:	910b8084 	add	x4, x4, #0x2e0
    40104fd4:	52800020 	mov	w0, #0x1                   	// #1
    40104fd8:	52800f63 	mov	w3, #0x7b                  	// #123
    40104fdc:	12800c06 	mov	w6, #0xffffff9f            	// #-97
    40104fe0:	aa1303e5 	mov	x5, x19
    40104fe4:	94003cc9 	bl	0x40114308
    40104fe8:	79404266 	ldrh	w6, [x19, #32]
    40104fec:	b00000a1 	adrp	x1, 0x40119000
    40104ff0:	b00000a2 	adrp	x2, 0x40119000
    40104ff4:	b00000a4 	adrp	x4, 0x40119000
    40104ff8:	9107dc21 	add	x1, x1, #0x1f7
    40104ffc:	91081042 	add	x2, x2, #0x204
    40105000:	91094884 	add	x4, x4, #0x252
    40105004:	52800020 	mov	w0, #0x1                   	// #1
    40105008:	528012c3 	mov	w3, #0x96                  	// #150
    4010500c:	12800c07 	mov	w7, #0xffffff9f            	// #-97
    40105010:	aa1303e5 	mov	x5, x19
    40105014:	12800c14 	mov	w20, #0xffffff9f            	// #-97
    40105018:	94003cbc 	bl	0x40114308
    4010501c:	17ffffda 	b	0x40104f84
    40105020:	900000a1 	adrp	x1, 0x40119000
    40105024:	900000a2 	adrp	x2, 0x40119000
    40105028:	f0000084 	adrp	x4, 0x40118000
    4010502c:	900000a5 	adrp	x5, 0x40119000
    40105030:	9107dc21 	add	x1, x1, #0x1f7
    40105034:	91081042 	add	x2, x2, #0x204
    40105038:	912c6c84 	add	x4, x4, #0xb1b
    4010503c:	910844a5 	add	x5, x5, #0x211
    40105040:	52801103 	mov	w3, #0x88                  	// #136
    40105044:	94003cb1 	bl	0x40114308
    40105048:	52800060 	mov	w0, #0x3                   	// #3
    4010504c:	97fff7ff 	bl	0x40103048
    40105050:	f900001f 	str	xzr, [x0]
    40105054:	d00000a8 	adrp	x8, 0x4011b000
    40105058:	f940a909 	ldr	x9, [x8, #336]
    4010505c:	f9000409 	str	x9, [x0, #8]
    40105060:	f9000120 	str	x0, [x9]
    40105064:	f900a900 	str	x0, [x8, #336]
    40105068:	d65f03c0 	ret
    4010506c:	d00000a0 	adrp	x0, 0x4011b000
    40105070:	91056000 	add	x0, x0, #0x158
    40105074:	14003b08 	b	0x40113c94
    40105078:	a9bb7bfd 	stp	x29, x30, [sp, #-80]!
    4010507c:	a90167fa 	stp	x26, x25, [sp, #16]
    40105080:	a9025ff8 	stp	x24, x23, [sp, #32]
    40105084:	a90357f6 	stp	x22, x21, [sp, #48]
    40105088:	a9044ff4 	stp	x20, x19, [sp, #64]
    4010508c:	910003fd 	mov	x29, sp
    40105090:	d00000a8 	adrp	x8, 0x4011b000
    40105094:	f940a519 	ldr	x25, [x8, #328]
    40105098:	f00001b7 	adrp	x23, 0x4013c000
    4010509c:	f901a6e0 	str	x0, [x23, #840]
    401050a0:	b40004d9 	cbz	x25, 0x40105138
    401050a4:	900000b3 	adrp	x19, 0x40119000
    401050a8:	900000b4 	adrp	x20, 0x40119000
    401050ac:	900000b5 	adrp	x21, 0x40119000
    401050b0:	2a1f03f8 	mov	w24, wzr
    401050b4:	9107de73 	add	x19, x19, #0x1f7
    401050b8:	91081294 	add	x20, x20, #0x204
    401050bc:	910c42b5 	add	x21, x21, #0x310
    401050c0:	d00000ba 	adrp	x26, 0x4011b000
    401050c4:	14000003 	b	0x401050d0
    401050c8:	11000718 	add	w24, w24, #0x1
    401050cc:	b4000339 	cbz	x25, 0x40105130
    401050d0:	aa1903f6 	mov	x22, x25
    401050d4:	f9400f28 	ldr	x8, [x25, #24]
    401050d8:	f9400339 	ldr	x25, [x25]
    401050dc:	b4ffff88 	cbz	x8, 0x401050cc
    401050e0:	f941a6e0 	ldr	x0, [x23, #840]
    401050e4:	d63f0100 	blr	x8
    401050e8:	34ffff00 	cbz	w0, 0x401050c8
    401050ec:	2a0003e6 	mov	w6, w0
    401050f0:	52800020 	mov	w0, #0x1                   	// #1
    401050f4:	52801963 	mov	w3, #0xcb                  	// #203
    401050f8:	aa1303e1 	mov	x1, x19
    401050fc:	aa1403e2 	mov	x2, x20
    40105100:	aa1503e4 	mov	x4, x21
    40105104:	aa1603e5 	mov	x5, x22
    40105108:	94003c80 	bl	0x40114308
    4010510c:	a94026c8 	ldp	x8, x9, [x22]
    40105110:	b40000a8 	cbz	x8, 0x40105124
    40105114:	f9000509 	str	x9, [x8, #8]
    40105118:	f94006c9 	ldr	x9, [x22, #8]
    4010511c:	f9000128 	str	x8, [x9]
    40105120:	17ffffeb 	b	0x401050cc
    40105124:	f900ab49 	str	x9, [x26, #336]
    40105128:	f9000128 	str	x8, [x9]
    4010512c:	17ffffe8 	b	0x401050cc
    40105130:	0ab87f00 	bic	w0, w24, w24, asr #31
    40105134:	14000002 	b	0x4010513c
    40105138:	2a1f03e0 	mov	w0, wzr
    4010513c:	a9444ff4 	ldp	x20, x19, [sp, #64]
    40105140:	a94357f6 	ldp	x22, x21, [sp, #48]
    40105144:	a9425ff8 	ldp	x24, x23, [sp, #32]
    40105148:	a94167fa 	ldp	x26, x25, [sp, #16]
    4010514c:	a8c57bfd 	ldp	x29, x30, [sp], #80
    40105150:	d65f03c0 	ret
    40105154:	2a1f03e0 	mov	w0, wzr
    40105158:	d65f03c0 	ret
    4010515c:	a9bf7bfd 	stp	x29, x30, [sp, #-16]!
    40105160:	910003fd 	mov	x29, sp
    40105164:	b40000e0 	cbz	x0, 0x40105180
    40105168:	f9402408 	ldr	x8, [x0, #72]
    4010516c:	79400109 	ldrh	w9, [x8]
    40105170:	32000129 	orr	w9, w9, #0x1
    40105174:	79000109 	strh	w9, [x8]
    40105178:	a8c17bfd 	ldp	x29, x30, [sp], #16
    4010517c:	d65f03c0 	ret
    40105180:	900000a1 	adrp	x1, 0x40119000
    40105184:	900000a2 	adrp	x2, 0x40119000
    40105188:	f0000084 	adrp	x4, 0x40118000
    4010518c:	900000a5 	adrp	x5, 0x40119000
    40105190:	9107dc21 	add	x1, x1, #0x1f7
    40105194:	910cec42 	add	x2, x2, #0x33b
    40105198:	912c6c84 	add	x4, x4, #0xb1b
    4010519c:	910d24a5 	add	x5, x5, #0x349
    401051a0:	52800be3 	mov	w3, #0x5f                  	// #95
    401051a4:	94003c59 	bl	0x40114308
    401051a8:	52800060 	mov	w0, #0x3                   	// #3
    401051ac:	97fff7a7 	bl	0x40103048
    401051b0:	a9bf7bfd 	stp	x29, x30, [sp, #-16]!
    401051b4:	910003fd 	mov	x29, sp
    401051b8:	b4000340 	cbz	x0, 0x40105220
    401051bc:	f9402808 	ldr	x8, [x0, #80]
    401051c0:	7940c809 	ldrh	w9, [x0, #100]
    401051c4:	79400508 	ldrh	w8, [x8, #2]
    401051c8:	6b08013f 	cmp	w9, w8
    401051cc:	54000241 	b.ne	0x40105214  // b.any
    401051d0:	f9402408 	ldr	x8, [x0, #72]
    401051d4:	79400109 	ldrh	w9, [x8]
    401051d8:	121f3929 	and	w9, w9, #0xfffe
    401051dc:	79000109 	strh	w9, [x8]
    401051e0:	d5033f9f 	dsb	sy
    401051e4:	f9402808 	ldr	x8, [x0, #80]
    401051e8:	7940c809 	ldrh	w9, [x0, #100]
    401051ec:	79400508 	ldrh	w8, [x8, #2]
    401051f0:	6b08013f 	cmp	w9, w8
    401051f4:	54000081 	b.ne	0x40105204  // b.any
    401051f8:	2a1f03e0 	mov	w0, wzr
    401051fc:	a8c17bfd 	ldp	x29, x30, [sp], #16
    40105200:	d65f03c0 	ret
    40105204:	f9402408 	ldr	x8, [x0, #72]
    40105208:	79400109 	ldrh	w9, [x8]
    4010520c:	32000129 	orr	w9, w9, #0x1
    40105210:	79000109 	strh	w9, [x8]
    40105214:	52800020 	mov	w0, #0x1                   	// #1
    40105218:	a8c17bfd 	ldp	x29, x30, [sp], #16
    4010521c:	d65f03c0 	ret
    40105220:	900000a1 	adrp	x1, 0x40119000
    40105224:	900000a2 	adrp	x2, 0x40119000
    40105228:	f0000084 	adrp	x4, 0x40118000
    4010522c:	900000a5 	adrp	x5, 0x40119000
    40105230:	9107dc21 	add	x1, x1, #0x1f7
    40105234:	910cec42 	add	x2, x2, #0x33b
    40105238:	912c6c84 	add	x4, x4, #0xb1b
    4010523c:	910d24a5 	add	x5, x5, #0x349
    40105240:	52800d43 	mov	w3, #0x6a                  	// #106
    40105244:	94003c31 	bl	0x40114308
    40105248:	52800060 	mov	w0, #0x3                   	// #3
    4010524c:	97fff77f 	bl	0x40103048
    40105250:	a9bf7bfd 	stp	x29, x30, [sp, #-16]!
    40105254:	910003fd 	mov	x29, sp
    40105258:	b4000100 	cbz	x0, 0x40105278
    4010525c:	f9402808 	ldr	x8, [x0, #80]
    40105260:	7940c809 	ldrh	w9, [x0, #100]
    40105264:	79400508 	ldrh	w8, [x8, #2]
    40105268:	6b08013f 	cmp	w9, w8
    4010526c:	1a9f07e0 	cset	w0, ne  // ne = any
    40105270:	a8c17bfd 	ldp	x29, x30, [sp], #16
    40105274:	d65f03c0 	ret
    40105278:	900000a1 	adrp	x1, 0x40119000
    4010527c:	900000a2 	adrp	x2, 0x40119000
    40105280:	f0000084 	adrp	x4, 0x40118000
    40105284:	900000a5 	adrp	x5, 0x40119000
    40105288:	9107dc21 	add	x1, x1, #0x1f7
    4010528c:	910cec42 	add	x2, x2, #0x33b
    40105290:	912c6c84 	add	x4, x4, #0xb1b
    40105294:	910d24a5 	add	x5, x5, #0x349
    40105298:	52801b83 	mov	w3, #0xdc                  	// #220
    4010529c:	94003c1b 	bl	0x40114308
    401052a0:	52800060 	mov	w0, #0x3                   	// #3
    401052a4:	97fff769 	bl	0x40103048
    401052a8:	a9bf7bfd 	stp	x29, x30, [sp, #-16]!
    401052ac:	910003fd 	mov	x29, sp
    401052b0:	b40000e0 	cbz	x0, 0x401052cc
    401052b4:	f9402808 	ldr	x8, [x0, #80]
    401052b8:	79400108 	ldrh	w8, [x8]
    401052bc:	2a2803e8 	mvn	w8, w8
    401052c0:	12000100 	and	w0, w8, #0x1
    401052c4:	a8c17bfd 	ldp	x29, x30, [sp], #16
    401052c8:	d65f03c0 	ret
    401052cc:	900000a1 	adrp	x1, 0x40119000
    401052d0:	900000a2 	adrp	x2, 0x40119000
    401052d4:	f0000084 	adrp	x4, 0x40118000
    401052d8:	900000a5 	adrp	x5, 0x40119000
    401052dc:	9107dc21 	add	x1, x1, #0x1f7
    401052e0:	910cec42 	add	x2, x2, #0x33b
    401052e4:	912c6c84 	add	x4, x4, #0xb1b
    401052e8:	910d24a5 	add	x5, x5, #0x349
    401052ec:	52801703 	mov	w3, #0xb8                  	// #184
    401052f0:	94003c06 	bl	0x40114308
    401052f4:	52800060 	mov	w0, #0x3                   	// #3
    401052f8:	97fff754 	bl	0x40103048
    401052fc:	92406c00 	and	x0, x0, #0xfffffff
    40105300:	d65f03c0 	ret
    40105304:	a9bf7bfd 	stp	x29, x30, [sp, #-16]!
    40105308:	910003fd 	mov	x29, sp
    4010530c:	b40001c0 	cbz	x0, 0x40105344
    40105310:	f9402808 	ldr	x8, [x0, #80]
    40105314:	7940c809 	ldrh	w9, [x0, #100]
    40105318:	79400508 	ldrh	w8, [x8, #2]
    4010531c:	6b08013f 	cmp	w9, w8
    40105320:	54000081 	b.ne	0x40105330  // b.any
    40105324:	2a1f03e0 	mov	w0, wzr
    40105328:	a8c17bfd 	ldp	x29, x30, [sp], #16
    4010532c:	d65f03c0 	ret
    40105330:	f9400c02 	ldr	x2, [x0, #24]
    40105334:	b4ffff82 	cbz	x2, 0x40105324
    40105338:	f9401801 	ldr	x1, [x0, #48]
    4010533c:	a8c17bfd 	ldp	x29, x30, [sp], #16
    40105340:	d61f0040 	br	x2
    40105344:	900000a1 	adrp	x1, 0x40119000
    40105348:	900000a2 	adrp	x2, 0x40119000
    4010534c:	f0000084 	adrp	x4, 0x40118000
    40105350:	900000a5 	adrp	x5, 0x40119000
    40105354:	9107dc21 	add	x1, x1, #0x1f7
    40105358:	910cec42 	add	x2, x2, #0x33b
    4010535c:	912c6c84 	add	x4, x4, #0xb1b
    40105360:	910d24a5 	add	x5, x5, #0x349
    40105364:	52801e63 	mov	w3, #0xf3                  	// #243
    40105368:	94003be8 	bl	0x40114308
    4010536c:	52800060 	mov	w0, #0x3                   	// #3
    40105370:	97fff736 	bl	0x40103048
    40105374:	a9bf7bfd 	stp	x29, x30, [sp, #-16]!
    40105378:	910003fd 	mov	x29, sp
    4010537c:	b4000080 	cbz	x0, 0x4010538c
    40105380:	f9402c00 	ldr	x0, [x0, #88]
    40105384:	a8c17bfd 	ldp	x29, x30, [sp], #16
    40105388:	17fff8c8 	b	0x401036a8
    4010538c:	900000a1 	adrp	x1, 0x40119000
    40105390:	900000a2 	adrp	x2, 0x40119000
    40105394:	f0000084 	adrp	x4, 0x40118000
    40105398:	900000a5 	adrp	x5, 0x40119000
    4010539c:	9107dc21 	add	x1, x1, #0x1f7
    401053a0:	910cec42 	add	x2, x2, #0x33b
    401053a4:	912c6c84 	add	x4, x4, #0xb1b
    401053a8:	910d24a5 	add	x5, x5, #0x349
    401053ac:	52802023 	mov	w3, #0x101                 	// #257
    401053b0:	94003bd6 	bl	0x40114308
    401053b4:	52800060 	mov	w0, #0x3                   	// #3
    401053b8:	97fff724 	bl	0x40103048
    401053bc:	a9be7bfd 	stp	x29, x30, [sp, #-32]!
    401053c0:	f9000bf3 	str	x19, [sp, #16]
    401053c4:	910003fd 	mov	x29, sp
    401053c8:	b4000140 	cbz	x0, 0x401053f0
    401053cc:	aa0003f3 	mov	x19, x0
    401053d0:	f9402c00 	ldr	x0, [x0, #88]
    401053d4:	97fff8b5 	bl	0x401036a8
    401053d8:	a9442269 	ldp	x9, x8, [x19, #64]
    401053dc:	f9400bf3 	ldr	x19, [sp, #16]
    401053e0:	8b000108 	add	x8, x8, x0
    401053e4:	cb090100 	sub	x0, x8, x9
    401053e8:	a8c27bfd 	ldp	x29, x30, [sp], #32
    401053ec:	d65f03c0 	ret
    401053f0:	900000a1 	adrp	x1, 0x40119000
    401053f4:	900000a2 	adrp	x2, 0x40119000
    401053f8:	f0000084 	adrp	x4, 0x40118000
    401053fc:	900000a5 	adrp	x5, 0x40119000
    40105400:	9107dc21 	add	x1, x1, #0x1f7
    40105404:	910cec42 	add	x2, x2, #0x33b
    40105408:	912c6c84 	add	x4, x4, #0xb1b
    4010540c:	910d24a5 	add	x5, x5, #0x349
    40105410:	52802163 	mov	w3, #0x10b                 	// #267
    40105414:	94003bbd 	bl	0x40114308
    40105418:	52800060 	mov	w0, #0x3                   	// #3
    4010541c:	97fff70b 	bl	0x40103048
    40105420:	a9be7bfd 	stp	x29, x30, [sp, #-32]!
    40105424:	f9000bf3 	str	x19, [sp, #16]
    40105428:	910003fd 	mov	x29, sp
    4010542c:	b4000160 	cbz	x0, 0x40105458
    40105430:	aa0003f3 	mov	x19, x0
    40105434:	f9402c00 	ldr	x0, [x0, #88]
    40105438:	97fff89c 	bl	0x401036a8
    4010543c:	f9402a68 	ldr	x8, [x19, #80]
    40105440:	f9402269 	ldr	x9, [x19, #64]
    40105444:	f9400bf3 	ldr	x19, [sp, #16]
    40105448:	8b000108 	add	x8, x8, x0
    4010544c:	cb090100 	sub	x0, x8, x9
    40105450:	a8c27bfd 	ldp	x29, x30, [sp], #32
    40105454:	d65f03c0 	ret
    40105458:	900000a1 	adrp	x1, 0x40119000
    4010545c:	900000a2 	adrp	x2, 0x40119000
    40105460:	f0000084 	adrp	x4, 0x40118000
    40105464:	900000a5 	adrp	x5, 0x40119000
    40105468:	9107dc21 	add	x1, x1, #0x1f7
    4010546c:	910cec42 	add	x2, x2, #0x33b
    40105470:	912c6c84 	add	x4, x4, #0xb1b
    40105474:	910d24a5 	add	x5, x5, #0x349
    40105478:	528022c3 	mov	w3, #0x116                 	// #278
    4010547c:	94003ba3 	bl	0x40114308
    40105480:	52800060 	mov	w0, #0x3                   	// #3
    40105484:	97fff6f1 	bl	0x40103048
    40105488:	a9bf7bfd 	stp	x29, x30, [sp, #-16]!
    4010548c:	910003fd 	mov	x29, sp
    40105490:	b4000080 	cbz	x0, 0x401054a0
    40105494:	b9403800 	ldr	w0, [x0, #56]
    40105498:	a8c17bfd 	ldp	x29, x30, [sp], #16
    4010549c:	d65f03c0 	ret
    401054a0:	900000a1 	adrp	x1, 0x40119000
    401054a4:	900000a2 	adrp	x2, 0x40119000
    401054a8:	f0000084 	adrp	x4, 0x40118000
    401054ac:	900000a5 	adrp	x5, 0x40119000
    401054b0:	9107dc21 	add	x1, x1, #0x1f7
    401054b4:	910cec42 	add	x2, x2, #0x33b
    401054b8:	912c6c84 	add	x4, x4, #0xb1b
    401054bc:	910d24a5 	add	x5, x5, #0x349
    401054c0:	52802423 	mov	w3, #0x121                 	// #289
    401054c4:	94003b91 	bl	0x40114308
    401054c8:	52800060 	mov	w0, #0x3                   	// #3
    401054cc:	97fff6df 	bl	0x40103048
    401054d0:	a9bf7bfd 	stp	x29, x30, [sp, #-16]!
    401054d4:	910003fd 	mov	x29, sp
    401054d8:	b4000780 	cbz	x0, 0x401055c8
    401054dc:	b40008a1 	cbz	x1, 0x401055f0
    401054e0:	f9402809 	ldr	x9, [x0, #80]
    401054e4:	7940c808 	ldrh	w8, [x0, #100]
    401054e8:	7940052a 	ldrh	w10, [x9, #2]
    401054ec:	6b0a011f 	cmp	w8, w10
    401054f0:	54000081 	b.ne	0x40105500  // b.any
    401054f4:	12800a40 	mov	w0, #0xffffffad            	// #-83
    401054f8:	a8c17bfd 	ldp	x29, x30, [sp], #16
    401054fc:	d65f03c0 	ret
    40105500:	7940700a 	ldrh	w10, [x0, #56]
    40105504:	1100050b 	add	w11, w8, #0x1
    40105508:	7900c80b 	strh	w11, [x0, #100]
    4010550c:	d5033d9f 	dsb	ld
    40105510:	5100054a 	sub	w10, w10, #0x1
    40105514:	0a08014a 	and	w10, w10, w8
    40105518:	8b2a4d28 	add	x8, x9, w10, uxtw #3
    4010551c:	79400908 	ldrh	w8, [x8, #4]
    40105520:	b4000082 	cbz	x2, 0x40105530
    40105524:	8b0a0d29 	add	x9, x9, x10, lsl #3
    40105528:	b9400929 	ldr	w9, [x9, #8]
    4010552c:	b9000049 	str	w9, [x2]
    40105530:	d37ced0c 	lsl	x12, x8, #4
    40105534:	8b0c000b 	add	x11, x0, x12
    40105538:	aa0b03e9 	mov	x9, x11
    4010553c:	f8468d2a 	ldr	x10, [x9, #104]!
    40105540:	f900002a 	str	x10, [x1]
    40105544:	f940200a 	ldr	x10, [x0, #64]
    40105548:	78470d6d 	ldrh	w13, [x11, #112]!
    4010554c:	7940c00e 	ldrh	w14, [x0, #96]
    40105550:	8b0c014f 	add	x15, x10, x12
    40105554:	0b0d01cc 	add	w12, w14, w13
    40105558:	7900c00c 	strh	w12, [x0, #96]
    4010555c:	7940016c 	ldrh	w12, [x11]
    40105560:	5100058c 	sub	w12, w12, #0x1
    40105564:	7900016c 	strh	w12, [x11]
    40105568:	394031ed 	ldrb	w13, [x15, #12]
    4010556c:	3700006d 	tbnz	w13, #0, 0x40105578
    40105570:	aa0803ed 	mov	x13, x8
    40105574:	14000009 	b	0x40105598
    40105578:	aa0803ed 	mov	x13, x8
    4010557c:	8b0d114d 	add	x13, x10, x13, lsl #4
    40105580:	79401dad 	ldrh	w13, [x13, #14]
    40105584:	5100058c 	sub	w12, w12, #0x1
    40105588:	8b0d114e 	add	x14, x10, x13, lsl #4
    4010558c:	394031ce 	ldrb	w14, [x14, #12]
    40105590:	3707ff6e 	tbnz	w14, #0, 0x4010557c
    40105594:	7900016c 	strh	w12, [x11]
    40105598:	72003d9f 	tst	w12, #0xffff
    4010559c:	540003e1 	b.ne	0x40105618  // b.any
    401055a0:	7940c40b 	ldrh	w11, [x0, #98]
    401055a4:	8b0d114a 	add	x10, x10, x13, lsl #4
    401055a8:	79001d4b 	strh	w11, [x10, #14]
    401055ac:	7900c408 	strh	w8, [x0, #98]
    401055b0:	f900013f 	str	xzr, [x9]
    401055b4:	b9403808 	ldr	w8, [x0, #56]
    401055b8:	7940c009 	ldrh	w9, [x0, #96]
    401055bc:	4b090100 	sub	w0, w8, w9
    401055c0:	a8c17bfd 	ldp	x29, x30, [sp], #16
    401055c4:	d65f03c0 	ret
    401055c8:	900000a1 	adrp	x1, 0x40119000
    401055cc:	900000a2 	adrp	x2, 0x40119000
    401055d0:	f0000084 	adrp	x4, 0x40118000
    401055d4:	900000a5 	adrp	x5, 0x40119000
    401055d8:	9107dc21 	add	x1, x1, #0x1f7
    401055dc:	910cec42 	add	x2, x2, #0x33b
    401055e0:	912c6c84 	add	x4, x4, #0xb1b
    401055e4:	910d24a5 	add	x5, x5, #0x349
    401055e8:	528025a3 	mov	w3, #0x12d                 	// #301
    401055ec:	14000015 	b	0x40105640
    401055f0:	900000a1 	adrp	x1, 0x40119000
    401055f4:	900000a2 	adrp	x2, 0x40119000
    401055f8:	f0000084 	adrp	x4, 0x40118000
    401055fc:	900000a5 	adrp	x5, 0x40119000
    40105600:	9107dc21 	add	x1, x1, #0x1f7
    40105604:	910cec42 	add	x2, x2, #0x33b
    40105608:	912c6c84 	add	x4, x4, #0xb1b
    4010560c:	910d30a5 	add	x5, x5, #0x34c
    40105610:	528025c3 	mov	w3, #0x12e                 	// #302
    40105614:	1400000a 	b	0x4010563c
    40105618:	900000a1 	adrp	x1, 0x40119000
    4010561c:	900000a2 	adrp	x2, 0x40119000
    40105620:	f0000084 	adrp	x4, 0x40118000
    40105624:	900000a5 	adrp	x5, 0x40119000
    40105628:	9107dc21 	add	x1, x1, #0x1f7
    4010562c:	910cec42 	add	x2, x2, #0x33b
    40105630:	912c6c84 	add	x4, x4, #0xb1b
    40105634:	910f88a5 	add	x5, x5, #0x3e2
    40105638:	528015a3 	mov	w3, #0xad                  	// #173
    4010563c:	2a1f03e0 	mov	w0, wzr
    40105640:	94003b32 	bl	0x40114308
    40105644:	52800060 	mov	w0, #0x3                   	// #3
    40105648:	97fff680 	bl	0x40103048
    4010564c:	a9bf7bfd 	stp	x29, x30, [sp, #-16]!
    40105650:	910003fd 	mov	x29, sp
    40105654:	b4000a80 	cbz	x0, 0x401057a4
    40105658:	12003c88 	and	w8, w4, #0xffff
    4010565c:	2b232106 	adds	w6, w8, w3, uxth
    40105660:	54000880 	b.eq	0x40105770  // b.none
    40105664:	b9403808 	ldr	w8, [x0, #56]
    40105668:	6b0800df 	cmp	w6, w8
    4010566c:	54000828 	b.hi	0x40105770  // b.pmore
    40105670:	7940c005 	ldrh	w5, [x0, #96]
    40105674:	6b0500df 	cmp	w6, w5
    40105678:	540001a9 	b.ls	0x401056ac  // b.plast
    4010567c:	900000a1 	adrp	x1, 0x40119000
    40105680:	900000a2 	adrp	x2, 0x40119000
    40105684:	900000a4 	adrp	x4, 0x40119000
    40105688:	9107dc21 	add	x1, x1, #0x1f7
    4010568c:	910cec42 	add	x2, x2, #0x33b
    40105690:	910dd084 	add	x4, x4, #0x374
    40105694:	52800020 	mov	w0, #0x1                   	// #1
    40105698:	52802ac3 	mov	w3, #0x156                 	// #342
    4010569c:	94003b1b 	bl	0x40114308
    401056a0:	12800360 	mov	w0, #0xffffffe4            	// #-28
    401056a4:	a8c17bfd 	ldp	x29, x30, [sp], #16
    401056a8:	d65f03c0 	ret
    401056ac:	b4000901 	cbz	x1, 0x401057cc
    401056b0:	7940c408 	ldrh	w8, [x0, #98]
    401056b4:	510004cc 	sub	w12, w6, #0x1
    401056b8:	aa1f03e9 	mov	x9, xzr
    401056bc:	aa1f03ea 	mov	x10, xzr
    401056c0:	8b08100d 	add	x13, x0, x8, lsl #4
    401056c4:	92403c6b 	and	x11, x3, #0xffff
    401056c8:	f90035a1 	str	x1, [x13, #104]
    401056cc:	7900e1a6 	strh	w6, [x13, #112]
    401056d0:	93407d8c 	sxtw	x12, w12
    401056d4:	2a0803ed 	mov	w13, w8
    401056d8:	f940004e 	ldr	x14, [x2]
    401056dc:	f940200f 	ldr	x15, [x0, #64]
    401056e0:	eb0b015f 	cmp	x10, x11
    401056e4:	1a9f37f0 	cset	w16, cs  // cs = hs, nlast
    401056e8:	8b0901ce 	add	x14, x14, x9
    401056ec:	8b2d31ef 	add	x15, x15, w13, uxth #4
    401056f0:	f94001cd 	ldr	x13, [x14]
    401056f4:	eb0c015f 	cmp	x10, x12
    401056f8:	9100054a 	add	x10, x10, #0x1
    401056fc:	1a9fa7f1 	cset	w17, lt  // lt = tstop
    40105700:	f90001ed 	str	x13, [x15]
    40105704:	f94005ce 	ldr	x14, [x14, #8]
    40105708:	79401ded 	ldrh	w13, [x15, #14]
    4010570c:	eb0a00df 	cmp	x6, x10
    40105710:	331f0211 	bfi	w17, w16, #1, #1
    40105714:	91004129 	add	x9, x9, #0x10
    40105718:	790019f1 	strh	w17, [x15, #12]
    4010571c:	b90009ee 	str	w14, [x15, #8]
    40105720:	54fffdc1 	b.ne	0x401056d8  // b.any
    40105724:	7940c009 	ldrh	w9, [x0, #96]
    40105728:	f940240a 	ldr	x10, [x0, #72]
    4010572c:	7900c40d 	strh	w13, [x0, #98]
    40105730:	4b060129 	sub	w9, w9, w6
    40105734:	7900c009 	strh	w9, [x0, #96]
    40105738:	79407009 	ldrh	w9, [x0, #56]
    4010573c:	7940054b 	ldrh	w11, [x10, #2]
    40105740:	51000529 	sub	w9, w9, #0x1
    40105744:	0a0b0129 	and	w9, w9, w11
    40105748:	8b292549 	add	x9, x10, w9, uxth #1
    4010574c:	79000928 	strh	w8, [x9, #4]
    40105750:	d5033e9f 	dsb	st
    40105754:	f9402408 	ldr	x8, [x0, #72]
    40105758:	79400509 	ldrh	w9, [x8, #2]
    4010575c:	11000529 	add	w9, w9, #0x1
    40105760:	79000509 	strh	w9, [x8, #2]
    40105764:	7940c000 	ldrh	w0, [x0, #96]
    40105768:	a8c17bfd 	ldp	x29, x30, [sp], #16
    4010576c:	d65f03c0 	ret
    40105770:	900000a1 	adrp	x1, 0x40119000
    40105774:	900000a2 	adrp	x2, 0x40119000
    40105778:	900000a4 	adrp	x4, 0x40119000
    4010577c:	9107dc21 	add	x1, x1, #0x1f7
    40105780:	910cec42 	add	x2, x2, #0x33b
    40105784:	910d4c84 	add	x4, x4, #0x353
    40105788:	52800020 	mov	w0, #0x1                   	// #1
    4010578c:	52802a43 	mov	w3, #0x152                 	// #338
    40105790:	2a0603e5 	mov	w5, w6
    40105794:	94003add 	bl	0x40114308
    40105798:	128002a0 	mov	w0, #0xffffffea            	// #-22
    4010579c:	a8c17bfd 	ldp	x29, x30, [sp], #16
    401057a0:	d65f03c0 	ret
    401057a4:	900000a1 	adrp	x1, 0x40119000
    401057a8:	900000a2 	adrp	x2, 0x40119000
    401057ac:	f0000084 	adrp	x4, 0x40118000
    401057b0:	900000a5 	adrp	x5, 0x40119000
    401057b4:	9107dc21 	add	x1, x1, #0x1f7
    401057b8:	910cec42 	add	x2, x2, #0x33b
    401057bc:	912c6c84 	add	x4, x4, #0xb1b
    401057c0:	910d24a5 	add	x5, x5, #0x349
    401057c4:	52802983 	mov	w3, #0x14c                 	// #332
    401057c8:	1400000b 	b	0x401057f4
    401057cc:	900000a1 	adrp	x1, 0x40119000
    401057d0:	900000a2 	adrp	x2, 0x40119000
    401057d4:	f0000084 	adrp	x4, 0x40118000
    401057d8:	900000a5 	adrp	x5, 0x40119000
    401057dc:	9107dc21 	add	x1, x1, #0x1f7
    401057e0:	910cec42 	add	x2, x2, #0x33b
    401057e4:	912c6c84 	add	x4, x4, #0xb1b
    401057e8:	910d30a5 	add	x5, x5, #0x34c
    401057ec:	52802b63 	mov	w3, #0x15b                 	// #347
    401057f0:	2a1f03e0 	mov	w0, wzr
    401057f4:	94003ac5 	bl	0x40114308
    401057f8:	52800060 	mov	w0, #0x3                   	// #3
    401057fc:	97fff613 	bl	0x40103048
    40105800:	d10203ff 	sub	sp, sp, #0x80
    40105804:	a9027bfd 	stp	x29, x30, [sp, #32]
    40105808:	a9036ffc 	stp	x28, x27, [sp, #48]
    4010580c:	a90467fa 	stp	x26, x25, [sp, #64]
    40105810:	a9055ff8 	stp	x24, x23, [sp, #80]
    40105814:	a90657f6 	stp	x22, x21, [sp, #96]
    40105818:	a9074ff4 	stp	x20, x19, [sp, #112]
    4010581c:	910083fd 	add	x29, sp, #0x20
    40105820:	b4000f86 	cbz	x6, 0x40105a10
    40105824:	2a0103f8 	mov	w24, w1
    40105828:	f94000c8 	ldr	x8, [x6]
    4010582c:	92403f1b 	and	x27, x24, #0xffff
    40105830:	d37cef7c 	lsl	x28, x27, #4
    40105834:	2a0003f7 	mov	w23, w0
    40105838:	9101a381 	add	x1, x28, #0x68
    4010583c:	aa0603e0 	mov	x0, x6
    40105840:	aa0603f9 	mov	x25, x6
    40105844:	aa0503f5 	mov	x21, x5
    40105848:	aa0403f4 	mov	x20, x4
    4010584c:	aa0303f6 	mov	x22, x3
    40105850:	2a0203fa 	mov	w26, w2
    40105854:	d63f0100 	blr	x8
    40105858:	b4000500 	cbz	x0, 0x401058f8
    4010585c:	f81f83b5 	stur	x21, [x29, #-8]
    40105860:	12003f15 	and	w21, w24, #0xffff
    40105864:	52800248 	mov	w8, #0x12                  	// #18
    40105868:	aa0003e1 	mov	x1, x0
    4010586c:	1b087ea8 	mul	w8, w21, w8
    40105870:	b9000ff7 	str	w23, [sp, #12]
    40105874:	aa1403f7 	mov	x23, x20
    40105878:	92403f54 	and	x20, x26, #0xffff
    4010587c:	f8058c3f 	str	xzr, [x1, #88]!
    40105880:	0b3a2108 	add	w8, w8, w26, uxth
    40105884:	f9000bf6 	str	x22, [sp, #16]
    40105888:	528000c9 	mov	w9, #0x6                   	// #6
    4010588c:	cb1403f6 	neg	x22, x20
    40105890:	f9400f2a 	ldr	x10, [x25, #24]
    40105894:	11001508 	add	w8, w8, #0x5
    40105898:	0a160108 	and	w8, w8, w22
    4010589c:	331d3f69 	bfi	w9, w27, #3, #16
    401058a0:	0b09011a 	add	w26, w8, w9
    401058a4:	aa0003f3 	mov	x19, x0
    401058a8:	52820002 	mov	w2, #0x1000                	// #4096
    401058ac:	aa1903e0 	mov	x0, x25
    401058b0:	aa1a03e3 	mov	x3, x26
    401058b4:	d63f0140 	blr	x10
    401058b8:	34000360 	cbz	w0, 0x40105924
    401058bc:	900000a1 	adrp	x1, 0x40119000
    401058c0:	900000a2 	adrp	x2, 0x40119000
    401058c4:	900000a4 	adrp	x4, 0x40119000
    401058c8:	9107dc21 	add	x1, x1, #0x1f7
    401058cc:	910cec42 	add	x2, x2, #0x33b
    401058d0:	910f1884 	add	x4, x4, #0x3c6
    401058d4:	52800020 	mov	w0, #0x1                   	// #1
    401058d8:	52803403 	mov	w3, #0x1a0                 	// #416
    401058dc:	94003a8b 	bl	0x40114308
    401058e0:	f9401728 	ldr	x8, [x25, #40]
    401058e4:	aa1903e0 	mov	x0, x25
    401058e8:	aa1303e1 	mov	x1, x19
    401058ec:	d63f0100 	blr	x8
    401058f0:	92800173 	mov	x19, #0xfffffffffffffff4    	// #-12
    401058f4:	1400003e 	b	0x401059ec
    401058f8:	900000a1 	adrp	x1, 0x40119000
    401058fc:	900000a2 	adrp	x2, 0x40119000
    40105900:	900000a4 	adrp	x4, 0x40119000
    40105904:	9107dc21 	add	x1, x1, #0x1f7
    40105908:	910cec42 	add	x2, x2, #0x33b
    4010590c:	910e9884 	add	x4, x4, #0x3a6
    40105910:	52800020 	mov	w0, #0x1                   	// #1
    40105914:	52803243 	mov	w3, #0x192                 	// #402
    40105918:	94003a7c 	bl	0x40114308
    4010591c:	92800173 	mov	x19, #0xfffffffffffffff4    	// #-12
    40105920:	14000033 	b	0x401059ec
    40105924:	f9402e60 	ldr	x0, [x19, #88]
    40105928:	2a1f03e1 	mov	w1, wzr
    4010592c:	aa1a03e2 	mov	x2, x26
    40105930:	9400258a 	bl	0x4010ef58
    40105934:	f9402e68 	ldr	x8, [x19, #88]
    40105938:	92403f09 	and	x9, x24, #0xffff
    4010593c:	71000abf 	cmp	w21, #0x2
    40105940:	d1000529 	sub	x9, x9, #0x1
    40105944:	8b1c010a 	add	x10, x8, x28
    40105948:	a9042a68 	stp	x8, x10, [x19, #64]
    4010594c:	8b1b054a 	add	x10, x10, x27, lsl #1
    40105950:	f85f83b0 	ldur	x16, [x29, #-8]
    40105954:	f9400bf1 	ldr	x17, [sp, #16]
    40105958:	b9400ff2 	ldr	w18, [sp, #12]
    4010595c:	8b14014a 	add	x10, x10, x20
    40105960:	91000d4a 	add	x10, x10, #0x3
    40105964:	8a16014a 	and	x10, x10, x22
    40105968:	b9003a75 	str	w21, [x19, #56]
    4010596c:	7900c278 	strh	w24, [x19, #96]
    40105970:	b806227f 	stur	wzr, [x19, #98]
    40105974:	f9002a6a 	str	x10, [x19, #80]
    40105978:	540002e3 	b.cc	0x401059d4  // b.lo, b.ul, b.last
    4010597c:	7100093f 	cmp	w9, #0x2
    40105980:	54000062 	b.cs	0x4010598c  // b.hs, b.nlast
    40105984:	aa1f03ea 	mov	x10, xzr
    40105988:	1400000d 	b	0x401059bc
    4010598c:	aa1f03eb 	mov	x11, xzr
    40105990:	927f792a 	and	x10, x9, #0xfffffffe
    40105994:	9100790c 	add	x12, x8, #0x1e
    40105998:	3200016d 	orr	w13, w11, #0x1
    4010599c:	1100096e 	add	w14, w11, #0x2
    401059a0:	9100096b 	add	x11, x11, #0x2
    401059a4:	781f018d 	sturh	w13, [x12, #-16]
    401059a8:	7802058e 	strh	w14, [x12], #32
    401059ac:	eb0b015f 	cmp	x10, x11
    401059b0:	54ffff41 	b.ne	0x40105998  // b.any
    401059b4:	eb09015f 	cmp	x10, x9
    401059b8:	540000e0 	b.eq	0x401059d4  // b.none
    401059bc:	8b0a110b 	add	x11, x8, x10, lsl #4
    401059c0:	9100396b 	add	x11, x11, #0xe
    401059c4:	9100054a 	add	x10, x10, #0x1
    401059c8:	eb0a013f 	cmp	x9, x10
    401059cc:	7801056a 	strh	w10, [x11], #16
    401059d0:	54ffffa1 	b.ne	0x401059c4  // b.any
    401059d4:	8b091108 	add	x8, x8, x9, lsl #4
    401059d8:	52900009 	mov	w9, #0x8000                	// #32768
    401059dc:	79001d09 	strh	w9, [x8, #14]
    401059e0:	79001272 	strh	w18, [x19, #8]
    401059e4:	f9000270 	str	x16, [x19]
    401059e8:	a9014677 	stp	x23, x17, [x19, #16]
    401059ec:	aa1303e0 	mov	x0, x19
    401059f0:	a9474ff4 	ldp	x20, x19, [sp, #112]
    401059f4:	a94657f6 	ldp	x22, x21, [sp, #96]
    401059f8:	a9455ff8 	ldp	x24, x23, [sp, #80]
    401059fc:	a94467fa 	ldp	x26, x25, [sp, #64]
    40105a00:	a9436ffc 	ldp	x28, x27, [sp, #48]
    40105a04:	a9427bfd 	ldp	x29, x30, [sp, #32]
    40105a08:	910203ff 	add	sp, sp, #0x80
    40105a0c:	d65f03c0 	ret
    40105a10:	900000a1 	adrp	x1, 0x40119000
    40105a14:	900000a2 	adrp	x2, 0x40119000
    40105a18:	f0000084 	adrp	x4, 0x40118000
    40105a1c:	b00000a5 	adrp	x5, 0x4011a000
    40105a20:	9107dc21 	add	x1, x1, #0x1f7
    40105a24:	910cec42 	add	x2, x2, #0x33b
    40105a28:	912c6c84 	add	x4, x4, #0xb1b
    40105a2c:	912cf4a5 	add	x5, x5, #0xb3d
    40105a30:	528031a3 	mov	w3, #0x18d                 	// #397
    40105a34:	2a1f03e0 	mov	w0, wzr
    40105a38:	94003a34 	bl	0x40114308
    40105a3c:	52800060 	mov	w0, #0x3                   	// #3
    40105a40:	97fff582 	bl	0x40103048
    40105a44:	a9be7bfd 	stp	x29, x30, [sp, #-32]!
    40105a48:	a9014ff4 	stp	x20, x19, [sp, #16]
    40105a4c:	910003fd 	mov	x29, sp
    40105a50:	b40001c0 	cbz	x0, 0x40105a88
    40105a54:	aa0103f4 	mov	x20, x1
    40105a58:	b40002c1 	cbz	x1, 0x40105ab0
    40105a5c:	f9402c01 	ldr	x1, [x0, #88]
    40105a60:	f9401688 	ldr	x8, [x20, #40]
    40105a64:	aa0003f3 	mov	x19, x0
    40105a68:	aa1403e0 	mov	x0, x20
    40105a6c:	d63f0100 	blr	x8
    40105a70:	f9401682 	ldr	x2, [x20, #40]
    40105a74:	aa1403e0 	mov	x0, x20
    40105a78:	aa1303e1 	mov	x1, x19
    40105a7c:	a9414ff4 	ldp	x20, x19, [sp, #16]
    40105a80:	a8c27bfd 	ldp	x29, x30, [sp], #32
    40105a84:	d61f0040 	br	x2
    40105a88:	900000a1 	adrp	x1, 0x40119000
    40105a8c:	900000a2 	adrp	x2, 0x40119000
    40105a90:	f0000084 	adrp	x4, 0x40118000
    40105a94:	900000a5 	adrp	x5, 0x40119000
    40105a98:	9107dc21 	add	x1, x1, #0x1f7
    40105a9c:	910cec42 	add	x2, x2, #0x33b
    40105aa0:	912c6c84 	add	x4, x4, #0xb1b
    40105aa4:	910d24a5 	add	x5, x5, #0x349
    40105aa8:	52803703 	mov	w3, #0x1b8                 	// #440
    40105aac:	1400000b 	b	0x40105ad8
    40105ab0:	900000a1 	adrp	x1, 0x40119000
    40105ab4:	900000a2 	adrp	x2, 0x40119000
    40105ab8:	f0000084 	adrp	x4, 0x40118000
    40105abc:	b00000a5 	adrp	x5, 0x4011a000
    40105ac0:	9107dc21 	add	x1, x1, #0x1f7
    40105ac4:	910cec42 	add	x2, x2, #0x33b
    40105ac8:	912c6c84 	add	x4, x4, #0xb1b
    40105acc:	912cf4a5 	add	x5, x5, #0xb3d
    40105ad0:	52801c63 	mov	w3, #0xe3                  	// #227
    40105ad4:	2a1f03e0 	mov	w0, wzr
    40105ad8:	94003a0c 	bl	0x40114308
    40105adc:	52800060 	mov	w0, #0x3                   	// #3
    40105ae0:	97fff55a 	bl	0x40103048
    40105ae4:	a9bf7bfd 	stp	x29, x30, [sp, #-16]!
    40105ae8:	910003fd 	mov	x29, sp
    40105aec:	b40000c0 	cbz	x0, 0x40105b04
    40105af0:	7940c008 	ldrh	w8, [x0, #96]
    40105af4:	7100011f 	cmp	w8, #0x0
    40105af8:	1a9f17e0 	cset	w0, eq  // eq = none
    40105afc:	a8c17bfd 	ldp	x29, x30, [sp], #16
    40105b00:	d65f03c0 	ret
    40105b04:	900000a1 	adrp	x1, 0x40119000
    40105b08:	900000a2 	adrp	x2, 0x40119000
    40105b0c:	f0000084 	adrp	x4, 0x40118000
    40105b10:	900000a5 	adrp	x5, 0x40119000
    40105b14:	9107dc21 	add	x1, x1, #0x1f7
    40105b18:	910cec42 	add	x2, x2, #0x33b
    40105b1c:	912c6c84 	add	x4, x4, #0xb1b
    40105b20:	910d24a5 	add	x5, x5, #0x349
    40105b24:	528038e3 	mov	w3, #0x1c7                 	// #455
    40105b28:	940039f8 	bl	0x40114308
    40105b2c:	52800060 	mov	w0, #0x3                   	// #3
    40105b30:	97fff546 	bl	0x40103048
    40105b34:	d00000a0 	adrp	x0, 0x4011b000
    40105b38:	9105e000 	add	x0, x0, #0x178
    40105b3c:	17fffbb7 	b	0x40104a18
    40105b40:	b40000c0 	cbz	x0, 0x40105b58
    40105b44:	aa0003e8 	mov	x8, x0
    40105b48:	2a1f03e0 	mov	w0, wzr
    40105b4c:	f00001a9 	adrp	x9, 0x4013c000
    40105b50:	f901a928 	str	x8, [x9, #848]
    40105b54:	d65f03c0 	ret
    40105b58:	128002a0 	mov	w0, #0xffffffea            	// #-22
    40105b5c:	d65f03c0 	ret
    40105b60:	d10143ff 	sub	sp, sp, #0x50
    40105b64:	a9017bfd 	stp	x29, x30, [sp, #16]
    40105b68:	f90013f7 	str	x23, [sp, #32]
    40105b6c:	a90357f6 	stp	x22, x21, [sp, #48]
    40105b70:	a9044ff4 	stp	x20, x19, [sp, #64]
    40105b74:	910043fd 	add	x29, sp, #0x10
    40105b78:	b9402414 	ldr	w20, [x0, #36]
    40105b7c:	3100069f 	cmn	w20, #0x1
    40105b80:	540006c0 	b.eq	0x40105c58  // b.none
    40105b84:	f00000b5 	adrp	x21, 0x4011c000
    40105b88:	aa0003f3 	mov	x19, x0
    40105b8c:	f94056a0 	ldr	x0, [x21, #168]
    40105b90:	900000a2 	adrp	x2, 0x40119000
    40105b94:	910fec42 	add	x2, x2, #0x3fb
    40105b98:	910073a3 	add	x3, x29, #0x1c
    40105b9c:	2a1403e1 	mov	w1, w20
    40105ba0:	94001437 	bl	0x4010ac7c
    40105ba4:	b4000360 	cbz	x0, 0x40105c10
    40105ba8:	29405c16 	ldp	w22, w23, [x0]
    40105bac:	f94056a0 	ldr	x0, [x21, #168]
    40105bb0:	f0000082 	adrp	x2, 0x40118000
    40105bb4:	91269842 	add	x2, x2, #0x9a6
    40105bb8:	910073a3 	add	x3, x29, #0x1c
    40105bbc:	2a1403e1 	mov	w1, w20
    40105bc0:	9400142f 	bl	0x4010ac7c
    40105bc4:	b4000380 	cbz	x0, 0x40105c34
    40105bc8:	f94056a0 	ldr	x0, [x21, #168]
    40105bcc:	910023e3 	add	x3, sp, #0x8
    40105bd0:	910003e4 	mov	x4, sp
    40105bd4:	2a1403e1 	mov	w1, w20
    40105bd8:	2a1f03e2 	mov	w2, wzr
    40105bdc:	5ac00af5 	rev	w21, w23
    40105be0:	5ac00ad6 	rev	w22, w22
    40105be4:	9400040f 	bl	0x40106c20
    40105be8:	f94007e8 	ldr	x8, [sp, #8]
    40105bec:	2a1603e0 	mov	w0, w22
    40105bf0:	2a1503e1 	mov	w1, w21
    40105bf4:	f9001668 	str	x8, [x19, #40]
    40105bf8:	94000531 	bl	0x401070bc
    40105bfc:	2a0003e8 	mov	w8, w0
    40105c00:	2a1f03e0 	mov	w0, wzr
    40105c04:	2a0803e8 	mov	w8, w8
    40105c08:	f9001a68 	str	x8, [x19, #48]
    40105c0c:	14000014 	b	0x40105c5c
    40105c10:	900000a1 	adrp	x1, 0x40119000
    40105c14:	900000a2 	adrp	x2, 0x40119000
    40105c18:	900000a4 	adrp	x4, 0x40119000
    40105c1c:	9107dc21 	add	x1, x1, #0x1f7
    40105c20:	91101842 	add	x2, x2, #0x406
    40105c24:	91105084 	add	x4, x4, #0x414
    40105c28:	52800020 	mov	w0, #0x1                   	// #1
    40105c2c:	52803343 	mov	w3, #0x19a                 	// #410
    40105c30:	14000009 	b	0x40105c54
    40105c34:	900000a1 	adrp	x1, 0x40119000
    40105c38:	900000a2 	adrp	x2, 0x40119000
    40105c3c:	900000a4 	adrp	x4, 0x40119000
    40105c40:	9107dc21 	add	x1, x1, #0x1f7
    40105c44:	91101842 	add	x2, x2, #0x406
    40105c48:	9101d884 	add	x4, x4, #0x76
    40105c4c:	52800020 	mov	w0, #0x1                   	// #1
    40105c50:	52803463 	mov	w3, #0x1a3                 	// #419
    40105c54:	940039ad 	bl	0x40114308
    40105c58:	128001a0 	mov	w0, #0xfffffff2            	// #-14
    40105c5c:	a9444ff4 	ldp	x20, x19, [sp, #64]
    40105c60:	a94357f6 	ldp	x22, x21, [sp, #48]
    40105c64:	f94013f7 	ldr	x23, [sp, #32]
    40105c68:	a9417bfd 	ldp	x29, x30, [sp, #16]
    40105c6c:	910143ff 	add	sp, sp, #0x50
    40105c70:	d65f03c0 	ret
    40105c74:	a9be7bfd 	stp	x29, x30, [sp, #-32]!
    40105c78:	f9000bf3 	str	x19, [sp, #16]
    40105c7c:	910003fd 	mov	x29, sp
    40105c80:	b4000d80 	cbz	x0, 0x40105e30
    40105c84:	f00001a8 	adrp	x8, 0x4013c000
    40105c88:	aa0003f3 	mov	x19, x0
    40105c8c:	f941a900 	ldr	x0, [x8, #848]
    40105c90:	b4000ae0 	cbz	x0, 0x40105dec
    40105c94:	f9400008 	ldr	x8, [x0]
    40105c98:	52800f01 	mov	w1, #0x78                  	// #120
    40105c9c:	d63f0100 	blr	x8
    40105ca0:	b4000ac0 	cbz	x0, 0x40105df8
    40105ca4:	f9003813 	str	x19, [x0, #112]
    40105ca8:	f9401668 	ldr	x8, [x19, #40]
    40105cac:	d00000a9 	adrp	x9, 0x4011b000
    40105cb0:	900000aa 	adrp	x10, 0x40119000
    40105cb4:	9106e129 	add	x9, x9, #0x1b8
    40105cb8:	9111c54a 	add	x10, x10, #0x471
    40105cbc:	f9001409 	str	x9, [x0, #40]
    40105cc0:	f9003408 	str	x8, [x0, #104]
    40105cc4:	f900200a 	str	x10, [x0, #64]
    40105cc8:	b4000368 	cbz	x8, 0x40105d34
    40105ccc:	b9400105 	ldr	w5, [x8]
    40105cd0:	d5033d9f 	dsb	ld
    40105cd4:	528d2ec8 	mov	w8, #0x6976                	// #26998
    40105cd8:	72ae8e48 	movk	w8, #0x7472, lsl #16
    40105cdc:	6b0800bf 	cmp	w5, w8
    40105ce0:	540002e1 	b.ne	0x40105d3c  // b.any
    40105ce4:	f9403408 	ldr	x8, [x0, #104]
    40105ce8:	91001108 	add	x8, x8, #0x4
    40105cec:	b9400108 	ldr	w8, [x8]
    40105cf0:	d5033d9f 	dsb	ld
    40105cf4:	2a0803e5 	mov	w5, w8
    40105cf8:	51000508 	sub	w8, w8, #0x1
    40105cfc:	7100091f 	cmp	w8, #0x2
    40105d00:	f9002c05 	str	x5, [x0, #88]
    40105d04:	54000323 	b.cc	0x40105d68  // b.lo, b.ul, b.last
    40105d08:	900000a1 	adrp	x1, 0x40119000
    40105d0c:	900000a2 	adrp	x2, 0x40119000
    40105d10:	900000a4 	adrp	x4, 0x40119000
    40105d14:	9107dc21 	add	x1, x1, #0x1f7
    40105d18:	91101842 	add	x2, x2, #0x406
    40105d1c:	91125884 	add	x4, x4, #0x496
    40105d20:	52800020 	mov	w0, #0x1                   	// #1
    40105d24:	52803b43 	mov	w3, #0x1da                 	// #474
    40105d28:	94003978 	bl	0x40114308
    40105d2c:	128000b3 	mov	w19, #0xfffffffa            	// #-6
    40105d30:	1400003c 	b	0x40105e20
    40105d34:	128001b3 	mov	w19, #0xfffffff2            	// #-14
    40105d38:	1400003a 	b	0x40105e20
    40105d3c:	900000a1 	adrp	x1, 0x40119000
    40105d40:	900000a2 	adrp	x2, 0x40119000
    40105d44:	900000a4 	adrp	x4, 0x40119000
    40105d48:	9107dc21 	add	x1, x1, #0x1f7
    40105d4c:	91101842 	add	x2, x2, #0x406
    40105d50:	9111f484 	add	x4, x4, #0x47d
    40105d54:	52800020 	mov	w0, #0x1                   	// #1
    40105d58:	52803a43 	mov	w3, #0x1d2                 	// #466
    40105d5c:	9400396b 	bl	0x40114308
    40105d60:	12800253 	mov	w19, #0xffffffed            	// #-19
    40105d64:	1400002f 	b	0x40105e20
    40105d68:	f9403408 	ldr	x8, [x0, #104]
    40105d6c:	91002108 	add	x8, x8, #0x8
    40105d70:	b9400108 	ldr	w8, [x8]
    40105d74:	d5033d9f 	dsb	ld
    40105d78:	72003d1f 	tst	w8, #0xffff
    40105d7c:	79004008 	strh	w8, [x0, #32]
    40105d80:	54000320 	b.eq	0x40105de4  // b.none
    40105d84:	f9403408 	ldr	x8, [x0, #104]
    40105d88:	91003108 	add	x8, x8, #0xc
    40105d8c:	b9400108 	ldr	w8, [x8]
    40105d90:	d5033d9f 	dsb	ld
    40105d94:	f9403409 	ldr	x9, [x0, #104]
    40105d98:	b9004c08 	str	w8, [x0, #76]
    40105d9c:	d5033e9f 	dsb	st
    40105da0:	9100a128 	add	x8, x9, #0x28
    40105da4:	52820009 	mov	w9, #0x1000                	// #4096
    40105da8:	b9000109 	str	w9, [x8]
    40105dac:	97fffc24 	bl	0x40104e3c
    40105db0:	2a0003f3 	mov	w19, w0
    40105db4:	34000360 	cbz	w0, 0x40105e20
    40105db8:	900000a1 	adrp	x1, 0x40119000
    40105dbc:	900000a2 	adrp	x2, 0x40119000
    40105dc0:	900000a4 	adrp	x4, 0x40119000
    40105dc4:	9107dc21 	add	x1, x1, #0x1f7
    40105dc8:	91101842 	add	x2, x2, #0x406
    40105dcc:	9112c884 	add	x4, x4, #0x4b2
    40105dd0:	52800020 	mov	w0, #0x1                   	// #1
    40105dd4:	52803e03 	mov	w3, #0x1f0                 	// #496
    40105dd8:	2a1303e5 	mov	w5, w19
    40105ddc:	9400394b 	bl	0x40114308
    40105de0:	14000010 	b	0x40105e20
    40105de4:	12800253 	mov	w19, #0xffffffed            	// #-19
    40105de8:	1400000e 	b	0x40105e20
    40105dec:	94001e6a 	bl	0x4010d794
    40105df0:	52800188 	mov	w8, #0xc                   	// #12
    40105df4:	b9000008 	str	w8, [x0]
    40105df8:	900000a1 	adrp	x1, 0x40119000
    40105dfc:	900000a2 	adrp	x2, 0x40119000
    40105e00:	900000a4 	adrp	x4, 0x40119000
    40105e04:	9107dc21 	add	x1, x1, #0x1f7
    40105e08:	91101842 	add	x2, x2, #0x406
    40105e0c:	91112884 	add	x4, x4, #0x44a
    40105e10:	52800020 	mov	w0, #0x1                   	// #1
    40105e14:	52803803 	mov	w3, #0x1c0                 	// #448
    40105e18:	9400393c 	bl	0x40114308
    40105e1c:	12800173 	mov	w19, #0xfffffff4            	// #-12
    40105e20:	2a1303e0 	mov	w0, w19
    40105e24:	f9400bf3 	ldr	x19, [sp, #16]
    40105e28:	a8c27bfd 	ldp	x29, x30, [sp], #32
    40105e2c:	d65f03c0 	ret
    40105e30:	900000a1 	adrp	x1, 0x40119000
    40105e34:	900000a2 	adrp	x2, 0x40119000
    40105e38:	f0000084 	adrp	x4, 0x40118000
    40105e3c:	900000a5 	adrp	x5, 0x40119000
    40105e40:	9107dc21 	add	x1, x1, #0x1f7
    40105e44:	91101842 	add	x2, x2, #0x406
    40105e48:	912c6c84 	add	x4, x4, #0xb1b
    40105e4c:	9110d0a5 	add	x5, x5, #0x434
    40105e50:	52803783 	mov	w3, #0x1bc                 	// #444
    40105e54:	9400392d 	bl	0x40114308
    40105e58:	52800060 	mov	w0, #0x3                   	// #3
    40105e5c:	97fff47b 	bl	0x40103048
    40105e60:	a9bf7bfd 	stp	x29, x30, [sp, #-16]!
    40105e64:	910003fd 	mov	x29, sp
    40105e68:	aa0003e1 	mov	x1, x0
    40105e6c:	900000a0 	adrp	x0, 0x40119000
    40105e70:	9105c800 	add	x0, x0, #0x172
    40105e74:	940024d8 	bl	0x4010f1d4
    40105e78:	d00000a8 	adrp	x8, 0x4011b000
    40105e7c:	79436108 	ldrh	w8, [x8, #432]
    40105e80:	7100001f 	cmp	w0, #0x0
    40105e84:	5a9f0100 	csinv	w0, w8, wzr, eq  // eq = none
    40105e88:	a8c17bfd 	ldp	x29, x30, [sp], #16
    40105e8c:	d65f03c0 	ret
    40105e90:	f9403409 	ldr	x9, [x0, #104]
    40105e94:	d5033e9f 	dsb	st
    40105e98:	2a1f03e8 	mov	w8, wzr
    40105e9c:	9101c129 	add	x9, x9, #0x70
    40105ea0:	b9000128 	str	w8, [x9]
    40105ea4:	d65f03c0 	ret
    40105ea8:	d10103ff 	sub	sp, sp, #0x40
    40105eac:	a9017bfd 	stp	x29, x30, [sp, #16]
    40105eb0:	f90013f5 	str	x21, [sp, #32]
    40105eb4:	a9034ff4 	stp	x20, x19, [sp, #48]
    40105eb8:	910043fd 	add	x29, sp, #0x10
    40105ebc:	f9402c08 	ldr	x8, [x0, #88]
    40105ec0:	f9403409 	ldr	x9, [x0, #104]
    40105ec4:	2a0303e5 	mov	w5, w3
    40105ec8:	aa0203f3 	mov	x19, x2
    40105ecc:	2a0103f4 	mov	w20, w1
    40105ed0:	f100051f 	cmp	x8, #0x1
    40105ed4:	91040135 	add	x21, x9, #0x100
    40105ed8:	54000181 	b.ne	0x40105f08  // b.any
    40105edc:	34000825 	cbz	w5, 0x40105fe0
    40105ee0:	92403e88 	and	x8, x20, #0xffff
    40105ee4:	2a0503e9 	mov	w9, w5
    40105ee8:	3840166a 	ldrb	w10, [x19], #1
    40105eec:	d5033e9f 	dsb	st
    40105ef0:	8b2802ab 	add	x11, x21, w8, uxtb
    40105ef4:	f1000529 	subs	x9, x9, #0x1
    40105ef8:	91000508 	add	x8, x8, #0x1
    40105efc:	3900016a 	strb	w10, [x11]
    40105f00:	54ffff41 	b.ne	0x40105ee8  // b.any
    40105f04:	14000037 	b	0x40105fe0
    40105f08:	510004a8 	sub	w8, w5, #0x1
    40105f0c:	71001d1f 	cmp	w8, #0x7
    40105f10:	54000748 	b.hi	0x40105ff8  // b.pmore
    40105f14:	f0000089 	adrp	x9, 0x40118000
    40105f18:	91043d29 	add	x9, x9, #0x10f
    40105f1c:	1000008a 	adr	x10, 0x40105f2c
    40105f20:	3868692b 	ldrb	w11, [x9, x8]
    40105f24:	8b0b094a 	add	x10, x10, x11, lsl #2
    40105f28:	d61f0140 	br	x10
    40105f2c:	910073a0 	add	x0, x29, #0x1c
    40105f30:	52800022 	mov	w2, #0x1                   	// #1
    40105f34:	aa1303e1 	mov	x1, x19
    40105f38:	94002401 	bl	0x4010ef3c
    40105f3c:	394073a8 	ldrb	w8, [x29, #28]
    40105f40:	d5033e9f 	dsb	st
    40105f44:	8b3402a9 	add	x9, x21, w20, uxtb
    40105f48:	39000128 	strb	w8, [x9]
    40105f4c:	14000025 	b	0x40105fe0
    40105f50:	d10013a0 	sub	x0, x29, #0x4
    40105f54:	52800082 	mov	w2, #0x4                   	// #4
    40105f58:	aa1303e1 	mov	x1, x19
    40105f5c:	940023f8 	bl	0x4010ef3c
    40105f60:	b85fc3a8 	ldur	w8, [x29, #-4]
    40105f64:	d5033e9f 	dsb	st
    40105f68:	91001261 	add	x1, x19, #0x4
    40105f6c:	d10013a0 	sub	x0, x29, #0x4
    40105f70:	52800082 	mov	w2, #0x4                   	// #4
    40105f74:	8b3402a9 	add	x9, x21, w20, uxtb
    40105f78:	b9000128 	str	w8, [x9]
    40105f7c:	940023f0 	bl	0x4010ef3c
    40105f80:	b85fc3a8 	ldur	w8, [x29, #-4]
    40105f84:	d5033e9f 	dsb	st
    40105f88:	11001289 	add	w9, w20, #0x4
    40105f8c:	12001d29 	and	w9, w9, #0xff
    40105f90:	8b0902a9 	add	x9, x21, x9
    40105f94:	b9000128 	str	w8, [x9]
    40105f98:	14000012 	b	0x40105fe0
    40105f9c:	910063a0 	add	x0, x29, #0x18
    40105fa0:	52800042 	mov	w2, #0x2                   	// #2
    40105fa4:	aa1303e1 	mov	x1, x19
    40105fa8:	940023e5 	bl	0x4010ef3c
    40105fac:	794033a8 	ldrh	w8, [x29, #24]
    40105fb0:	d5033e9f 	dsb	st
    40105fb4:	8b3402a9 	add	x9, x21, w20, uxtb
    40105fb8:	79000128 	strh	w8, [x9]
    40105fbc:	14000009 	b	0x40105fe0
    40105fc0:	d10013a0 	sub	x0, x29, #0x4
    40105fc4:	52800082 	mov	w2, #0x4                   	// #4
    40105fc8:	aa1303e1 	mov	x1, x19
    40105fcc:	940023dc 	bl	0x4010ef3c
    40105fd0:	b85fc3a8 	ldur	w8, [x29, #-4]
    40105fd4:	d5033e9f 	dsb	st
    40105fd8:	8b3402a9 	add	x9, x21, w20, uxtb
    40105fdc:	b9000128 	str	w8, [x9]
    40105fe0:	a9434ff4 	ldp	x20, x19, [sp, #48]
    40105fe4:	f94013f5 	ldr	x21, [sp, #32]
    40105fe8:	a9417bfd 	ldp	x29, x30, [sp, #16]
    40105fec:	2a1f03e0 	mov	w0, wzr
    40105ff0:	910103ff 	add	sp, sp, #0x40
    40105ff4:	d65f03c0 	ret
    40105ff8:	900000b3 	adrp	x19, 0x40119000
    40105ffc:	900000b4 	adrp	x20, 0x40119000
    40106000:	9107de73 	add	x19, x19, #0x1f7
    40106004:	91101a94 	add	x20, x20, #0x406
    40106008:	f0000084 	adrp	x4, 0x40119000
    4010600c:	91137084 	add	x4, x4, #0x4dc
    40106010:	52800020 	mov	w0, #0x1                   	// #1
    40106014:	52801a43 	mov	w3, #0xd2                  	// #210
    40106018:	aa1303e1 	mov	x1, x19
    4010601c:	aa1403e2 	mov	x2, x20
    40106020:	940038ba 	bl	0x40114308
    40106024:	d0000084 	adrp	x4, 0x40118000
    40106028:	f0000085 	adrp	x5, 0x40119000
    4010602c:	912c6c84 	add	x4, x4, #0xb1b
    40106030:	91140ca5 	add	x5, x5, #0x503
    40106034:	52801a63 	mov	w3, #0xd3                  	// #211
    40106038:	2a1f03e0 	mov	w0, wzr
    4010603c:	aa1303e1 	mov	x1, x19
    40106040:	aa1403e2 	mov	x2, x20
    40106044:	940038b1 	bl	0x40114308
    40106048:	52800060 	mov	w0, #0x3                   	// #3
    4010604c:	97fff3ff 	bl	0x40103048
    40106050:	d10103ff 	sub	sp, sp, #0x40
    40106054:	a9017bfd 	stp	x29, x30, [sp, #16]
    40106058:	a90257f6 	stp	x22, x21, [sp, #32]
    4010605c:	a9034ff4 	stp	x20, x19, [sp, #48]
    40106060:	910043fd 	add	x29, sp, #0x10
    40106064:	f9402c08 	ldr	x8, [x0, #88]
    40106068:	f9403409 	ldr	x9, [x0, #104]
    4010606c:	2a0303f3 	mov	w19, w3
    40106070:	aa0203f4 	mov	x20, x2
    40106074:	2a0103f5 	mov	w21, w1
    40106078:	f100051f 	cmp	x8, #0x1
    4010607c:	91040136 	add	x22, x9, #0x100
    40106080:	54000181 	b.ne	0x401060b0  // b.any
    40106084:	34000793 	cbz	w19, 0x40106174
    40106088:	92403ea8 	and	x8, x21, #0xffff
    4010608c:	2a1303e9 	mov	w9, w19
    40106090:	8b2802ca 	add	x10, x22, w8, uxtb
    40106094:	3940014a 	ldrb	w10, [x10]
    40106098:	d5033d9f 	dsb	ld
    4010609c:	3800168a 	strb	w10, [x20], #1
    401060a0:	f1000529 	subs	x9, x9, #0x1
    401060a4:	91000508 	add	x8, x8, #0x1
    401060a8:	54ffff41 	b.ne	0x40106090  // b.any
    401060ac:	14000032 	b	0x40106174
    401060b0:	51000668 	sub	w8, w19, #0x1
    401060b4:	71001d1f 	cmp	w8, #0x7
    401060b8:	540006a8 	b.hi	0x4010618c  // b.pmore
    401060bc:	d0000089 	adrp	x9, 0x40118000
    401060c0:	91045d29 	add	x9, x9, #0x117
    401060c4:	1000008a 	adr	x10, 0x401060d4
    401060c8:	3868692b 	ldrb	w11, [x9, x8]
    401060cc:	8b0b094a 	add	x10, x10, x11, lsl #2
    401060d0:	d61f0140 	br	x10
    401060d4:	8b3502c8 	add	x8, x22, w21, uxtb
    401060d8:	39400108 	ldrb	w8, [x8]
    401060dc:	d5033d9f 	dsb	ld
    401060e0:	381fc3a8 	sturb	w8, [x29, #-4]
    401060e4:	d10013a1 	sub	x1, x29, #0x4
    401060e8:	52800022 	mov	w2, #0x1                   	// #1
    401060ec:	14000020 	b	0x4010616c
    401060f0:	8b3502c8 	add	x8, x22, w21, uxtb
    401060f4:	b9400108 	ldr	w8, [x8]
    401060f8:	d5033d9f 	dsb	ld
    401060fc:	910013e1 	add	x1, sp, #0x4
    40106100:	52800082 	mov	w2, #0x4                   	// #4
    40106104:	aa1403e0 	mov	x0, x20
    40106108:	b90007e8 	str	w8, [sp, #4]
    4010610c:	9400238c 	bl	0x4010ef3c
    40106110:	110012a8 	add	w8, w21, #0x4
    40106114:	12001d08 	and	w8, w8, #0xff
    40106118:	8b0802c8 	add	x8, x22, x8
    4010611c:	b9400108 	ldr	w8, [x8]
    40106120:	d5033d9f 	dsb	ld
    40106124:	91001280 	add	x0, x20, #0x4
    40106128:	910013e1 	add	x1, sp, #0x4
    4010612c:	52800082 	mov	w2, #0x4                   	// #4
    40106130:	b90007e8 	str	w8, [sp, #4]
    40106134:	1400000f 	b	0x40106170
    40106138:	8b3502c8 	add	x8, x22, w21, uxtb
    4010613c:	79400108 	ldrh	w8, [x8]
    40106140:	d5033d9f 	dsb	ld
    40106144:	790013e8 	strh	w8, [sp, #8]
    40106148:	910023e1 	add	x1, sp, #0x8
    4010614c:	52800042 	mov	w2, #0x2                   	// #2
    40106150:	14000007 	b	0x4010616c
    40106154:	8b3502c8 	add	x8, x22, w21, uxtb
    40106158:	b9400108 	ldr	w8, [x8]
    4010615c:	d5033d9f 	dsb	ld
    40106160:	b90007e8 	str	w8, [sp, #4]
    40106164:	910013e1 	add	x1, sp, #0x4
    40106168:	52800082 	mov	w2, #0x4                   	// #4
    4010616c:	aa1403e0 	mov	x0, x20
    40106170:	94002373 	bl	0x4010ef3c
    40106174:	2a1303e0 	mov	w0, w19
    40106178:	a9434ff4 	ldp	x20, x19, [sp, #48]
    4010617c:	a94257f6 	ldp	x22, x21, [sp, #32]
    40106180:	a9417bfd 	ldp	x29, x30, [sp, #16]
    40106184:	910103ff 	add	sp, sp, #0x40
    40106188:	d65f03c0 	ret
    4010618c:	f0000094 	adrp	x20, 0x40119000
    40106190:	f0000095 	adrp	x21, 0x40119000
    40106194:	9107de94 	add	x20, x20, #0x1f7
    40106198:	91101ab5 	add	x21, x21, #0x406
    4010619c:	f0000084 	adrp	x4, 0x40119000
    401061a0:	91142084 	add	x4, x4, #0x508
    401061a4:	52800020 	mov	w0, #0x1                   	// #1
    401061a8:	528014a3 	mov	w3, #0xa5                  	// #165
    401061ac:	aa1403e1 	mov	x1, x20
    401061b0:	aa1503e2 	mov	x2, x21
    401061b4:	2a1303e5 	mov	w5, w19
    401061b8:	94003854 	bl	0x40114308
    401061bc:	d0000084 	adrp	x4, 0x40118000
    401061c0:	f0000085 	adrp	x5, 0x40119000
    401061c4:	912c6c84 	add	x4, x4, #0xb1b
    401061c8:	91140ca5 	add	x5, x5, #0x503
    401061cc:	528014c3 	mov	w3, #0xa6                  	// #166
    401061d0:	2a1f03e0 	mov	w0, wzr
    401061d4:	aa1403e1 	mov	x1, x20
    401061d8:	aa1503e2 	mov	x2, x21
    401061dc:	9400384b 	bl	0x40114308
    401061e0:	52800060 	mov	w0, #0x3                   	// #3
    401061e4:	97fff399 	bl	0x40103048
    401061e8:	f9403409 	ldr	x9, [x0, #104]
    401061ec:	d5033e9f 	dsb	st
    401061f0:	5280002a 	mov	w10, #0x1                   	// #1
    401061f4:	2a1f03e8 	mov	w8, wzr
    401061f8:	91005129 	add	x9, x9, #0x14
    401061fc:	b900012a 	str	w10, [x9]
    40106200:	f9403409 	ldr	x9, [x0, #104]
    40106204:	91004129 	add	x9, x9, #0x10
    40106208:	b9400129 	ldr	w9, [x9]
    4010620c:	d5033d9f 	dsb	ld
    40106210:	f940340a 	ldr	x10, [x0, #104]
    40106214:	d5033e9f 	dsb	st
    40106218:	9100514a 	add	x10, x10, #0x14
    4010621c:	b9000148 	str	w8, [x10]
    40106220:	f9403408 	ldr	x8, [x0, #104]
    40106224:	91004108 	add	x8, x8, #0x10
    40106228:	b9400108 	ldr	w8, [x8]
    4010622c:	d5033d9f 	dsb	ld
    40106230:	2a0803e0 	mov	w0, w8
    40106234:	b3607d20 	bfi	x0, x9, #32, #32
    40106238:	d65f03c0 	ret
    4010623c:	a9be7bfd 	stp	x29, x30, [sp, #-32]!
    40106240:	f9000bf3 	str	x19, [sp, #16]
    40106244:	910003fd 	mov	x29, sp
    40106248:	aa0003f3 	mov	x19, x0
    4010624c:	aa0103e0 	mov	x0, x1
    40106250:	97fffc2b 	bl	0x401052fc
    40106254:	f9402e68 	ldr	x8, [x19, #88]
    40106258:	f100091f 	cmp	x8, #0x2
    4010625c:	540001c1 	b.ne	0x40106294  // b.any
    40106260:	39401268 	ldrb	w8, [x19, #4]
    40106264:	37000188 	tbnz	w8, #0, 0x40106294
    40106268:	f9400bf3 	ldr	x19, [sp, #16]
    4010626c:	f0000081 	adrp	x1, 0x40119000
    40106270:	f0000082 	adrp	x2, 0x40119000
    40106274:	f0000084 	adrp	x4, 0x40119000
    40106278:	9107dc21 	add	x1, x1, #0x1f7
    4010627c:	91101842 	add	x2, x2, #0x406
    40106280:	9114b884 	add	x4, x4, #0x52e
    40106284:	52800020 	mov	w0, #0x1                   	// #1
    40106288:	52800e43 	mov	w3, #0x72                  	// #114
    4010628c:	a8c27bfd 	ldp	x29, x30, [sp], #32
    40106290:	1400381e 	b	0x40114308
    40106294:	f9403669 	ldr	x9, [x19, #104]
    40106298:	d5033e9f 	dsb	st
    4010629c:	5280002a 	mov	w10, #0x1                   	// #1
    401062a0:	2a1f03e8 	mov	w8, wzr
    401062a4:	91009129 	add	x9, x9, #0x24
    401062a8:	b900012a 	str	w10, [x9]
    401062ac:	f9403669 	ldr	x9, [x19, #104]
    401062b0:	b940066a 	ldr	w10, [x19, #4]
    401062b4:	d5033e9f 	dsb	st
    401062b8:	91008129 	add	x9, x9, #0x20
    401062bc:	b900012a 	str	w10, [x9]
    401062c0:	f9403669 	ldr	x9, [x19, #104]
    401062c4:	d5033e9f 	dsb	st
    401062c8:	91009129 	add	x9, x9, #0x24
    401062cc:	b9000128 	str	w8, [x9]
    401062d0:	f9403668 	ldr	x8, [x19, #104]
    401062d4:	b9400269 	ldr	w9, [x19]
    401062d8:	d5033e9f 	dsb	st
    401062dc:	91008108 	add	x8, x8, #0x20
    401062e0:	b9000109 	str	w9, [x8]
    401062e4:	f9400bf3 	ldr	x19, [sp, #16]
    401062e8:	a8c27bfd 	ldp	x29, x30, [sp], #32
    401062ec:	d65f03c0 	ret
    401062f0:	f9403408 	ldr	x8, [x0, #104]
    401062f4:	9101c108 	add	x8, x8, #0x70
    401062f8:	b9400100 	ldr	w0, [x8]
    401062fc:	d5033d9f 	dsb	ld
    40106300:	d65f03c0 	ret
    40106304:	a9bf7bfd 	stp	x29, x30, [sp, #-16]!
    40106308:	910003fd 	mov	x29, sp
    4010630c:	72001c3f 	tst	w1, #0xff
    40106310:	54000100 	b.eq	0x40106330  // b.none
    40106314:	f9403408 	ldr	x8, [x0, #104]
    40106318:	d5033e9f 	dsb	st
    4010631c:	12001c29 	and	w9, w1, #0xff
    40106320:	9101c108 	add	x8, x8, #0x70
    40106324:	b9000109 	str	w9, [x8]
    40106328:	a8c17bfd 	ldp	x29, x30, [sp], #16
    4010632c:	d65f03c0 	ret
    40106330:	f0000081 	adrp	x1, 0x40119000
    40106334:	f0000082 	adrp	x2, 0x40119000
    40106338:	d0000084 	adrp	x4, 0x40118000
    4010633c:	f0000085 	adrp	x5, 0x40119000
    40106340:	9107dc21 	add	x1, x1, #0x1f7
    40106344:	91101842 	add	x2, x2, #0x406
    40106348:	912c6c84 	add	x4, x4, #0xb1b
    4010634c:	9115f0a5 	add	x5, x5, #0x57c
    40106350:	52801ca3 	mov	w3, #0xe5                  	// #229
    40106354:	2a1f03e0 	mov	w0, wzr
    40106358:	940037ec 	bl	0x40114308
    4010635c:	52800060 	mov	w0, #0x3                   	// #3
    40106360:	97fff33a 	bl	0x40103048
    40106364:	a9bd7bfd 	stp	x29, x30, [sp, #-48]!
    40106368:	a90157f6 	stp	x22, x21, [sp, #16]
    4010636c:	a9024ff4 	stp	x20, x19, [sp, #32]
    40106370:	910003fd 	mov	x29, sp
    40106374:	f9403808 	ldr	x8, [x0, #112]
    40106378:	aa0003f4 	mov	x20, x0
    4010637c:	2a0103f6 	mov	w22, w1
    40106380:	90000001 	adrp	x1, 0x40106000
    40106384:	b9403100 	ldr	w0, [x8, #48]
    40106388:	aa0203f3 	mov	x19, x2
    4010638c:	9118b021 	add	x1, x1, #0x62c
    40106390:	aa1403e2 	mov	x2, x20
    40106394:	97fff3ba 	bl	0x4010327c
    40106398:	2a0003f5 	mov	w21, w0
    4010639c:	340000c0 	cbz	w0, 0x401063b4
    401063a0:	2a1503e0 	mov	w0, w21
    401063a4:	a9424ff4 	ldp	x20, x19, [sp, #32]
    401063a8:	a94157f6 	ldp	x22, x21, [sp, #16]
    401063ac:	a8c37bfd 	ldp	x29, x30, [sp], #48
    401063b0:	d65f03c0 	ret
    401063b4:	72003ed5 	ands	w21, w22, #0xffff
    401063b8:	54ffff40 	b.eq	0x401063a0  // b.none
    401063bc:	aa1f03e8 	mov	x8, xzr
    401063c0:	92403ec9 	and	x9, x22, #0xffff
    401063c4:	5280088a 	mov	w10, #0x44                  	// #68
    401063c8:	5280080b 	mov	w11, #0x40                  	// #64
    401063cc:	f940368c 	ldr	x12, [x20, #104]
    401063d0:	d5033e9f 	dsb	st
    401063d4:	9100c18c 	add	x12, x12, #0x30
    401063d8:	b9000188 	str	w8, [x12]
    401063dc:	f9402e8c 	ldr	x12, [x20, #88]
    401063e0:	f940368d 	ldr	x13, [x20, #104]
    401063e4:	f100059f 	cmp	x12, #0x1
    401063e8:	9a8a016c 	csel	x12, x11, x10, eq  // eq = none
    401063ec:	8b0c01ac 	add	x12, x13, x12
    401063f0:	b940018c 	ldr	w12, [x12]
    401063f4:	d5033d9f 	dsb	ld
    401063f8:	3500018c 	cbnz	w12, 0x40106428
    401063fc:	f940368c 	ldr	x12, [x20, #104]
    40106400:	9100d18c 	add	x12, x12, #0x34
    40106404:	b940018c 	ldr	w12, [x12]
    40106408:	d5033d9f 	dsb	ld
    4010640c:	72003d9f 	tst	w12, #0xffff
    40106410:	78287a6c 	strh	w12, [x19, x8, lsl #1]
    40106414:	540001c0 	b.eq	0x4010644c  // b.none
    40106418:	91000508 	add	x8, x8, #0x1
    4010641c:	eb08013f 	cmp	x9, x8
    40106420:	54fffd61 	b.ne	0x401063cc  // b.any
    40106424:	17ffffdf 	b	0x401063a0
    40106428:	f0000081 	adrp	x1, 0x40119000
    4010642c:	f0000082 	adrp	x2, 0x40119000
    40106430:	f0000084 	adrp	x4, 0x40119000
    40106434:	9107dc21 	add	x1, x1, #0x1f7
    40106438:	91101842 	add	x2, x2, #0x406
    4010643c:	91162c84 	add	x4, x4, #0x58b
    40106440:	52800020 	mov	w0, #0x1                   	// #1
    40106444:	52802d83 	mov	w3, #0x16c                 	// #364
    40106448:	940037b0 	bl	0x40114308
    4010644c:	f0000081 	adrp	x1, 0x40119000
    40106450:	f0000082 	adrp	x2, 0x40119000
    40106454:	f0000084 	adrp	x4, 0x40119000
    40106458:	9107dc21 	add	x1, x1, #0x1f7
    4010645c:	91101842 	add	x2, x2, #0x406
    40106460:	9116cc84 	add	x4, x4, #0x5b3
    40106464:	52800020 	mov	w0, #0x1                   	// #1
    40106468:	52802f83 	mov	w3, #0x17c                 	// #380
    4010646c:	12800025 	mov	w5, #0xfffffffe            	// #-2
    40106470:	12800035 	mov	w21, #0xfffffffe            	// #-2
    40106474:	940037a5 	bl	0x40114308
    40106478:	17ffffca 	b	0x401063a0
    4010647c:	a9bd7bfd 	stp	x29, x30, [sp, #-48]!
    40106480:	a90157f6 	stp	x22, x21, [sp, #16]
    40106484:	a9024ff4 	stp	x20, x19, [sp, #32]
    40106488:	910003fd 	mov	x29, sp
    4010648c:	aa0403e6 	mov	x6, x4
    40106490:	2a0203f5 	mov	w21, w2
    40106494:	aa0003f4 	mov	x20, x0
    40106498:	90000004 	adrp	x4, 0x40106000
    4010649c:	2a0103f6 	mov	w22, w1
    401064a0:	911ac084 	add	x4, x4, #0x6b0
    401064a4:	52820002 	mov	w2, #0x1000                	// #4096
    401064a8:	2a0103e0 	mov	w0, w1
    401064ac:	2a1503e1 	mov	w1, w21
    401064b0:	aa1403e5 	mov	x5, x20
    401064b4:	97fffcd3 	bl	0x40105800
    401064b8:	aa0003f3 	mov	x19, x0
    401064bc:	f100001f 	cmp	x0, #0x0
    401064c0:	540001cc 	b.gt	0x401064f8
    401064c4:	b108027f 	cmn	x19, #0x200
    401064c8:	5400018b 	b.lt	0x401064f8  // b.tstop
    401064cc:	f0000081 	adrp	x1, 0x40119000
    401064d0:	f0000082 	adrp	x2, 0x40119000
    401064d4:	f0000084 	adrp	x4, 0x40119000
    401064d8:	9107dc21 	add	x1, x1, #0x1f7
    401064dc:	91101842 	add	x2, x2, #0x406
    401064e0:	91172c84 	add	x4, x4, #0x5cb
    401064e4:	52800020 	mov	w0, #0x1                   	// #1
    401064e8:	528025e3 	mov	w3, #0x12f                 	// #303
    401064ec:	2a1303e5 	mov	w5, w19
    401064f0:	94003786 	bl	0x40114308
    401064f4:	14000049 	b	0x40106618
    401064f8:	f9403688 	ldr	x8, [x20, #104]
    401064fc:	12003ec9 	and	w9, w22, #0xffff
    40106500:	d5033e9f 	dsb	st
    40106504:	9100c108 	add	x8, x8, #0x30
    40106508:	b9000109 	str	w9, [x8]
    4010650c:	f9403688 	ldr	x8, [x20, #104]
    40106510:	12003ea9 	and	w9, w21, #0xffff
    40106514:	d5033e9f 	dsb	st
    40106518:	9100e108 	add	x8, x8, #0x38
    4010651c:	b9000109 	str	w9, [x8]
    40106520:	f9402e88 	ldr	x8, [x20, #88]
    40106524:	f100051f 	cmp	x8, #0x1
    40106528:	540001c1 	b.ne	0x40106560  // b.any
    4010652c:	f9403688 	ldr	x8, [x20, #104]
    40106530:	d5033e9f 	dsb	st
    40106534:	52820009 	mov	w9, #0x1000                	// #4096
    40106538:	aa1303e0 	mov	x0, x19
    4010653c:	9100f108 	add	x8, x8, #0x3c
    40106540:	b9000109 	str	w9, [x8]
    40106544:	f9403695 	ldr	x21, [x20, #104]
    40106548:	97fffb8b 	bl	0x40105374
    4010654c:	d5033e9f 	dsb	st
    40106550:	d34cfc08 	lsr	x8, x0, #12
    40106554:	910102a9 	add	x9, x21, #0x40
    40106558:	b9000128 	str	w8, [x9]
    4010655c:	14000027 	b	0x401065f8
    40106560:	aa1303e0 	mov	x0, x19
    40106564:	97fffb84 	bl	0x40105374
    40106568:	f9403688 	ldr	x8, [x20, #104]
    4010656c:	d5033e9f 	dsb	st
    40106570:	d360fc09 	lsr	x9, x0, #32
    40106574:	91020108 	add	x8, x8, #0x80
    40106578:	b9000100 	str	w0, [x8]
    4010657c:	f9403688 	ldr	x8, [x20, #104]
    40106580:	d5033e9f 	dsb	st
    40106584:	aa1303e0 	mov	x0, x19
    40106588:	91021108 	add	x8, x8, #0x84
    4010658c:	b9000109 	str	w9, [x8]
    40106590:	97fffb8b 	bl	0x401053bc
    40106594:	f9403688 	ldr	x8, [x20, #104]
    40106598:	d5033e9f 	dsb	st
    4010659c:	d360fc09 	lsr	x9, x0, #32
    401065a0:	91024108 	add	x8, x8, #0x90
    401065a4:	b9000100 	str	w0, [x8]
    401065a8:	f9403688 	ldr	x8, [x20, #104]
    401065ac:	d5033e9f 	dsb	st
    401065b0:	aa1303e0 	mov	x0, x19
    401065b4:	91025108 	add	x8, x8, #0x94
    401065b8:	b9000109 	str	w9, [x8]
    401065bc:	97fffb99 	bl	0x40105420
    401065c0:	f9403688 	ldr	x8, [x20, #104]
    401065c4:	d5033e9f 	dsb	st
    401065c8:	d360fc09 	lsr	x9, x0, #32
    401065cc:	91028108 	add	x8, x8, #0xa0
    401065d0:	b9000100 	str	w0, [x8]
    401065d4:	f9403688 	ldr	x8, [x20, #104]
    401065d8:	d5033e9f 	dsb	st
    401065dc:	91029108 	add	x8, x8, #0xa4
    401065e0:	b9000109 	str	w9, [x8]
    401065e4:	f9403688 	ldr	x8, [x20, #104]
    401065e8:	d5033e9f 	dsb	st
    401065ec:	52800029 	mov	w9, #0x1                   	// #1
    401065f0:	91011108 	add	x8, x8, #0x44
    401065f4:	b9000109 	str	w9, [x8]
    401065f8:	97fff260 	bl	0x40102f78
    401065fc:	aa1303e8 	mov	x8, x19
    40106600:	f8020d1f 	str	xzr, [x8, #32]!
    40106604:	f9400a89 	ldr	x9, [x20, #16]
    40106608:	f9001669 	str	x9, [x19, #40]
    4010660c:	f9000133 	str	x19, [x9]
    40106610:	f9000a88 	str	x8, [x20, #16]
    40106614:	97fff25c 	bl	0x40102f84
    40106618:	aa1303e0 	mov	x0, x19
    4010661c:	a9424ff4 	ldp	x20, x19, [sp, #32]
    40106620:	a94157f6 	ldp	x22, x21, [sp, #16]
    40106624:	a8c37bfd 	ldp	x29, x30, [sp], #48
    40106628:	d65f03c0 	ret
    4010662c:	a9bd7bfd 	stp	x29, x30, [sp, #-48]!
    40106630:	f9000bf5 	str	x21, [sp, #16]
    40106634:	a9024ff4 	stp	x20, x19, [sp, #32]
    40106638:	910003fd 	mov	x29, sp
    4010663c:	f9403408 	ldr	x8, [x0, #104]
    40106640:	91018108 	add	x8, x8, #0x60
    40106644:	b9400108 	ldr	w8, [x8]
    40106648:	d5033d9f 	dsb	ld
    4010664c:	f9403409 	ldr	x9, [x0, #104]
    40106650:	d5033e9f 	dsb	st
    40106654:	91019129 	add	x9, x9, #0x64
    40106658:	b9000128 	str	w8, [x9]
    4010665c:	36000268 	tbz	w8, #0, 0x401066a8
    40106660:	aa0003f3 	mov	x19, x0
    40106664:	97fff245 	bl	0x40102f78
    40106668:	f9400675 	ldr	x21, [x19, #8]
    4010666c:	aa0003f3 	mov	x19, x0
    40106670:	2a1f03f4 	mov	w20, wzr
    40106674:	b40000d5 	cbz	x21, 0x4010668c
    40106678:	aa1503e0 	mov	x0, x21
    4010667c:	97fffb22 	bl	0x40105304
    40106680:	f94012b5 	ldr	x21, [x21, #32]
    40106684:	2a140014 	orr	w20, w0, w20
    40106688:	b5ffff95 	cbnz	x21, 0x40106678
    4010668c:	aa1303e0 	mov	x0, x19
    40106690:	97fff23d 	bl	0x40102f84
    40106694:	2a1403e0 	mov	w0, w20
    40106698:	a9424ff4 	ldp	x20, x19, [sp, #32]
    4010669c:	f9400bf5 	ldr	x21, [sp, #16]
    401066a0:	a8c37bfd 	ldp	x29, x30, [sp], #48
    401066a4:	d65f03c0 	ret
    401066a8:	2a1f03f4 	mov	w20, wzr
    401066ac:	17fffffa 	b	0x40106694
    401066b0:	f9403408 	ldr	x8, [x0, #104]
    401066b4:	d5033e9f 	dsb	st
    401066b8:	52800020 	mov	w0, #0x1                   	// #1
    401066bc:	12003c29 	and	w9, w1, #0xffff
    401066c0:	91014108 	add	x8, x8, #0x50
    401066c4:	b9000109 	str	w9, [x8]
    401066c8:	d65f03c0 	ret
    401066cc:	d10103ff 	sub	sp, sp, #0x40
    401066d0:	a9017bfd 	stp	x29, x30, [sp, #16]
    401066d4:	a90257f6 	stp	x22, x21, [sp, #32]
    401066d8:	a9034ff4 	stp	x20, x19, [sp, #48]
    401066dc:	910043fd 	add	x29, sp, #0x10
    401066e0:	aa0003f6 	mov	x22, x0
    401066e4:	aa0203e0 	mov	x0, x2
    401066e8:	aa0303f3 	mov	x19, x3
    401066ec:	aa0203f4 	mov	x20, x2
    401066f0:	2a0103f5 	mov	w21, w1
    401066f4:	9400225f 	bl	0x4010f070
    401066f8:	aa0003e3 	mov	x3, x0
    401066fc:	d10013a4 	sub	x4, x29, #0x4
    40106700:	aa1603e0 	mov	x0, x22
    40106704:	2a1503e1 	mov	w1, w21
    40106708:	aa1403e2 	mov	x2, x20
    4010670c:	94001079 	bl	0x4010a8f0
    40106710:	b4000160 	cbz	x0, 0x4010673c
    40106714:	91003001 	add	x1, x0, #0xc
    40106718:	910023e0 	add	x0, sp, #0x8
    4010671c:	52800082 	mov	w2, #0x4                   	// #4
    40106720:	94002207 	bl	0x4010ef3c
    40106724:	2a1f03e0 	mov	w0, wzr
    40106728:	b40000d3 	cbz	x19, 0x40106740
    4010672c:	b9400be8 	ldr	w8, [sp, #8]
    40106730:	5ac00908 	rev	w8, w8
    40106734:	b9000268 	str	w8, [x19]
    40106738:	14000002 	b	0x40106740
    4010673c:	b85fc3a0 	ldur	w0, [x29, #-4]
    40106740:	a9434ff4 	ldp	x20, x19, [sp, #48]
    40106744:	a94257f6 	ldp	x22, x21, [sp, #32]
    40106748:	a9417bfd 	ldp	x29, x30, [sp, #16]
    4010674c:	910103ff 	add	sp, sp, #0x40
    40106750:	d65f03c0 	ret
    40106754:	a9bd7bfd 	stp	x29, x30, [sp, #-48]!
    40106758:	f9000bf5 	str	x21, [sp, #16]
    4010675c:	a9024ff4 	stp	x20, x19, [sp, #32]
    40106760:	910003fd 	mov	x29, sp
    40106764:	f0000095 	adrp	x21, 0x40119000
    40106768:	2a0103f3 	mov	w19, w1
    4010676c:	aa0003f4 	mov	x20, x0
    40106770:	910196b5 	add	x21, x21, #0x65
    40106774:	aa1503e0 	mov	x0, x21
    40106778:	9400223e 	bl	0x4010f070
    4010677c:	aa0003e3 	mov	x3, x0
    40106780:	910073a4 	add	x4, x29, #0x1c
    40106784:	aa1403e0 	mov	x0, x20
    40106788:	2a1303e1 	mov	w1, w19
    4010678c:	aa1503e2 	mov	x2, x21
    40106790:	94001058 	bl	0x4010a8f0
    40106794:	b5000120 	cbnz	x0, 0x401067b8
    40106798:	b9401fa8 	ldr	w8, [x29, #28]
    4010679c:	340001a8 	cbz	w8, 0x401067d0
    401067a0:	aa1403e0 	mov	x0, x20
    401067a4:	2a1303e1 	mov	w1, w19
    401067a8:	9400122b 	bl	0x4010b054
    401067ac:	2a0003f3 	mov	w19, w0
    401067b0:	36fffe20 	tbz	w0, #31, 0x40106774
    401067b4:	1400000b 	b	0x401067e0
    401067b8:	91003001 	add	x1, x0, #0xc
    401067bc:	910063a0 	add	x0, x29, #0x18
    401067c0:	52800082 	mov	w2, #0x4                   	// #4
    401067c4:	940021de 	bl	0x4010ef3c
    401067c8:	b9401ba8 	ldr	w8, [x29, #24]
    401067cc:	5ac00901 	rev	w1, w8
    401067d0:	37f80093 	tbnz	w19, #31, 0x401067e0
    401067d4:	aa1403e0 	mov	x0, x20
    401067d8:	940012b0 	bl	0x4010b298
    401067dc:	2a0003f3 	mov	w19, w0
    401067e0:	2a1303e0 	mov	w0, w19
    401067e4:	a9424ff4 	ldp	x20, x19, [sp, #32]
    401067e8:	f9400bf5 	ldr	x21, [sp, #16]
    401067ec:	a8c37bfd 	ldp	x29, x30, [sp], #48
    401067f0:	d65f03c0 	ret
    401067f4:	a9bd7bfd 	stp	x29, x30, [sp, #-48]!
    401067f8:	f9000bf5 	str	x21, [sp, #16]
    401067fc:	a9024ff4 	stp	x20, x19, [sp, #32]
    40106800:	910003fd 	mov	x29, sp
    40106804:	aa0003f4 	mov	x20, x0
    40106808:	97ffffd3 	bl	0x40106754
    4010680c:	2a0003f3 	mov	w19, w0
    40106810:	37f80320 	tbnz	w0, #31, 0x40106874
    40106814:	d0000095 	adrp	x21, 0x40118000
    40106818:	913faab5 	add	x21, x21, #0xfea
    4010681c:	aa1503e0 	mov	x0, x21
    40106820:	94002214 	bl	0x4010f070
    40106824:	aa0003e3 	mov	x3, x0
    40106828:	910073a4 	add	x4, x29, #0x1c
    4010682c:	aa1403e0 	mov	x0, x20
    40106830:	2a1303e1 	mov	w1, w19
    40106834:	aa1503e2 	mov	x2, x21
    40106838:	9400102e 	bl	0x4010a8f0
    4010683c:	b4000100 	cbz	x0, 0x4010685c
    40106840:	91003001 	add	x1, x0, #0xc
    40106844:	910063a0 	add	x0, x29, #0x18
    40106848:	52800082 	mov	w2, #0x4                   	// #4
    4010684c:	940021bc 	bl	0x4010ef3c
    40106850:	b9401ba8 	ldr	w8, [x29, #24]
    40106854:	5ac00908 	rev	w8, w8
    40106858:	14000003 	b	0x40106864
    4010685c:	b9401fb3 	ldr	w19, [x29, #28]
    40106860:	37f800b3 	tbnz	w19, #31, 0x40106874
    40106864:	51000509 	sub	w9, w8, #0x1
    40106868:	71000d3f 	cmp	w9, #0x3
    4010686c:	128001a9 	mov	w9, #0xfffffff2            	// #-14
    40106870:	1a888133 	csel	w19, w9, w8, hi  // hi = pmore
    40106874:	2a1303e0 	mov	w0, w19
    40106878:	a9424ff4 	ldp	x20, x19, [sp, #32]
    4010687c:	f9400bf5 	ldr	x21, [sp, #16]
    40106880:	a8c37bfd 	ldp	x29, x30, [sp], #48
    40106884:	d65f03c0 	ret
    40106888:	d10203ff 	sub	sp, sp, #0x80
    4010688c:	a9027bfd 	stp	x29, x30, [sp, #32]
    40106890:	a9036ffc 	stp	x28, x27, [sp, #48]
    40106894:	a90467fa 	stp	x26, x25, [sp, #64]
    40106898:	a9055ff8 	stp	x24, x23, [sp, #80]
    4010689c:	a90657f6 	stp	x22, x21, [sp, #96]
    401068a0:	a9074ff4 	stp	x20, x19, [sp, #112]
    401068a4:	910083fd 	add	x29, sp, #0x20
    401068a8:	aa0203f4 	mov	x20, x2
    401068ac:	2a0103f5 	mov	w21, w1
    401068b0:	aa0003f3 	mov	x19, x0
    401068b4:	940011e8 	bl	0x4010b054
    401068b8:	37f816c0 	tbnz	w0, #31, 0x40106b90
    401068bc:	2a0003fa 	mov	w26, w0
    401068c0:	aa1303e0 	mov	x0, x19
    401068c4:	2a1a03e1 	mov	w1, w26
    401068c8:	9400096d 	bl	0x40108e7c
    401068cc:	2a0003f8 	mov	w24, w0
    401068d0:	aa1303e0 	mov	x0, x19
    401068d4:	2a1a03e1 	mov	w1, w26
    401068d8:	94000982 	bl	0x40108ee0
    401068dc:	51000708 	sub	w8, w24, #0x1
    401068e0:	71000d1f 	cmp	w8, #0x3
    401068e4:	540013a8 	b.hi	0x40106b58  // b.pmore
    401068e8:	2a0003f9 	mov	w25, w0
    401068ec:	7100001f 	cmp	w0, #0x0
    401068f0:	5400134d 	b.le	0x40106b58
    401068f4:	531e7708 	lsl	w8, w24, #2
    401068f8:	93407d02 	sxtw	x2, w8
    401068fc:	910033e0 	add	x0, sp, #0xc
    40106900:	aa1403e1 	mov	x1, x20
    40106904:	910033fb 	add	x27, sp, #0xc
    40106908:	9400218d 	bl	0x4010ef3c
    4010690c:	aa1303e0 	mov	x0, x19
    40106910:	2a1a03e1 	mov	w1, w26
    40106914:	940011d0 	bl	0x4010b054
    40106918:	37f814e0 	tbnz	w0, #31, 0x40106bb4
    4010691c:	f0000095 	adrp	x21, 0x40119000
    40106920:	9103eeb5 	add	x21, x21, #0xfb
    40106924:	1400000a 	b	0x4010694c
    40106928:	5ac00908 	rev	w8, w8
    4010692c:	aa1303e0 	mov	x0, x19
    40106930:	2a1603e1 	mov	w1, w22
    40106934:	b83cdb68 	str	w8, [x27, w28, sxtw #2]
    40106938:	940011c7 	bl	0x4010b054
    4010693c:	2a1603fa 	mov	w26, w22
    40106940:	2a1403f8 	mov	w24, w20
    40106944:	2a1703f9 	mov	w25, w23
    40106948:	37f81660 	tbnz	w0, #31, 0x40106c14
    4010694c:	2a0003f6 	mov	w22, w0
    40106950:	aa1303e0 	mov	x0, x19
    40106954:	2a1603e1 	mov	w1, w22
    40106958:	94000949 	bl	0x40108e7c
    4010695c:	2a0003f4 	mov	w20, w0
    40106960:	aa1303e0 	mov	x0, x19
    40106964:	2a1603e1 	mov	w1, w22
    40106968:	9400095e 	bl	0x40108ee0
    4010696c:	5100069c 	sub	w28, w20, #0x1
    40106970:	71000f9f 	cmp	w28, #0x3
    40106974:	54001348 	b.hi	0x40106bdc  // b.pmore
    40106978:	2a0003f7 	mov	w23, w0
    4010697c:	7100001f 	cmp	w0, #0x0
    40106980:	540012ed 	b.le	0x40106bdc
    40106984:	aa1303e0 	mov	x0, x19
    40106988:	2a1603e1 	mov	w1, w22
    4010698c:	aa1f03e2 	mov	x2, xzr
    40106990:	94000f4e 	bl	0x4010a6c8
    40106994:	d10013a3 	sub	x3, x29, #0x4
    40106998:	aa1303e0 	mov	x0, x19
    4010699c:	2a1a03e1 	mov	w1, w26
    401069a0:	aa1503e2 	mov	x2, x21
    401069a4:	940010b6 	bl	0x4010ac7c
    401069a8:	b4000f40 	cbz	x0, 0x40106b90
    401069ac:	b85fc3a8 	ldur	w8, [x29, #-4]
    401069b0:	34000908 	cbz	w8, 0x40106ad0
    401069b4:	11000d09 	add	w9, w8, #0x3
    401069b8:	7100011f 	cmp	w8, #0x0
    401069bc:	0b19030a 	add	w10, w24, w25
    401069c0:	1a88b128 	csel	w8, w9, w8, lt  // lt = tstop
    401069c4:	13027d08 	asr	w8, w8, #2
    401069c8:	0b140149 	add	w9, w10, w20
    401069cc:	6b09011f 	cmp	w8, w9
    401069d0:	b81fc3a8 	stur	w8, [x29, #-4]
    401069d4:	54000deb 	b.lt	0x40106b90  // b.tstop
    401069d8:	937e7f0d 	sbfiz	x13, x24, #2, #32
    401069dc:	93407f0a 	sxtw	x10, w24
    401069e0:	2a1803eb 	mov	w11, w24
    401069e4:	937e7d2c 	sbfiz	x12, x9, #2, #32
    401069e8:	8b3449ad 	add	x13, x13, w20, uxtw #2
    401069ec:	14000006 	b	0x40106a04
    401069f0:	4b090108 	sub	w8, w8, w9
    401069f4:	6b09011f 	cmp	w8, w9
    401069f8:	8b0c0000 	add	x0, x0, x12
    401069fc:	b81fc3a8 	stur	w8, [x29, #-4]
    40106a00:	54000c8b 	b.lt	0x40106b90  // b.tstop
    40106a04:	34000418 	cbz	w24, 0x40106a84
    40106a08:	aa1f03ef 	mov	x15, xzr
    40106a0c:	aa1f03f0 	mov	x16, xzr
    40106a10:	b86f780e 	ldr	w14, [x0, x15, lsl #2]
    40106a14:	910005ef 	add	x15, x15, #0x1
    40106a18:	6b0f017f 	cmp	w11, w15
    40106a1c:	5ac009ce 	rev	w14, w14
    40106a20:	b3607e0e 	bfi	x14, x16, #32, #32
    40106a24:	aa0e03f0 	mov	x16, x14
    40106a28:	54ffff41 	b.ne	0x40106a10  // b.any
    40106a2c:	34000319 	cbz	w25, 0x40106a8c
    40106a30:	aa1f03f2 	mov	x18, xzr
    40106a34:	aa0d03f0 	mov	x16, x13
    40106a38:	2a1903f1 	mov	w17, w25
    40106a3c:	b870680f 	ldr	w15, [x0, x16]
    40106a40:	71000631 	subs	w17, w17, #0x1
    40106a44:	91001210 	add	x16, x16, #0x4
    40106a48:	5ac009ef 	rev	w15, w15
    40106a4c:	b3607e4f 	bfi	x15, x18, #32, #32
    40106a50:	aa0f03f2 	mov	x18, x15
    40106a54:	54ffff41 	b.ne	0x40106a3c  // b.any
    40106a58:	340001f8 	cbz	w24, 0x40106a94
    40106a5c:	aa1f03e1 	mov	x1, xzr
    40106a60:	910033f1 	add	x17, sp, #0xc
    40106a64:	2a1803f2 	mov	w18, w24
    40106a68:	b8404630 	ldr	w16, [x17], #4
    40106a6c:	71000652 	subs	w18, w18, #0x1
    40106a70:	5ac00a10 	rev	w16, w16
    40106a74:	b3607c30 	bfi	x16, x1, #32, #32
    40106a78:	aa1003e1 	mov	x1, x16
    40106a7c:	54ffff61 	b.ne	0x40106a68  // b.any
    40106a80:	14000006 	b	0x40106a98
    40106a84:	aa1f03ee 	mov	x14, xzr
    40106a88:	35fffd59 	cbnz	w25, 0x40106a30
    40106a8c:	aa1f03ef 	mov	x15, xzr
    40106a90:	35fffe78 	cbnz	w24, 0x40106a5c
    40106a94:	aa1f03f0 	mov	x16, xzr
    40106a98:	cb0e021a 	sub	x26, x16, x14
    40106a9c:	b100075f 	cmn	x26, #0x1
    40106aa0:	54fffa80 	b.eq	0x401069f0  // b.none
    40106aa4:	8b0e01ef 	add	x15, x15, x14
    40106aa8:	eb0f021f 	cmp	x16, x15
    40106aac:	54fffa22 	b.cs	0x401069f0  // b.hs, b.nlast
    40106ab0:	eb0e021f 	cmp	x16, x14
    40106ab4:	54fff9e3 	b.cc	0x401069f0  // b.lo, b.ul, b.last
    40106ab8:	531e7688 	lsl	w8, w20, #2
    40106abc:	8b0a0801 	add	x1, x0, x10, lsl #2
    40106ac0:	93407d02 	sxtw	x2, w8
    40106ac4:	910033e0 	add	x0, sp, #0xc
    40106ac8:	9400211d 	bl	0x4010ef3c
    40106acc:	1400000a 	b	0x40106af4
    40106ad0:	34000198 	cbz	w24, 0x40106b00
    40106ad4:	aa1f03e9 	mov	x9, xzr
    40106ad8:	910033e8 	add	x8, sp, #0xc
    40106adc:	b840450a 	ldr	w10, [x8], #4
    40106ae0:	71000718 	subs	w24, w24, #0x1
    40106ae4:	5ac0095a 	rev	w26, w10
    40106ae8:	b3607d3a 	bfi	x26, x9, #32, #32
    40106aec:	aa1a03e9 	mov	x9, x26
    40106af0:	54ffff61 	b.ne	0x40106adc  // b.any
    40106af4:	35000094 	cbnz	w20, 0x40106b04
    40106af8:	aa1f03f8 	mov	x24, xzr
    40106afc:	1400000b 	b	0x40106b28
    40106b00:	aa1f03fa 	mov	x26, xzr
    40106b04:	aa1f03f8 	mov	x24, xzr
    40106b08:	910033e8 	add	x8, sp, #0xc
    40106b0c:	2a1403e9 	mov	w9, w20
    40106b10:	b840450a 	ldr	w10, [x8], #4
    40106b14:	71000529 	subs	w9, w9, #0x1
    40106b18:	5ac0094a 	rev	w10, w10
    40106b1c:	b3607f0a 	bfi	x10, x24, #32, #32
    40106b20:	aa0a03f8 	mov	x24, x10
    40106b24:	54ffff61 	b.ne	0x40106b10  // b.any
    40106b28:	937e7e82 	sbfiz	x2, x20, #2, #32
    40106b2c:	910033e0 	add	x0, sp, #0xc
    40106b30:	2a1f03e1 	mov	w1, wzr
    40106b34:	94002109 	bl	0x4010ef58
    40106b38:	71000a9f 	cmp	w20, #0x2
    40106b3c:	8b1a0308 	add	x8, x24, x26
    40106b40:	54ffef4b 	b.lt	0x40106928  // b.tstop
    40106b44:	d360fd09 	lsr	x9, x8, #32
    40106b48:	5ac00929 	rev	w9, w9
    40106b4c:	8b34cb6a 	add	x10, x27, w20, sxtw #2
    40106b50:	b81f8149 	stur	w9, [x10, #-8]
    40106b54:	17ffff75 	b	0x40106928
    40106b58:	aa1303e0 	mov	x0, x19
    40106b5c:	2a1503e1 	mov	w1, w21
    40106b60:	aa1f03e2 	mov	x2, xzr
    40106b64:	94000ed9 	bl	0x4010a6c8
    40106b68:	f0000081 	adrp	x1, 0x40119000
    40106b6c:	f0000082 	adrp	x2, 0x40119000
    40106b70:	f0000084 	adrp	x4, 0x40119000
    40106b74:	aa0003e5 	mov	x5, x0
    40106b78:	9117bc21 	add	x1, x1, #0x5ef
    40106b7c:	91190842 	add	x2, x2, #0x642
    40106b80:	9117e484 	add	x4, x4, #0x5f9
    40106b84:	52800020 	mov	w0, #0x1                   	// #1
    40106b88:	52801a43 	mov	w3, #0xd2                  	// #210
    40106b8c:	940035df 	bl	0x40114308
    40106b90:	92800000 	mov	x0, #0xffffffffffffffff    	// #-1
    40106b94:	a9474ff4 	ldp	x20, x19, [sp, #112]
    40106b98:	a94657f6 	ldp	x22, x21, [sp, #96]
    40106b9c:	a9455ff8 	ldp	x24, x23, [sp, #80]
    40106ba0:	a94467fa 	ldp	x26, x25, [sp, #64]
    40106ba4:	a9436ffc 	ldp	x28, x27, [sp, #48]
    40106ba8:	a9427bfd 	ldp	x29, x30, [sp, #32]
    40106bac:	910203ff 	add	sp, sp, #0x80
    40106bb0:	d65f03c0 	ret
    40106bb4:	2a1803f4 	mov	w20, w24
    40106bb8:	aa1f03e9 	mov	x9, xzr
    40106bbc:	910033e8 	add	x8, sp, #0xc
    40106bc0:	b840450a 	ldr	w10, [x8], #4
    40106bc4:	71000694 	subs	w20, w20, #0x1
    40106bc8:	5ac00940 	rev	w0, w10
    40106bcc:	b3607d20 	bfi	x0, x9, #32, #32
    40106bd0:	aa0003e9 	mov	x9, x0
    40106bd4:	54ffff61 	b.ne	0x40106bc0  // b.any
    40106bd8:	17ffffef 	b	0x40106b94
    40106bdc:	aa1303e0 	mov	x0, x19
    40106be0:	2a1a03e1 	mov	w1, w26
    40106be4:	aa1f03e2 	mov	x2, xzr
    40106be8:	94000eb8 	bl	0x4010a6c8
    40106bec:	f0000081 	adrp	x1, 0x40119000
    40106bf0:	f0000082 	adrp	x2, 0x40119000
    40106bf4:	f0000084 	adrp	x4, 0x40119000
    40106bf8:	aa0003e5 	mov	x5, x0
    40106bfc:	9117bc21 	add	x1, x1, #0x5ef
    40106c00:	91190842 	add	x2, x2, #0x642
    40106c04:	9117e484 	add	x4, x4, #0x5f9
    40106c08:	52800020 	mov	w0, #0x1                   	// #1
    40106c0c:	52801d03 	mov	w3, #0xe8                  	// #232
    40106c10:	17ffffdf 	b	0x40106b8c
    40106c14:	35fffd34 	cbnz	w20, 0x40106bb8
    40106c18:	aa1f03e0 	mov	x0, xzr
    40106c1c:	17ffffde 	b	0x40106b94
    40106c20:	a9bb7bfd 	stp	x29, x30, [sp, #-80]!
    40106c24:	f9000bf9 	str	x25, [sp, #16]
    40106c28:	a9025ff8 	stp	x24, x23, [sp, #32]
    40106c2c:	a90357f6 	stp	x22, x21, [sp, #48]
    40106c30:	a9044ff4 	stp	x20, x19, [sp, #64]
    40106c34:	910003fd 	mov	x29, sp
    40106c38:	b4000803 	cbz	x3, 0x40106d38
    40106c3c:	aa0403f5 	mov	x21, x4
    40106c40:	b40007c4 	cbz	x4, 0x40106d38
    40106c44:	aa0303f3 	mov	x19, x3
    40106c48:	2a0203f8 	mov	w24, w2
    40106c4c:	2a0103f4 	mov	w20, w1
    40106c50:	aa0003f6 	mov	x22, x0
    40106c54:	9400088a 	bl	0x40108e7c
    40106c58:	71000c1f 	cmp	w0, #0x3
    40106c5c:	2a0003f7 	mov	w23, w0
    40106c60:	540005e8 	b.hi	0x40106d1c  // b.pmore
    40106c64:	2a0003f9 	mov	w25, w0
    40106c68:	aa1603e0 	mov	x0, x22
    40106c6c:	2a1403e1 	mov	w1, w20
    40106c70:	9400089c 	bl	0x40108ee0
    40106c74:	2a0003f7 	mov	w23, w0
    40106c78:	71000c1f 	cmp	w0, #0x3
    40106c7c:	54000508 	b.hi	0x40106d1c  // b.pmore
    40106c80:	d0000082 	adrp	x2, 0x40118000
    40106c84:	91269842 	add	x2, x2, #0x9a6
    40106c88:	910073a3 	add	x3, x29, #0x1c
    40106c8c:	aa1603e0 	mov	x0, x22
    40106c90:	2a1403e1 	mov	w1, w20
    40106c94:	94000ffa 	bl	0x4010ac7c
    40106c98:	b4000140 	cbz	x0, 0x40106cc0
    40106c9c:	0b1902e8 	add	w8, w23, w25
    40106ca0:	b9401faa 	ldr	w10, [x29, #28]
    40106ca4:	531e7508 	lsl	w8, w8, #2
    40106ca8:	1b187d09 	mul	w9, w8, w24
    40106cac:	0b080128 	add	w8, w9, w8
    40106cb0:	6b08015f 	cmp	w10, w8
    40106cb4:	540000aa 	b.ge	0x40106cc8  // b.tcont
    40106cb8:	12800057 	mov	w23, #0xfffffffd            	// #-3
    40106cbc:	14000018 	b	0x40106d1c
    40106cc0:	b9401fb7 	ldr	w23, [x29, #28]
    40106cc4:	14000016 	b	0x40106d1c
    40106cc8:	93407d28 	sxtw	x8, w9
    40106ccc:	34000177 	cbz	w23, 0x40106cf8
    40106cd0:	0b190929 	add	w9, w9, w25, lsl #2
    40106cd4:	aa1f03ea 	mov	x10, xzr
    40106cd8:	8b29c009 	add	x9, x0, w9, sxtw
    40106cdc:	b840452b 	ldr	w11, [x9], #4
    40106ce0:	710006f7 	subs	w23, w23, #0x1
    40106ce4:	5ac0096b 	rev	w11, w11
    40106ce8:	b3607d4b 	bfi	x11, x10, #32, #32
    40106cec:	aa0b03ea 	mov	x10, x11
    40106cf0:	54ffff61 	b.ne	0x40106cdc  // b.any
    40106cf4:	14000002 	b	0x40106cfc
    40106cf8:	aa1f03eb 	mov	x11, xzr
    40106cfc:	8b080002 	add	x2, x0, x8
    40106d00:	aa1603e0 	mov	x0, x22
    40106d04:	2a1403e1 	mov	w1, w20
    40106d08:	f90002ab 	str	x11, [x21]
    40106d0c:	97fffedf 	bl	0x40106888
    40106d10:	b100041f 	cmn	x0, #0x1
    40106d14:	5a9f13f7 	csetm	w23, eq  // eq = none
    40106d18:	f9000260 	str	x0, [x19]
    40106d1c:	2a1703e0 	mov	w0, w23
    40106d20:	a9444ff4 	ldp	x20, x19, [sp, #64]
    40106d24:	a94357f6 	ldp	x22, x21, [sp, #48]
    40106d28:	a9425ff8 	ldp	x24, x23, [sp, #32]
    40106d2c:	f9400bf9 	ldr	x25, [sp, #16]
    40106d30:	a8c57bfd 	ldp	x29, x30, [sp], #80
    40106d34:	d65f03c0 	ret
    40106d38:	f0000081 	adrp	x1, 0x40119000
    40106d3c:	f0000082 	adrp	x2, 0x40119000
    40106d40:	d0000084 	adrp	x4, 0x40118000
    40106d44:	f0000085 	adrp	x5, 0x40119000
    40106d48:	9117bc21 	add	x1, x1, #0x5ef
    40106d4c:	91190842 	add	x2, x2, #0x642
    40106d50:	912c6c84 	add	x4, x4, #0xb1b
    40106d54:	911840a5 	add	x5, x5, #0x610
    40106d58:	52802083 	mov	w3, #0x104                 	// #260
    40106d5c:	2a1f03e0 	mov	w0, wzr
    40106d60:	9400356a 	bl	0x40114308
    40106d64:	52800060 	mov	w0, #0x3                   	// #3
    40106d68:	97fff0b8 	bl	0x40103048
    40106d6c:	a9bd7bfd 	stp	x29, x30, [sp, #-48]!
    40106d70:	f9000bf5 	str	x21, [sp, #16]
    40106d74:	a9024ff4 	stp	x20, x19, [sp, #32]
    40106d78:	910003fd 	mov	x29, sp
    40106d7c:	aa0203e8 	mov	x8, x2
    40106d80:	f9400042 	ldr	x2, [x2]
    40106d84:	b4000142 	cbz	x2, 0x40106dac
    40106d88:	2a0103f3 	mov	w19, w1
    40106d8c:	aa0003f4 	mov	x20, x0
    40106d90:	91002115 	add	x21, x8, #0x8
    40106d94:	aa1403e0 	mov	x0, x20
    40106d98:	2a1303e1 	mov	w1, w19
    40106d9c:	94001299 	bl	0x4010b800
    40106da0:	36f80080 	tbz	w0, #31, 0x40106db0
    40106da4:	f84086a2 	ldr	x2, [x21], #8
    40106da8:	b5ffff62 	cbnz	x2, 0x40106d94
    40106dac:	12800000 	mov	w0, #0xffffffff            	// #-1
    40106db0:	a9424ff4 	ldp	x20, x19, [sp, #32]
    40106db4:	f9400bf5 	ldr	x21, [sp, #16]
    40106db8:	a8c37bfd 	ldp	x29, x30, [sp], #48
    40106dbc:	d65f03c0 	ret
    40106dc0:	a9bc7bfd 	stp	x29, x30, [sp, #-64]!
    40106dc4:	f9000bf7 	str	x23, [sp, #16]
    40106dc8:	a90257f6 	stp	x22, x21, [sp, #32]
    40106dcc:	a9034ff4 	stp	x20, x19, [sp, #48]
    40106dd0:	910003fd 	mov	x29, sp
    40106dd4:	aa0203e8 	mov	x8, x2
    40106dd8:	f9400042 	ldr	x2, [x2]
    40106ddc:	aa0303f3 	mov	x19, x3
    40106de0:	b4000202 	cbz	x2, 0x40106e20
    40106de4:	2a0103f4 	mov	w20, w1
    40106de8:	aa0003f5 	mov	x21, x0
    40106dec:	aa1f03f6 	mov	x22, xzr
    40106df0:	91002117 	add	x23, x8, #0x8
    40106df4:	aa1503e0 	mov	x0, x21
    40106df8:	2a1403e1 	mov	w1, w20
    40106dfc:	94001281 	bl	0x4010b800
    40106e00:	36f80140 	tbz	w0, #31, 0x40106e28
    40106e04:	f8767ae2 	ldr	x2, [x23, x22, lsl #3]
    40106e08:	910006c8 	add	x8, x22, #0x1
    40106e0c:	aa0803f6 	mov	x22, x8
    40106e10:	b5ffff22 	cbnz	x2, 0x40106df4
    40106e14:	12800000 	mov	w0, #0xffffffff            	// #-1
    40106e18:	2a0803f6 	mov	w22, w8
    40106e1c:	14000003 	b	0x40106e28
    40106e20:	2a1f03f6 	mov	w22, wzr
    40106e24:	12800000 	mov	w0, #0xffffffff            	// #-1
    40106e28:	b9000276 	str	w22, [x19]
    40106e2c:	a9434ff4 	ldp	x20, x19, [sp, #48]
    40106e30:	a94257f6 	ldp	x22, x21, [sp, #32]
    40106e34:	f9400bf7 	ldr	x23, [sp, #16]
    40106e38:	a8c47bfd 	ldp	x29, x30, [sp], #64
    40106e3c:	d65f03c0 	ret
    40106e40:	d10183ff 	sub	sp, sp, #0x60
    40106e44:	a9017bfd 	stp	x29, x30, [sp, #16]
    40106e48:	f90013f9 	str	x25, [sp, #32]
    40106e4c:	a9035ff8 	stp	x24, x23, [sp, #48]
    40106e50:	a90457f6 	stp	x22, x21, [sp, #64]
    40106e54:	a9054ff4 	stp	x20, x19, [sp, #80]
    40106e58:	910043fd 	add	x29, sp, #0x10
    40106e5c:	b4000903 	cbz	x3, 0x40106f7c
    40106e60:	aa0403f3 	mov	x19, x4
    40106e64:	b40008c4 	cbz	x4, 0x40106f7c
    40106e68:	aa0303f5 	mov	x21, x3
    40106e6c:	2a0203f4 	mov	w20, w2
    40106e70:	2a0103f6 	mov	w22, w1
    40106e74:	aa0003f7 	mov	x23, x0
    40106e78:	97fffe37 	bl	0x40106754
    40106e7c:	37f802e0 	tbnz	w0, #31, 0x40106ed8
    40106e80:	d0000099 	adrp	x25, 0x40118000
    40106e84:	913fab39 	add	x25, x25, #0xfea
    40106e88:	2a0003f8 	mov	w24, w0
    40106e8c:	aa1903e0 	mov	x0, x25
    40106e90:	94002078 	bl	0x4010f070
    40106e94:	aa0003e3 	mov	x3, x0
    40106e98:	910073a4 	add	x4, x29, #0x1c
    40106e9c:	aa1703e0 	mov	x0, x23
    40106ea0:	2a1803e1 	mov	w1, w24
    40106ea4:	aa1903e2 	mov	x2, x25
    40106ea8:	94000e92 	bl	0x4010a8f0
    40106eac:	b40001a0 	cbz	x0, 0x40106ee0
    40106eb0:	91003001 	add	x1, x0, #0xc
    40106eb4:	910063a0 	add	x0, x29, #0x18
    40106eb8:	52800082 	mov	w2, #0x4                   	// #4
    40106ebc:	94002020 	bl	0x4010ef3c
    40106ec0:	b9401ba8 	ldr	w8, [x29, #24]
    40106ec4:	5ac00918 	rev	w24, w8
    40106ec8:	51000708 	sub	w8, w24, #0x1
    40106ecc:	2a180108 	orr	w8, w8, w24
    40106ed0:	71000d1f 	cmp	w8, #0x3
    40106ed4:	540000a9 	b.ls	0x40106ee8  // b.plast
    40106ed8:	128001a0 	mov	w0, #0xfffffff2            	// #-14
    40106edc:	14000021 	b	0x40106f60
    40106ee0:	b9401fa8 	ldr	w8, [x29, #28]
    40106ee4:	37ffffa8 	tbnz	w8, #31, 0x40106ed8
    40106ee8:	f0000082 	adrp	x2, 0x40119000
    40106eec:	9118a842 	add	x2, x2, #0x62a
    40106ef0:	d10013a3 	sub	x3, x29, #0x4
    40106ef4:	aa1703e0 	mov	x0, x23
    40106ef8:	2a1603e1 	mov	w1, w22
    40106efc:	94000f60 	bl	0x4010ac7c
    40106f00:	b4000060 	cbz	x0, 0x40106f0c
    40106f04:	12800180 	mov	w0, #0xfffffff3            	// #-13
    40106f08:	14000016 	b	0x40106f60
    40106f0c:	f0000082 	adrp	x2, 0x40119000
    40106f10:	910fec42 	add	x2, x2, #0x3fb
    40106f14:	d10013a3 	sub	x3, x29, #0x4
    40106f18:	aa1703e0 	mov	x0, x23
    40106f1c:	2a1603e1 	mov	w1, w22
    40106f20:	94000f57 	bl	0x4010ac7c
    40106f24:	b40000e0 	cbz	x0, 0x40106f40
    40106f28:	b85fc3aa 	ldur	w10, [x29, #-4]
    40106f2c:	531e7709 	lsl	w9, w24, #2
    40106f30:	1100068b 	add	w11, w20, #0x1
    40106f34:	1b0b7d2b 	mul	w11, w9, w11
    40106f38:	6b0b015f 	cmp	w10, w11
    40106f3c:	54000062 	b.cs	0x40106f48  // b.hs, b.nlast
    40106f40:	12800000 	mov	w0, #0xffffffff            	// #-1
    40106f44:	14000007 	b	0x40106f60
    40106f48:	aa0003e8 	mov	x8, x0
    40106f4c:	1b147d29 	mul	w9, w9, w20
    40106f50:	2a1f03e0 	mov	w0, wzr
    40106f54:	8b090108 	add	x8, x8, x9
    40106f58:	b90002b8 	str	w24, [x21]
    40106f5c:	f9000268 	str	x8, [x19]
    40106f60:	a9454ff4 	ldp	x20, x19, [sp, #80]
    40106f64:	a94457f6 	ldp	x22, x21, [sp, #64]
    40106f68:	a9435ff8 	ldp	x24, x23, [sp, #48]
    40106f6c:	f94013f9 	ldr	x25, [sp, #32]
    40106f70:	a9417bfd 	ldp	x29, x30, [sp, #16]
    40106f74:	910183ff 	add	sp, sp, #0x60
    40106f78:	d65f03c0 	ret
    40106f7c:	f0000081 	adrp	x1, 0x40119000
    40106f80:	f0000082 	adrp	x2, 0x40119000
    40106f84:	d0000084 	adrp	x4, 0x40118000
    40106f88:	f0000085 	adrp	x5, 0x40119000
    40106f8c:	9117bc21 	add	x1, x1, #0x5ef
    40106f90:	91190842 	add	x2, x2, #0x642
    40106f94:	912c6c84 	add	x4, x4, #0xb1b
    40106f98:	911874a5 	add	x5, x5, #0x61d
    40106f9c:	52802963 	mov	w3, #0x14b                 	// #331
    40106fa0:	2a1f03e0 	mov	w0, wzr
    40106fa4:	940034d9 	bl	0x40114308
    40106fa8:	52800060 	mov	w0, #0x3                   	// #3
    40106fac:	97fff027 	bl	0x40103048
    40106fb0:	a9bf7bfd 	stp	x29, x30, [sp, #-16]!
    40106fb4:	910003fd 	mov	x29, sp
    40106fb8:	aa1f03e3 	mov	x3, xzr
    40106fbc:	94000f30 	bl	0x4010ac7c
    40106fc0:	f100001f 	cmp	x0, #0x0
    40106fc4:	1a9f07e0 	cset	w0, ne  // ne = any
    40106fc8:	a8c17bfd 	ldp	x29, x30, [sp], #16
    40106fcc:	d65f03c0 	ret
    40106fd0:	d10103ff 	sub	sp, sp, #0x40
    40106fd4:	a9017bfd 	stp	x29, x30, [sp, #16]
    40106fd8:	f90013f5 	str	x21, [sp, #32]
    40106fdc:	a9034ff4 	stp	x20, x19, [sp, #48]
    40106fe0:	910043fd 	add	x29, sp, #0x10
    40106fe4:	b4000345 	cbz	x5, 0x4010704c
    40106fe8:	aa0303f5 	mov	x21, x3
    40106fec:	b4000303 	cbz	x3, 0x4010704c
    40106ff0:	aa0403f4 	mov	x20, x4
    40106ff4:	b40002c4 	cbz	x4, 0x4010704c
    40106ff8:	d10013a3 	sub	x3, x29, #0x4
    40106ffc:	910063a4 	add	x4, x29, #0x18
    40107000:	aa0503f3 	mov	x19, x5
    40107004:	97ffff8f 	bl	0x40106e40
    40107008:	37f80180 	tbnz	w0, #31, 0x40107038
    4010700c:	f9400fa8 	ldr	x8, [x29, #24]
    40107010:	2a1f03e0 	mov	w0, wzr
    40107014:	b9400109 	ldr	w9, [x8]
    40107018:	5ac00929 	rev	w9, w9
    4010701c:	b90002a9 	str	w9, [x21]
    40107020:	b9400509 	ldr	w9, [x8, #4]
    40107024:	5ac00929 	rev	w9, w9
    40107028:	b9000289 	str	w9, [x20]
    4010702c:	b9400908 	ldr	w8, [x8, #8]
    40107030:	5ac00908 	rev	w8, w8
    40107034:	b9000268 	str	w8, [x19]
    40107038:	a9434ff4 	ldp	x20, x19, [sp, #48]
    4010703c:	f94013f5 	ldr	x21, [sp, #32]
    40107040:	a9417bfd 	ldp	x29, x30, [sp, #16]
    40107044:	910103ff 	add	sp, sp, #0x40
    40107048:	d65f03c0 	ret
    4010704c:	d0000081 	adrp	x1, 0x40119000
    40107050:	d0000082 	adrp	x2, 0x40119000
    40107054:	b0000084 	adrp	x4, 0x40118000
    40107058:	d0000085 	adrp	x5, 0x40119000
    4010705c:	9117bc21 	add	x1, x1, #0x5ef
    40107060:	9118f842 	add	x2, x2, #0x63e
    40107064:	912c6c84 	add	x4, x4, #0xb1b
    40107068:	911920a5 	add	x5, x5, #0x648
    4010706c:	52800563 	mov	w3, #0x2b                  	// #43
    40107070:	2a1f03e0 	mov	w0, wzr
    40107074:	940034a5 	bl	0x40114308
    40107078:	52800060 	mov	w0, #0x3                   	// #3
    4010707c:	97ffeff3 	bl	0x40103048
    40107080:	a9be7bfd 	stp	x29, x30, [sp, #-32]!
    40107084:	a9014ff4 	stp	x20, x19, [sp, #16]
    40107088:	910003fd 	mov	x29, sp
    4010708c:	aa0103f3 	mov	x19, x1
    40107090:	aa0003f4 	mov	x20, x0
    40107094:	9400008f 	bl	0x401072d0
    40107098:	340000c0 	cbz	w0, 0x401070b0
    4010709c:	aa1403e0 	mov	x0, x20
    401070a0:	aa1303e1 	mov	x1, x19
    401070a4:	9400020f 	bl	0x401078e0
    401070a8:	34000040 	cbz	w0, 0x401070b0
    401070ac:	f900027f 	str	xzr, [x19]
    401070b0:	a9414ff4 	ldp	x20, x19, [sp, #16]
    401070b4:	a8c27bfd 	ldp	x29, x30, [sp], #32
    401070b8:	d65f03c0 	ret
    401070bc:	a9bf7bfd 	stp	x29, x30, [sp, #-16]!
    401070c0:	910003fd 	mov	x29, sp
    401070c4:	7100081f 	cmp	w0, #0x2
    401070c8:	54000322 	b.cs	0x4010712c  // b.hs, b.nlast
    401070cc:	7100041f 	cmp	w0, #0x1
    401070d0:	540000e0 	b.eq	0x401070ec  // b.none
    401070d4:	35000260 	cbnz	w0, 0x40107120
    401070d8:	11008020 	add	w0, w1, #0x20
    401070dc:	710ff01f 	cmp	w0, #0x3fc
    401070e0:	540003a2 	b.cs	0x40107154  // b.hs, b.nlast
    401070e4:	a8c17bfd 	ldp	x29, x30, [sp], #16
    401070e8:	d65f03c0 	ret
    401070ec:	11004020 	add	w0, w1, #0x10
    401070f0:	7100801f 	cmp	w0, #0x20
    401070f4:	54ffff83 	b.cc	0x401070e4  // b.lo, b.ul, b.last
    401070f8:	d0000081 	adrp	x1, 0x40119000
    401070fc:	d0000082 	adrp	x2, 0x40119000
    40107100:	b0000084 	adrp	x4, 0x40118000
    40107104:	d0000085 	adrp	x5, 0x40119000
    40107108:	911a6821 	add	x1, x1, #0x69a
    4010710c:	911a9042 	add	x2, x2, #0x6a4
    40107110:	912c6c84 	add	x4, x4, #0xb1b
    40107114:	911b68a5 	add	x5, x5, #0x6da
    40107118:	52800963 	mov	w3, #0x4b                  	// #75
    4010711c:	14000017 	b	0x40107178
    40107120:	12800000 	mov	w0, #0xffffffff            	// #-1
    40107124:	a8c17bfd 	ldp	x29, x30, [sp], #16
    40107128:	d65f03c0 	ret
    4010712c:	d0000081 	adrp	x1, 0x40119000
    40107130:	d0000082 	adrp	x2, 0x40119000
    40107134:	b0000084 	adrp	x4, 0x40118000
    40107138:	d0000085 	adrp	x5, 0x40119000
    4010713c:	911a6821 	add	x1, x1, #0x69a
    40107140:	911a9042 	add	x2, x2, #0x6a4
    40107144:	912c6c84 	add	x4, x4, #0xb1b
    40107148:	911ac4a5 	add	x5, x5, #0x6b1
    4010714c:	52800863 	mov	w3, #0x43                  	// #67
    40107150:	1400000a 	b	0x40107178
    40107154:	d0000081 	adrp	x1, 0x40119000
    40107158:	d0000082 	adrp	x2, 0x40119000
    4010715c:	b0000084 	adrp	x4, 0x40118000
    40107160:	d0000085 	adrp	x5, 0x40119000
    40107164:	911a6821 	add	x1, x1, #0x69a
    40107168:	911a9042 	add	x2, x2, #0x6a4
    4010716c:	912c6c84 	add	x4, x4, #0xb1b
    40107170:	911b20a5 	add	x5, x5, #0x6c8
    40107174:	528008e3 	mov	w3, #0x47                  	// #71
    40107178:	2a1f03e0 	mov	w0, wzr
    4010717c:	94003463 	bl	0x40114308
    40107180:	52800060 	mov	w0, #0x3                   	// #3
    40107184:	97ffefb1 	bl	0x40103048
    40107188:	a9be7bfd 	stp	x29, x30, [sp, #-32]!
    4010718c:	a9014ff4 	stp	x20, x19, [sp, #16]
    40107190:	910003fd 	mov	x29, sp
    40107194:	2a0103f3 	mov	w19, w1
    40107198:	2a0003f4 	mov	w20, w0
    4010719c:	97ffef77 	bl	0x40102f78
    401071a0:	7100429f 	cmp	w20, #0x10
    401071a4:	54000142 	b.cs	0x401071cc  // b.hs, b.nlast
    401071a8:	900000a8 	adrp	x8, 0x4011b000
    401071ac:	f9410908 	ldr	x8, [x8, #528]
    401071b0:	12001e69 	and	w9, w19, #0xff
    401071b4:	2a094289 	orr	w9, w20, w9, lsl #16
    401071b8:	913c0108 	add	x8, x8, #0xf00
    401071bc:	b9000109 	str	w9, [x8]
    401071c0:	a9414ff4 	ldp	x20, x19, [sp, #16]
    401071c4:	a8c27bfd 	ldp	x29, x30, [sp], #32
    401071c8:	17ffef6f 	b	0x40102f84
    401071cc:	d0000081 	adrp	x1, 0x40119000
    401071d0:	d0000082 	adrp	x2, 0x40119000
    401071d4:	b0000084 	adrp	x4, 0x40118000
    401071d8:	d0000085 	adrp	x5, 0x40119000
    401071dc:	911a6821 	add	x1, x1, #0x69a
    401071e0:	911ba842 	add	x2, x2, #0x6ea
    401071e4:	912c6c84 	add	x4, x4, #0xb1b
    401071e8:	911bcca5 	add	x5, x5, #0x6f3
    401071ec:	52801363 	mov	w3, #0x9b                  	// #155
    401071f0:	2a1f03e0 	mov	w0, wzr
    401071f4:	94003445 	bl	0x40114308
    401071f8:	52800060 	mov	w0, #0x3                   	// #3
    401071fc:	97ffef93 	bl	0x40103048
    40107200:	a9be7bfd 	stp	x29, x30, [sp, #-32]!
    40107204:	f9000bf3 	str	x19, [sp, #16]
    40107208:	910003fd 	mov	x29, sp
    4010720c:	2a0003f3 	mov	w19, w0
    40107210:	97ffef5a 	bl	0x40102f78
    40107214:	7100427f 	cmp	w19, #0x10
    40107218:	54000122 	b.cs	0x4010723c  // b.hs, b.nlast
    4010721c:	900000a8 	adrp	x8, 0x4011b000
    40107220:	f9410908 	ldr	x8, [x8, #528]
    40107224:	32080269 	orr	w9, w19, #0x1000000
    40107228:	913c0108 	add	x8, x8, #0xf00
    4010722c:	b9000109 	str	w9, [x8]
    40107230:	f9400bf3 	ldr	x19, [sp, #16]
    40107234:	a8c27bfd 	ldp	x29, x30, [sp], #32
    40107238:	17ffef53 	b	0x40102f84
    4010723c:	d0000081 	adrp	x1, 0x40119000
    40107240:	d0000082 	adrp	x2, 0x40119000
    40107244:	b0000084 	adrp	x4, 0x40118000
    40107248:	d0000085 	adrp	x5, 0x40119000
    4010724c:	911a6821 	add	x1, x1, #0x69a
    40107250:	911ba842 	add	x2, x2, #0x6ea
    40107254:	912c6c84 	add	x4, x4, #0xb1b
    40107258:	911bcca5 	add	x5, x5, #0x6f3
    4010725c:	52801363 	mov	w3, #0x9b                  	// #155
    40107260:	2a1f03e0 	mov	w0, wzr
    40107264:	94003429 	bl	0x40114308
    40107268:	52800060 	mov	w0, #0x3                   	// #3
    4010726c:	97ffef77 	bl	0x40103048
    40107270:	a9bf7bfd 	stp	x29, x30, [sp, #-16]!
    40107274:	910003fd 	mov	x29, sp
    40107278:	7100401f 	cmp	w0, #0x10
    4010727c:	54000102 	b.cs	0x4010729c  // b.hs, b.nlast
    40107280:	900000a8 	adrp	x8, 0x4011b000
    40107284:	f9410908 	ldr	x8, [x8, #528]
    40107288:	32070009 	orr	w9, w0, #0x2000000
    4010728c:	913c0108 	add	x8, x8, #0xf00
    40107290:	b9000109 	str	w9, [x8]
    40107294:	a8c17bfd 	ldp	x29, x30, [sp], #16
    40107298:	d65f03c0 	ret
    4010729c:	d0000081 	adrp	x1, 0x40119000
    401072a0:	d0000082 	adrp	x2, 0x40119000
    401072a4:	b0000084 	adrp	x4, 0x40118000
    401072a8:	d0000085 	adrp	x5, 0x40119000
    401072ac:	911a6821 	add	x1, x1, #0x69a
    401072b0:	911ba842 	add	x2, x2, #0x6ea
    401072b4:	912c6c84 	add	x4, x4, #0xb1b
    401072b8:	911bcca5 	add	x5, x5, #0x6f3
    401072bc:	52801363 	mov	w3, #0x9b                  	// #155
    401072c0:	2a1f03e0 	mov	w0, wzr
    401072c4:	94003411 	bl	0x40114308
    401072c8:	52800060 	mov	w0, #0x3                   	// #3
    401072cc:	97ffef5f 	bl	0x40103048
    401072d0:	a9bc7bfd 	stp	x29, x30, [sp, #-64]!
    401072d4:	f9000bf7 	str	x23, [sp, #16]
    401072d8:	a90257f6 	stp	x22, x21, [sp, #32]
    401072dc:	a9034ff4 	stp	x20, x19, [sp, #48]
    401072e0:	910003fd 	mov	x29, sp
    401072e4:	900000a8 	adrp	x8, 0x4011b000
    401072e8:	b000008a 	adrp	x10, 0x40118000
    401072ec:	91083508 	add	x8, x8, #0x20d
    401072f0:	52800029 	mov	w9, #0x1                   	// #1
    401072f4:	9104814a 	add	x10, x10, #0x120
    401072f8:	39000109 	strb	w9, [x8]
    401072fc:	a943ad49 	ldp	x9, x11, [x10, #56]
    40107300:	b0000082 	adrp	x2, 0x40118000
    40107304:	aa0103f3 	mov	x19, x1
    40107308:	9105e042 	add	x2, x2, #0x178
    4010730c:	f805b109 	stur	x9, [x8, #91]
    40107310:	a944a54c 	ldp	x12, x9, [x10, #72]
    40107314:	f806310b 	stur	x11, [x8, #99]
    40107318:	12800001 	mov	w1, #0xffffffff            	// #-1
    4010731c:	aa0003f5 	mov	x21, x0
    40107320:	f806b10c 	stur	x12, [x8, #107]
    40107324:	a941b14b 	ldp	x11, x12, [x10, #24]
    40107328:	f8073109 	stur	x9, [x8, #115]
    4010732c:	12800014 	mov	w20, #0xffffffff            	// #-1
    40107330:	f803b10b 	stur	x11, [x8, #59]
    40107334:	a942b54b 	ldp	x11, x13, [x10, #40]
    40107338:	f804310c 	stur	x12, [x8, #67]
    4010733c:	f940014c 	ldr	x12, [x10]
    40107340:	a940a54a 	ldp	x10, x9, [x10, #8]
    40107344:	f804b10b 	stur	x11, [x8, #75]
    40107348:	f805310d 	stur	x13, [x8, #83]
    4010734c:	f802310c 	stur	x12, [x8, #35]
    40107350:	f802b10a 	stur	x10, [x8, #43]
    40107354:	f8033109 	stur	x9, [x8, #51]
    40107358:	97fffe85 	bl	0x40106d6c
    4010735c:	37f80580 	tbnz	w0, #31, 0x4010740c
    40107360:	900000a3 	adrp	x3, 0x4011b000
    40107364:	2a0003f6 	mov	w22, w0
    40107368:	91084063 	add	x3, x3, #0x210
    4010736c:	91002064 	add	x4, x3, #0x8
    40107370:	aa1503e0 	mov	x0, x21
    40107374:	2a1603e1 	mov	w1, w22
    40107378:	2a1f03e2 	mov	w2, wzr
    4010737c:	97fffe29 	bl	0x40106c20
    40107380:	37f801e0 	tbnz	w0, #31, 0x401073bc
    40107384:	900000a3 	adrp	x3, 0x4011b000
    40107388:	91088063 	add	x3, x3, #0x220
    4010738c:	91002064 	add	x4, x3, #0x8
    40107390:	52800022 	mov	w2, #0x1                   	// #1
    40107394:	aa1503e0 	mov	x0, x21
    40107398:	2a1603e1 	mov	w1, w22
    4010739c:	52800037 	mov	w23, #0x1                   	// #1
    401073a0:	97fffe20 	bl	0x40106c20
    401073a4:	37f80200 	tbnz	w0, #31, 0x401073e4
    401073a8:	900000a8 	adrp	x8, 0x4011b000
    401073ac:	2a1f03f4 	mov	w20, wzr
    401073b0:	91082108 	add	x8, x8, #0x208
    401073b4:	39001117 	strb	w23, [x8, #4]
    401073b8:	14000016 	b	0x40107410
    401073bc:	d0000081 	adrp	x1, 0x40119000
    401073c0:	d0000082 	adrp	x2, 0x40119000
    401073c4:	d0000084 	adrp	x4, 0x40119000
    401073c8:	2a0003f4 	mov	w20, w0
    401073cc:	911a6821 	add	x1, x1, #0x69a
    401073d0:	911ba842 	add	x2, x2, #0x6ea
    401073d4:	911c0484 	add	x4, x4, #0x701
    401073d8:	52800020 	mov	w0, #0x1                   	// #1
    401073dc:	52803d63 	mov	w3, #0x1eb                 	// #491
    401073e0:	1400000a 	b	0x40107408
    401073e4:	d0000081 	adrp	x1, 0x40119000
    401073e8:	d0000082 	adrp	x2, 0x40119000
    401073ec:	d0000084 	adrp	x4, 0x40119000
    401073f0:	2a0003f4 	mov	w20, w0
    401073f4:	911a6821 	add	x1, x1, #0x69a
    401073f8:	911ba842 	add	x2, x2, #0x6ea
    401073fc:	911cac84 	add	x4, x4, #0x72b
    40107400:	52800020 	mov	w0, #0x1                   	// #1
    40107404:	52803e43 	mov	w3, #0x1f2                 	// #498
    40107408:	940033c0 	bl	0x40114308
    4010740c:	aa1f03e8 	mov	x8, xzr
    40107410:	f9000268 	str	x8, [x19]
    40107414:	2a1403e0 	mov	w0, w20
    40107418:	a9434ff4 	ldp	x20, x19, [sp, #48]
    4010741c:	a94257f6 	ldp	x22, x21, [sp, #32]
    40107420:	f9400bf7 	ldr	x23, [sp, #16]
    40107424:	a8c47bfd 	ldp	x29, x30, [sp], #64
    40107428:	d65f03c0 	ret
    4010742c:	900000a8 	adrp	x8, 0x4011b000
    40107430:	91083908 	add	x8, x8, #0x20e
    40107434:	f8402109 	ldur	x9, [x8, #2]
    40107438:	5280002a 	mov	w10, #0x1                   	// #1
    4010743c:	3900010a 	strb	w10, [x8]
    40107440:	b9400129 	ldr	w9, [x9]
    40107444:	f840210a 	ldur	x10, [x8, #2]
    40107448:	121f7929 	and	w9, w9, #0xfffffffe
    4010744c:	b9000149 	str	w9, [x10]
    40107450:	f8402108 	ldur	x8, [x8, #2]
    40107454:	52807b89 	mov	w9, #0x3dc                 	// #988
    40107458:	91001108 	add	x8, x8, #0x4
    4010745c:	b9400108 	ldr	w8, [x8]
    40107460:	531b1108 	ubfiz	w8, w8, #5, #5
    40107464:	710f711f 	cmp	w8, #0x3dc
    40107468:	1a893108 	csel	w8, w8, w9, cc  // cc = lo, ul, last
    4010746c:	340005a8 	cbz	w8, 0x40107520
    40107470:	11008108 	add	w8, w8, #0x20
    40107474:	5281040a 	mov	w10, #0x820                 	// #2080
    40107478:	900000a9 	adrp	x9, 0x4011b000
    4010747c:	1280000b 	mov	w11, #0xffffffff            	// #-1
    40107480:	f941092c 	ldr	x12, [x9, #528]
    40107484:	d11ff14d 	sub	x13, x10, #0x7fc
    40107488:	eb0801bf 	cmp	x13, x8
    4010748c:	8b0c014c 	add	x12, x10, x12
    40107490:	9100114a 	add	x10, x10, #0x4
    40107494:	b900018b 	str	w11, [x12]
    40107498:	54ffff43 	b.cc	0x40107480  // b.lo, b.ul, b.last
    4010749c:	5280040a 	mov	w10, #0x20                  	// #32
    401074a0:	5281810b 	mov	w11, #0xc08                 	// #3080
    401074a4:	f941092d 	ldr	x13, [x9, #528]
    401074a8:	9100414a 	add	x10, x10, #0x10
    401074ac:	eb08015f 	cmp	x10, x8
    401074b0:	2a1f03ec 	mov	w12, wzr
    401074b4:	8b0d016d 	add	x13, x11, x13
    401074b8:	9100116b 	add	x11, x11, #0x4
    401074bc:	b90001ac 	str	w12, [x13]
    401074c0:	54ffff23 	b.cc	0x401074a4  // b.lo, b.ul, b.last
    401074c4:	5280840a 	mov	w10, #0x420                 	// #1056
    401074c8:	3201c3eb 	mov	w11, #0x80808080            	// #-2139062144
    401074cc:	f941092c 	ldr	x12, [x9, #528]
    401074d0:	d10ff14d 	sub	x13, x10, #0x3fc
    401074d4:	eb0801bf 	cmp	x13, x8
    401074d8:	8b0c014c 	add	x12, x10, x12
    401074dc:	9100114a 	add	x10, x10, #0x4
    401074e0:	b900018b 	str	w11, [x12]
    401074e4:	54ffff43 	b.cc	0x401074cc  // b.lo, b.ul, b.last
    401074e8:	5280040a 	mov	w10, #0x20                  	// #32
    401074ec:	5280708b 	mov	w11, #0x384                 	// #900
    401074f0:	1280000c 	mov	w12, #0xffffffff            	// #-1
    401074f4:	f941092d 	ldr	x13, [x9, #528]
    401074f8:	9100814a 	add	x10, x10, #0x20
    401074fc:	eb08015f 	cmp	x10, x8
    40107500:	8b0d016d 	add	x13, x11, x13
    40107504:	b90001ac 	str	w12, [x13]
    40107508:	f941092d 	ldr	x13, [x9, #528]
    4010750c:	8b0d016d 	add	x13, x11, x13
    40107510:	9100116b 	add	x11, x11, #0x4
    40107514:	d10801ad 	sub	x13, x13, #0x200
    40107518:	b90001ac 	str	w12, [x13]
    4010751c:	54fffec3 	b.cc	0x401074f4  // b.lo, b.ul, b.last
    40107520:	900000a8 	adrp	x8, 0x4011b000
    40107524:	91084108 	add	x8, x8, #0x210
    40107528:	f9400109 	ldr	x9, [x8]
    4010752c:	b9400129 	ldr	w9, [x9]
    40107530:	32000129 	orr	w9, w9, #0x1
    40107534:	f940010a 	ldr	x10, [x8]
    40107538:	b9000149 	str	w9, [x10]
    4010753c:	f9400909 	ldr	x9, [x8, #16]
    40107540:	52801fea 	mov	w10, #0xff                  	// #255
    40107544:	2a1f03e0 	mov	w0, wzr
    40107548:	91001129 	add	x9, x9, #0x4
    4010754c:	b900012a 	str	w10, [x9]
    40107550:	f9400109 	ldr	x9, [x8]
    40107554:	3201c3ea 	mov	w10, #0x80808080            	// #-2139062144
    40107558:	91100129 	add	x9, x9, #0x400
    4010755c:	b900012a 	str	w10, [x9]
    40107560:	f9400109 	ldr	x9, [x8]
    40107564:	91101129 	add	x9, x9, #0x404
    40107568:	b900012a 	str	w10, [x9]
    4010756c:	f9400109 	ldr	x9, [x8]
    40107570:	91102129 	add	x9, x9, #0x408
    40107574:	b900012a 	str	w10, [x9]
    40107578:	f9400109 	ldr	x9, [x8]
    4010757c:	91103129 	add	x9, x9, #0x40c
    40107580:	b900012a 	str	w10, [x9]
    40107584:	f9400109 	ldr	x9, [x8]
    40107588:	91104129 	add	x9, x9, #0x410
    4010758c:	b900012a 	str	w10, [x9]
    40107590:	f9400109 	ldr	x9, [x8]
    40107594:	91105129 	add	x9, x9, #0x414
    40107598:	b900012a 	str	w10, [x9]
    4010759c:	f9400109 	ldr	x9, [x8]
    401075a0:	91106129 	add	x9, x9, #0x418
    401075a4:	b900012a 	str	w10, [x9]
    401075a8:	f9400109 	ldr	x9, [x8]
    401075ac:	91107129 	add	x9, x9, #0x41c
    401075b0:	b900012a 	str	w10, [x9]
    401075b4:	f9400109 	ldr	x9, [x8]
    401075b8:	1280000a 	mov	w10, #0xffffffff            	// #-1
    401075bc:	910e0129 	add	x9, x9, #0x380
    401075c0:	b900012a 	str	w10, [x9]
    401075c4:	f9400109 	ldr	x9, [x8]
    401075c8:	52bfffea 	mov	w10, #0xffff0000            	// #-65536
    401075cc:	91060129 	add	x9, x9, #0x180
    401075d0:	b900012a 	str	w10, [x9]
    401075d4:	f9400109 	ldr	x9, [x8]
    401075d8:	529fffea 	mov	w10, #0xffff                	// #65535
    401075dc:	91040129 	add	x9, x9, #0x100
    401075e0:	b900012a 	str	w10, [x9]
    401075e4:	f9400908 	ldr	x8, [x8, #16]
    401075e8:	52800029 	mov	w9, #0x1                   	// #1
    401075ec:	b9000109 	str	w9, [x8]
    401075f0:	d5033fdf 	isb
    401075f4:	d65f03c0 	ret
    401075f8:	900000a8 	adrp	x8, 0x4011b000
    401075fc:	f9411108 	ldr	x8, [x8, #544]
    40107600:	91003108 	add	x8, x8, #0xc
    40107604:	b9400100 	ldr	w0, [x8]
    40107608:	d65f03c0 	ret
    4010760c:	900000a8 	adrp	x8, 0x4011b000
    40107610:	f9411108 	ldr	x8, [x8, #544]
    40107614:	91004108 	add	x8, x8, #0x10
    40107618:	b9000100 	str	w0, [x8]
    4010761c:	d65f03c0 	ret
    40107620:	900000a9 	adrp	x9, 0x4011b000
    40107624:	f9410929 	ldr	x9, [x9, #528]
    40107628:	53037c08 	lsr	w8, w0, #3
    4010762c:	121e6908 	and	w8, w8, #0x1ffffffc
    40107630:	11040108 	add	w8, w8, #0x100
    40107634:	5280002a 	mov	w10, #0x1                   	// #1
    40107638:	1ac0214a 	lsl	w10, w10, w0
    4010763c:	8b080128 	add	x8, x9, x8
    40107640:	b900010a 	str	w10, [x8]
    40107644:	d65f03c0 	ret
    40107648:	900000a9 	adrp	x9, 0x4011b000
    4010764c:	f9410929 	ldr	x9, [x9, #528]
    40107650:	53037c08 	lsr	w8, w0, #3
    40107654:	121e6908 	and	w8, w8, #0x1ffffffc
    40107658:	11060108 	add	w8, w8, #0x180
    4010765c:	5280002a 	mov	w10, #0x1                   	// #1
    40107660:	1ac0214a 	lsl	w10, w10, w0
    40107664:	8b080128 	add	x8, x9, x8
    40107668:	b900010a 	str	w10, [x8]
    4010766c:	d65f03c0 	ret
    40107670:	a9bf7bfd 	stp	x29, x30, [sp, #-16]!
    40107674:	910003fd 	mov	x29, sp
    40107678:	51004008 	sub	w8, w0, #0x10
    4010767c:	710fb11f 	cmp	w8, #0x3ec
    40107680:	54000442 	b.cs	0x40107708  // b.hs, b.nlast
    40107684:	51000428 	sub	w8, w1, #0x1
    40107688:	7100091f 	cmp	w8, #0x2
    4010768c:	54000522 	b.cs	0x40107730  // b.hs, b.nlast
    40107690:	900000a8 	adrp	x8, 0x4011b000
    40107694:	f941090b 	ldr	x11, [x8, #528]
    40107698:	53027c09 	lsr	w9, w0, #2
    4010769c:	121e6d29 	and	w9, w9, #0x3ffffffc
    401076a0:	11300129 	add	w9, w9, #0xc00
    401076a4:	531f0c0a 	ubfiz	w10, w0, #1, #4
    401076a8:	8b09016b 	add	x11, x11, x9
    401076ac:	b940016b 	ldr	w11, [x11]
    401076b0:	7100043f 	cmp	w1, #0x1
    401076b4:	1aca256d 	lsr	w13, w11, w10
    401076b8:	540000a0 	b.eq	0x401076cc  // b.none
    401076bc:	7100083f 	cmp	w1, #0x2
    401076c0:	54000201 	b.ne	0x40107700  // b.any
    401076c4:	120001ac 	and	w12, w13, #0x1
    401076c8:	14000003 	b	0x401076d4
    401076cc:	5280004c 	mov	w12, #0x2                   	// #2
    401076d0:	330001ac 	bfxil	w12, w13, #0, #1
    401076d4:	120005ad 	and	w13, w13, #0x3
    401076d8:	6b0d019f 	cmp	w12, w13
    401076dc:	54000120 	b.eq	0x40107700  // b.none
    401076e0:	f9410908 	ldr	x8, [x8, #528]
    401076e4:	5280006d 	mov	w13, #0x3                   	// #3
    401076e8:	1aca21ad 	lsl	w13, w13, w10
    401076ec:	0a2d016b 	bic	w11, w11, w13
    401076f0:	1aca218a 	lsl	w10, w12, w10
    401076f4:	2a0b014a 	orr	w10, w10, w11
    401076f8:	8b090108 	add	x8, x8, x9
    401076fc:	b900010a 	str	w10, [x8]
    40107700:	a8c17bfd 	ldp	x29, x30, [sp], #16
    40107704:	d65f03c0 	ret
    40107708:	d0000081 	adrp	x1, 0x40119000
    4010770c:	d0000082 	adrp	x2, 0x40119000
    40107710:	b0000084 	adrp	x4, 0x40118000
    40107714:	d0000085 	adrp	x5, 0x40119000
    40107718:	911a6821 	add	x1, x1, #0x69a
    4010771c:	911ba842 	add	x2, x2, #0x6ea
    40107720:	912c6c84 	add	x4, x4, #0xb1b
    40107724:	911d3ca5 	add	x5, x5, #0x74f
    40107728:	528024c3 	mov	w3, #0x126                 	// #294
    4010772c:	1400000a 	b	0x40107754
    40107730:	d0000081 	adrp	x1, 0x40119000
    40107734:	d0000082 	adrp	x2, 0x40119000
    40107738:	b0000084 	adrp	x4, 0x40118000
    4010773c:	d0000085 	adrp	x5, 0x40119000
    40107740:	911a6821 	add	x1, x1, #0x69a
    40107744:	911ba842 	add	x2, x2, #0x6ea
    40107748:	912c6c84 	add	x4, x4, #0xb1b
    4010774c:	911d9ca5 	add	x5, x5, #0x767
    40107750:	52802503 	mov	w3, #0x128                 	// #296
    40107754:	2a1f03e0 	mov	w0, wzr
    40107758:	940032ec 	bl	0x40114308
    4010775c:	52800060 	mov	w0, #0x3                   	// #3
    40107760:	97ffee3a 	bl	0x40103048
    40107764:	900000a8 	adrp	x8, 0x4011b000
    40107768:	f9410908 	ldr	x8, [x8, #528]
    4010776c:	11100009 	add	w9, w0, #0x400
    40107770:	8b090108 	add	x8, x8, x9
    40107774:	39000101 	strb	w1, [x8]
    40107778:	d65f03c0 	ret
    4010777c:	a9bf7bfd 	stp	x29, x30, [sp, #-16]!
    40107780:	910003fd 	mov	x29, sp
    40107784:	71007c1f 	cmp	w0, #0x1f
    40107788:	54000109 	b.ls	0x401077a8  // b.plast
    4010778c:	900000a8 	adrp	x8, 0x4011b000
    40107790:	f9410908 	ldr	x8, [x8, #528]
    40107794:	11200009 	add	w9, w0, #0x800
    40107798:	8b090108 	add	x8, x8, x9
    4010779c:	39000101 	strb	w1, [x8]
    401077a0:	a8c17bfd 	ldp	x29, x30, [sp], #16
    401077a4:	d65f03c0 	ret
    401077a8:	d0000081 	adrp	x1, 0x40119000
    401077ac:	d0000082 	adrp	x2, 0x40119000
    401077b0:	d0000084 	adrp	x4, 0x40119000
    401077b4:	911a6821 	add	x1, x1, #0x69a
    401077b8:	911ba842 	add	x2, x2, #0x6ea
    401077bc:	911ea484 	add	x4, x4, #0x7a9
    401077c0:	52801c03 	mov	w3, #0xe0                  	// #224
    401077c4:	52800405 	mov	w5, #0x20                  	// #32
    401077c8:	2a1f03e0 	mov	w0, wzr
    401077cc:	940032cf 	bl	0x40114308
    401077d0:	52800060 	mov	w0, #0x3                   	// #3
    401077d4:	97ffee1d 	bl	0x40103048
    401077d8:	a9be7bfd 	stp	x29, x30, [sp, #-32]!
    401077dc:	a9014ff4 	stp	x20, x19, [sp, #16]
    401077e0:	910003fd 	mov	x29, sp
    401077e4:	900000b3 	adrp	x19, 0x4011b000
    401077e8:	f9411268 	ldr	x8, [x19, #544]
    401077ec:	91003108 	add	x8, x8, #0xc
    401077f0:	b9400114 	ldr	w20, [x8]
    401077f4:	d5033fdf 	isb
    401077f8:	12002688 	and	w8, w20, #0x3ff
    401077fc:	710fed1f 	cmp	w8, #0x3fb
    40107800:	540001a8 	b.hi	0x40107834  // b.pmore
    40107804:	2a0803e0 	mov	w0, w8
    40107808:	97ffeedf 	bl	0x40103384
    4010780c:	f9411268 	ldr	x8, [x19, #544]
    40107810:	91004108 	add	x8, x8, #0x10
    40107814:	b9000114 	str	w20, [x8]
    40107818:	f9411268 	ldr	x8, [x19, #544]
    4010781c:	91003108 	add	x8, x8, #0xc
    40107820:	b9400114 	ldr	w20, [x8]
    40107824:	d5033fdf 	isb
    40107828:	12002688 	and	w8, w20, #0x3ff
    4010782c:	710ff11f 	cmp	w8, #0x3fc
    40107830:	54fffea3 	b.cc	0x40107804  // b.lo, b.ul, b.last
    40107834:	710ffd1f 	cmp	w8, #0x3ff
    40107838:	54000080 	b.eq	0x40107848  // b.none
    4010783c:	f9411268 	ldr	x8, [x19, #544]
    40107840:	91004108 	add	x8, x8, #0x10
    40107844:	b9000114 	str	w20, [x8]
    40107848:	a9414ff4 	ldp	x20, x19, [sp, #16]
    4010784c:	a8c27bfd 	ldp	x29, x30, [sp], #32
    40107850:	d65f03c0 	ret
    40107854:	a9bd7bfd 	stp	x29, x30, [sp, #-48]!
    40107858:	f9000bf5 	str	x21, [sp, #16]
    4010785c:	a9024ff4 	stp	x20, x19, [sp, #32]
    40107860:	910003fd 	mov	x29, sp
    40107864:	2a0103f4 	mov	w20, w1
    40107868:	2a0003f3 	mov	w19, w0
    4010786c:	12001c15 	and	w21, w0, #0xff
    40107870:	97ffedc2 	bl	0x40102f78
    40107874:	710042bf 	cmp	w21, #0x10
    40107878:	540001a2 	b.cs	0x401078ac  // b.hs, b.nlast
    4010787c:	900000a9 	adrp	x9, 0x4011b000
    40107880:	f9410929 	ldr	x9, [x9, #528]
    40107884:	12000a88 	and	w8, w20, #0x7
    40107888:	52a0002a 	mov	w10, #0x10000               	// #65536
    4010788c:	1ac82148 	lsl	w8, w10, w8
    40107890:	33001e68 	bfxil	w8, w19, #0, #8
    40107894:	913c0129 	add	x9, x9, #0xf00
    40107898:	b9000128 	str	w8, [x9]
    4010789c:	a9424ff4 	ldp	x20, x19, [sp, #32]
    401078a0:	f9400bf5 	ldr	x21, [sp, #16]
    401078a4:	a8c37bfd 	ldp	x29, x30, [sp], #48
    401078a8:	17ffedb7 	b	0x40102f84
    401078ac:	d0000081 	adrp	x1, 0x40119000
    401078b0:	d0000082 	adrp	x2, 0x40119000
    401078b4:	b0000084 	adrp	x4, 0x40118000
    401078b8:	d0000085 	adrp	x5, 0x40119000
    401078bc:	911a6821 	add	x1, x1, #0x69a
    401078c0:	911ba842 	add	x2, x2, #0x6ea
    401078c4:	912c6c84 	add	x4, x4, #0xb1b
    401078c8:	911bcca5 	add	x5, x5, #0x6f3
    401078cc:	52801363 	mov	w3, #0x9b                  	// #155
    401078d0:	2a1f03e0 	mov	w0, wzr
    401078d4:	9400328d 	bl	0x40114308
    401078d8:	52800060 	mov	w0, #0x3                   	// #3
    401078dc:	97ffeddb 	bl	0x40103048
    401078e0:	a9bc7bfd 	stp	x29, x30, [sp, #-64]!
    401078e4:	f9000bf7 	str	x23, [sp, #16]
    401078e8:	a90257f6 	stp	x22, x21, [sp, #32]
    401078ec:	a9034ff4 	stp	x20, x19, [sp, #48]
    401078f0:	910003fd 	mov	x29, sp
    401078f4:	900000a8 	adrp	x8, 0x4011b000
    401078f8:	b000008a 	adrp	x10, 0x40118000
    401078fc:	910a3508 	add	x8, x8, #0x28d
    40107900:	52800029 	mov	w9, #0x1                   	// #1
    40107904:	9106214a 	add	x10, x10, #0x188
    40107908:	39000109 	strb	w9, [x8]
    4010790c:	a943ad49 	ldp	x9, x11, [x10, #56]
    40107910:	b0000082 	adrp	x2, 0x40118000
    40107914:	aa0103f3 	mov	x19, x1
    40107918:	91078042 	add	x2, x2, #0x1e0
    4010791c:	f805b109 	stur	x9, [x8, #91]
    40107920:	a944a54c 	ldp	x12, x9, [x10, #72]
    40107924:	f806310b 	stur	x11, [x8, #99]
    40107928:	12800001 	mov	w1, #0xffffffff            	// #-1
    4010792c:	aa0003f5 	mov	x21, x0
    40107930:	f806b10c 	stur	x12, [x8, #107]
    40107934:	a941b14b 	ldp	x11, x12, [x10, #24]
    40107938:	f8073109 	stur	x9, [x8, #115]
    4010793c:	12800014 	mov	w20, #0xffffffff            	// #-1
    40107940:	f803b10b 	stur	x11, [x8, #59]
    40107944:	a942b54b 	ldp	x11, x13, [x10, #40]
    40107948:	f804310c 	stur	x12, [x8, #67]
    4010794c:	f940014c 	ldr	x12, [x10]
    40107950:	a940a54a 	ldp	x10, x9, [x10, #8]
    40107954:	f804b10b 	stur	x11, [x8, #75]
    40107958:	f805310d 	stur	x13, [x8, #83]
    4010795c:	f802310c 	stur	x12, [x8, #35]
    40107960:	f802b10a 	stur	x10, [x8, #43]
    40107964:	f8033109 	stur	x9, [x8, #51]
    40107968:	97fffd01 	bl	0x40106d6c
    4010796c:	37f80580 	tbnz	w0, #31, 0x40107a1c
    40107970:	900000a3 	adrp	x3, 0x4011b000
    40107974:	2a0003f6 	mov	w22, w0
    40107978:	910a4063 	add	x3, x3, #0x290
    4010797c:	91002064 	add	x4, x3, #0x8
    40107980:	aa1503e0 	mov	x0, x21
    40107984:	2a1603e1 	mov	w1, w22
    40107988:	2a1f03e2 	mov	w2, wzr
    4010798c:	97fffca5 	bl	0x40106c20
    40107990:	37f801e0 	tbnz	w0, #31, 0x401079cc
    40107994:	900000a3 	adrp	x3, 0x4011b000
    40107998:	910a8063 	add	x3, x3, #0x2a0
    4010799c:	91002064 	add	x4, x3, #0x8
    401079a0:	52800022 	mov	w2, #0x1                   	// #1
    401079a4:	aa1503e0 	mov	x0, x21
    401079a8:	2a1603e1 	mov	w1, w22
    401079ac:	52800037 	mov	w23, #0x1                   	// #1
    401079b0:	97fffc9c 	bl	0x40106c20
    401079b4:	37f80200 	tbnz	w0, #31, 0x401079f4
    401079b8:	900000a8 	adrp	x8, 0x4011b000
    401079bc:	2a1f03f4 	mov	w20, wzr
    401079c0:	910a2108 	add	x8, x8, #0x288
    401079c4:	39001117 	strb	w23, [x8, #4]
    401079c8:	14000016 	b	0x40107a20
    401079cc:	d0000081 	adrp	x1, 0x40119000
    401079d0:	d0000082 	adrp	x2, 0x40119000
    401079d4:	d0000084 	adrp	x4, 0x40119000
    401079d8:	2a0003f4 	mov	w20, w0
    401079dc:	911a6821 	add	x1, x1, #0x69a
    401079e0:	911f9042 	add	x2, x2, #0x7e4
    401079e4:	911fb484 	add	x4, x4, #0x7ed
    401079e8:	52800020 	mov	w0, #0x1                   	// #1
    401079ec:	52804443 	mov	w3, #0x222                 	// #546
    401079f0:	1400000a 	b	0x40107a18
    401079f4:	d0000081 	adrp	x1, 0x40119000
    401079f8:	d0000082 	adrp	x2, 0x40119000
    401079fc:	d0000084 	adrp	x4, 0x40119000
    40107a00:	2a0003f4 	mov	w20, w0
    40107a04:	911a6821 	add	x1, x1, #0x69a
    40107a08:	911f9042 	add	x2, x2, #0x7e4
    40107a0c:	91205c84 	add	x4, x4, #0x817
    40107a10:	52800020 	mov	w0, #0x1                   	// #1
    40107a14:	52804523 	mov	w3, #0x229                 	// #553
    40107a18:	9400323c 	bl	0x40114308
    40107a1c:	aa1f03e8 	mov	x8, xzr
    40107a20:	f9000268 	str	x8, [x19]
    40107a24:	2a1403e0 	mov	w0, w20
    40107a28:	a9434ff4 	ldp	x20, x19, [sp, #48]
    40107a2c:	a94257f6 	ldp	x22, x21, [sp, #32]
    40107a30:	f9400bf7 	ldr	x23, [sp, #16]
    40107a34:	a8c47bfd 	ldp	x29, x30, [sp], #64
    40107a38:	d65f03c0 	ret
    40107a3c:	900000a9 	adrp	x9, 0x4011b000
    40107a40:	2a1f03e8 	mov	w8, wzr
    40107a44:	910a3929 	add	x9, x9, #0x28e
    40107a48:	5280002b 	mov	w11, #0x1                   	// #1
    40107a4c:	f840212a 	ldur	x10, [x9, #2]
    40107a50:	3900012b 	strb	w11, [x9]
    40107a54:	b9000148 	str	w8, [x10]
    40107a58:	f8402128 	ldur	x8, [x9, #2]
    40107a5c:	b9400109 	ldr	w9, [x8]
    40107a60:	37ffffe9 	tbnz	w9, #31, 0x40107a5c
    40107a64:	900000a8 	adrp	x8, 0x4011b000
    40107a68:	f9414909 	ldr	x9, [x8, #656]
    40107a6c:	52807b8a 	mov	w10, #0x3dc                 	// #988
    40107a70:	91001129 	add	x9, x9, #0x4
    40107a74:	b9400129 	ldr	w9, [x9]
    40107a78:	531b1129 	ubfiz	w9, w9, #5, #5
    40107a7c:	710f713f 	cmp	w9, #0x3dc
    40107a80:	1a8a3129 	csel	w9, w9, w10, cc  // cc = lo, ul, last
    40107a84:	340005a9 	cbz	w9, 0x40107b38
    40107a88:	11008129 	add	w9, w9, #0x20
    40107a8c:	5280040a 	mov	w10, #0x20                  	// #32
    40107a90:	5280108b 	mov	w11, #0x84                  	// #132
    40107a94:	1280000c 	mov	w12, #0xffffffff            	// #-1
    40107a98:	f941490d 	ldr	x13, [x8, #656]
    40107a9c:	9100814a 	add	x10, x10, #0x20
    40107aa0:	eb09015f 	cmp	x10, x9
    40107aa4:	8b0d016d 	add	x13, x11, x13
    40107aa8:	9100116b 	add	x11, x11, #0x4
    40107aac:	b90001ac 	str	w12, [x13]
    40107ab0:	54ffff43 	b.cc	0x40107a98  // b.lo, b.ul, b.last
    40107ab4:	5280040a 	mov	w10, #0x20                  	// #32
    40107ab8:	5281810b 	mov	w11, #0xc08                 	// #3080
    40107abc:	f941490d 	ldr	x13, [x8, #656]
    40107ac0:	9100414a 	add	x10, x10, #0x10
    40107ac4:	eb09015f 	cmp	x10, x9
    40107ac8:	2a1f03ec 	mov	w12, wzr
    40107acc:	8b0d016d 	add	x13, x11, x13
    40107ad0:	9100116b 	add	x11, x11, #0x4
    40107ad4:	b90001ac 	str	w12, [x13]
    40107ad8:	54ffff23 	b.cc	0x40107abc  // b.lo, b.ul, b.last
    40107adc:	5280840a 	mov	w10, #0x420                 	// #1056
    40107ae0:	3201c3eb 	mov	w11, #0x80808080            	// #-2139062144
    40107ae4:	f941490c 	ldr	x12, [x8, #656]
    40107ae8:	d10ff14d 	sub	x13, x10, #0x3fc
    40107aec:	eb0901bf 	cmp	x13, x9
    40107af0:	8b0c014c 	add	x12, x10, x12
    40107af4:	9100114a 	add	x10, x10, #0x4
    40107af8:	b900018b 	str	w11, [x12]
    40107afc:	54ffff43 	b.cc	0x40107ae4  // b.lo, b.ul, b.last
    40107b00:	5280040a 	mov	w10, #0x20                  	// #32
    40107b04:	5280708b 	mov	w11, #0x384                 	// #900
    40107b08:	1280000c 	mov	w12, #0xffffffff            	// #-1
    40107b0c:	f941490d 	ldr	x13, [x8, #656]
    40107b10:	9100814a 	add	x10, x10, #0x20
    40107b14:	eb09015f 	cmp	x10, x9
    40107b18:	8b0d016d 	add	x13, x11, x13
    40107b1c:	b90001ac 	str	w12, [x13]
    40107b20:	f941490d 	ldr	x13, [x8, #656]
    40107b24:	8b0d016d 	add	x13, x11, x13
    40107b28:	9100116b 	add	x11, x11, #0x4
    40107b2c:	d10801ad 	sub	x13, x13, #0x200
    40107b30:	b90001ac 	str	w12, [x13]
    40107b34:	54fffec3 	b.cc	0x40107b0c  // b.lo, b.ul, b.last
    40107b38:	f9414909 	ldr	x9, [x8, #656]
    40107b3c:	b940012a 	ldr	w10, [x9]
    40107b40:	37ffffea 	tbnz	w10, #31, 0x40107b3c
    40107b44:	f9414909 	ldr	x9, [x8, #656]
    40107b48:	5280026a 	mov	w10, #0x13                  	// #19
    40107b4c:	b900012a 	str	w10, [x9]
    40107b50:	f9414908 	ldr	x8, [x8, #656]
    40107b54:	b9400109 	ldr	w9, [x8]
    40107b58:	37ffffe9 	tbnz	w9, #31, 0x40107b54
    40107b5c:	900000a8 	adrp	x8, 0x4011b000
    40107b60:	f9415109 	ldr	x9, [x8, #672]
    40107b64:	91005129 	add	x9, x9, #0x14
    40107b68:	b9400129 	ldr	w9, [x9]
    40107b6c:	f941510a 	ldr	x10, [x8, #672]
    40107b70:	121e7929 	and	w9, w9, #0xfffffffd
    40107b74:	9100514a 	add	x10, x10, #0x14
    40107b78:	b9000149 	str	w9, [x10]
    40107b7c:	f9415109 	ldr	x9, [x8, #672]
    40107b80:	91005129 	add	x9, x9, #0x14
    40107b84:	b9400129 	ldr	w9, [x9]
    40107b88:	3717ffa9 	tbnz	w9, #2, 0x40107b7c
    40107b8c:	f9415109 	ldr	x9, [x8, #672]
    40107b90:	5280100a 	mov	w10, #0x80                  	// #128
    40107b94:	72a0002a 	movk	w10, #0x1, lsl #16
    40107b98:	3201c3eb 	mov	w11, #0x80808080            	// #-2139062144
    40107b9c:	8b0a0129 	add	x9, x9, x10
    40107ba0:	910e0129 	add	x9, x9, #0x380
    40107ba4:	b900012b 	str	w11, [x9]
    40107ba8:	f9415109 	ldr	x9, [x8, #672]
    40107bac:	52bfffec 	mov	w12, #0xffff0000            	// #-65536
    40107bb0:	8b0a0129 	add	x9, x9, x10
    40107bb4:	910e1129 	add	x9, x9, #0x384
    40107bb8:	b900012b 	str	w11, [x9]
    40107bbc:	f9415109 	ldr	x9, [x8, #672]
    40107bc0:	8b0a0129 	add	x9, x9, x10
    40107bc4:	910e2129 	add	x9, x9, #0x388
    40107bc8:	b900012b 	str	w11, [x9]
    40107bcc:	f9415109 	ldr	x9, [x8, #672]
    40107bd0:	8b0a0129 	add	x9, x9, x10
    40107bd4:	910e3129 	add	x9, x9, #0x38c
    40107bd8:	b900012b 	str	w11, [x9]
    40107bdc:	f9415109 	ldr	x9, [x8, #672]
    40107be0:	8b0a0129 	add	x9, x9, x10
    40107be4:	910e4129 	add	x9, x9, #0x390
    40107be8:	b900012b 	str	w11, [x9]
    40107bec:	f9415109 	ldr	x9, [x8, #672]
    40107bf0:	8b0a0129 	add	x9, x9, x10
    40107bf4:	910e5129 	add	x9, x9, #0x394
    40107bf8:	b900012b 	str	w11, [x9]
    40107bfc:	f9415109 	ldr	x9, [x8, #672]
    40107c00:	8b0a0129 	add	x9, x9, x10
    40107c04:	910e6129 	add	x9, x9, #0x398
    40107c08:	b900012b 	str	w11, [x9]
    40107c0c:	f9415109 	ldr	x9, [x8, #672]
    40107c10:	8b0a0129 	add	x9, x9, x10
    40107c14:	910e7129 	add	x9, x9, #0x39c
    40107c18:	b900012b 	str	w11, [x9]
    40107c1c:	f9415109 	ldr	x9, [x8, #672]
    40107c20:	1280000b 	mov	w11, #0xffffffff            	// #-1
    40107c24:	8b0a0129 	add	x9, x9, x10
    40107c28:	910c0129 	add	x9, x9, #0x300
    40107c2c:	b900012b 	str	w11, [x9]
    40107c30:	f9415109 	ldr	x9, [x8, #672]
    40107c34:	8b0a0129 	add	x9, x9, x10
    40107c38:	91040129 	add	x9, x9, #0x100
    40107c3c:	b900012c 	str	w12, [x9]
    40107c40:	f9415109 	ldr	x9, [x8, #672]
    40107c44:	8b0a0129 	add	x9, x9, x10
    40107c48:	b900012b 	str	w11, [x9]
    40107c4c:	f9415109 	ldr	x9, [x8, #672]
    40107c50:	529fffeb 	mov	w11, #0xffff                	// #65535
    40107c54:	8b0a0129 	add	x9, x9, x10
    40107c58:	91020129 	add	x9, x9, #0x80
    40107c5c:	b900012b 	str	w11, [x9]
    40107c60:	f9415108 	ldr	x8, [x8, #672]
    40107c64:	b9400109 	ldr	w9, [x8]
    40107c68:	37ffffe9 	tbnz	w9, #31, 0x40107c64
    40107c6c:	d538cca8 	mrs	x8, s3_0_c12_c12_5
    40107c70:	2a1f03e0 	mov	w0, wzr
    40107c74:	52801fe9 	mov	w9, #0xff                  	// #255
    40107c78:	5280004a 	mov	w10, #0x2                   	// #2
    40107c7c:	5280002b 	mov	w11, #0x1                   	// #1
    40107c80:	32000908 	orr	w8, w8, #0x7
    40107c84:	d518cca8 	msr	s3_0_c12_c12_5, x8
    40107c88:	d5033fdf 	isb
    40107c8c:	d518cc60 	msr	s3_0_c12_c12_3, x0
    40107c90:	d5184609 	msr	s3_0_c4_c6_0, x9
    40107c94:	d518cc8a 	msr	s3_0_c12_c12_4, x10
    40107c98:	d518cceb 	msr	s3_0_c12_c12_7, x11
    40107c9c:	d5033fdf 	isb
    40107ca0:	d65f03c0 	ret
    40107ca4:	d538cc00 	mrs	x0, s3_0_c12_c12_0
    40107ca8:	d5033f9f 	dsb	sy
    40107cac:	d65f03c0 	ret
    40107cb0:	d518cc20 	msr	s3_0_c12_c12_1, x0
    40107cb4:	d5033fdf 	isb
    40107cb8:	d518cb20 	msr	s3_0_c12_c11_1, x0
    40107cbc:	d5033fdf 	isb
    40107cc0:	d65f03c0 	ret
    40107cc4:	a9bf7bfd 	stp	x29, x30, [sp, #-16]!
    40107cc8:	910003fd 	mov	x29, sp
    40107ccc:	710ff01f 	cmp	w0, #0x3fc
    40107cd0:	54000302 	b.cs	0x40107d30  // b.hs, b.nlast
    40107cd4:	7100801f 	cmp	w0, #0x20
    40107cd8:	54000183 	b.cc	0x40107d08  // b.lo, b.ul, b.last
    40107cdc:	900000a9 	adrp	x9, 0x4011b000
    40107ce0:	f9414929 	ldr	x9, [x9, #656]
    40107ce4:	53037c08 	lsr	w8, w0, #3
    40107ce8:	121e6908 	and	w8, w8, #0x1ffffffc
    40107cec:	11040108 	add	w8, w8, #0x100
    40107cf0:	5280002a 	mov	w10, #0x1                   	// #1
    40107cf4:	1ac0214a 	lsl	w10, w10, w0
    40107cf8:	8b080128 	add	x8, x9, x8
    40107cfc:	b900010a 	str	w10, [x8]
    40107d00:	a8c17bfd 	ldp	x29, x30, [sp], #16
    40107d04:	d65f03c0 	ret
    40107d08:	900000a8 	adrp	x8, 0x4011b000
    40107d0c:	f9415108 	ldr	x8, [x8, #672]
    40107d10:	5280200a 	mov	w10, #0x100                 	// #256
    40107d14:	52800029 	mov	w9, #0x1                   	// #1
    40107d18:	72a0002a 	movk	w10, #0x1, lsl #16
    40107d1c:	9ac02129 	lsl	x9, x9, x0
    40107d20:	8b0a0108 	add	x8, x8, x10
    40107d24:	b9000109 	str	w9, [x8]
    40107d28:	a8c17bfd 	ldp	x29, x30, [sp], #16
    40107d2c:	d65f03c0 	ret
    40107d30:	d0000081 	adrp	x1, 0x40119000
    40107d34:	d0000082 	adrp	x2, 0x40119000
    40107d38:	b0000084 	adrp	x4, 0x40118000
    40107d3c:	d0000085 	adrp	x5, 0x40119000
    40107d40:	911a6821 	add	x1, x1, #0x69a
    40107d44:	911f9042 	add	x2, x2, #0x7e4
    40107d48:	912c6c84 	add	x4, x4, #0xb1b
    40107d4c:	912140a5 	add	x5, x5, #0x850
    40107d50:	52801883 	mov	w3, #0xc4                  	// #196
    40107d54:	2a1f03e0 	mov	w0, wzr
    40107d58:	9400316c 	bl	0x40114308
    40107d5c:	52800060 	mov	w0, #0x3                   	// #3
    40107d60:	97ffecba 	bl	0x40103048
    40107d64:	a9bf7bfd 	stp	x29, x30, [sp, #-16]!
    40107d68:	910003fd 	mov	x29, sp
    40107d6c:	710ff01f 	cmp	w0, #0x3fc
    40107d70:	54000302 	b.cs	0x40107dd0  // b.hs, b.nlast
    40107d74:	7100801f 	cmp	w0, #0x20
    40107d78:	54000183 	b.cc	0x40107da8  // b.lo, b.ul, b.last
    40107d7c:	900000a9 	adrp	x9, 0x4011b000
    40107d80:	f9414929 	ldr	x9, [x9, #656]
    40107d84:	53037c08 	lsr	w8, w0, #3
    40107d88:	121e6908 	and	w8, w8, #0x1ffffffc
    40107d8c:	11060108 	add	w8, w8, #0x180
    40107d90:	5280002a 	mov	w10, #0x1                   	// #1
    40107d94:	1ac0214a 	lsl	w10, w10, w0
    40107d98:	8b080128 	add	x8, x9, x8
    40107d9c:	b900010a 	str	w10, [x8]
    40107da0:	a8c17bfd 	ldp	x29, x30, [sp], #16
    40107da4:	d65f03c0 	ret
    40107da8:	900000a8 	adrp	x8, 0x4011b000
    40107dac:	f9415108 	ldr	x8, [x8, #672]
    40107db0:	5280300a 	mov	w10, #0x180                 	// #384
    40107db4:	52800029 	mov	w9, #0x1                   	// #1
    40107db8:	72a0002a 	movk	w10, #0x1, lsl #16
    40107dbc:	9ac02129 	lsl	x9, x9, x0
    40107dc0:	8b0a0108 	add	x8, x8, x10
    40107dc4:	b9000109 	str	w9, [x8]
    40107dc8:	a8c17bfd 	ldp	x29, x30, [sp], #16
    40107dcc:	d65f03c0 	ret
    40107dd0:	d0000081 	adrp	x1, 0x40119000
    40107dd4:	d0000082 	adrp	x2, 0x40119000
    40107dd8:	b0000084 	adrp	x4, 0x40118000
    40107ddc:	d0000085 	adrp	x5, 0x40119000
    40107de0:	911a6821 	add	x1, x1, #0x69a
    40107de4:	911f9042 	add	x2, x2, #0x7e4
    40107de8:	912c6c84 	add	x4, x4, #0xb1b
    40107dec:	912140a5 	add	x5, x5, #0x850
    40107df0:	52801ce3 	mov	w3, #0xe7                  	// #231
    40107df4:	2a1f03e0 	mov	w0, wzr
    40107df8:	94003144 	bl	0x40114308
    40107dfc:	52800060 	mov	w0, #0x3                   	// #3
    40107e00:	97ffec92 	bl	0x40103048
    40107e04:	a9bf7bfd 	stp	x29, x30, [sp, #-16]!
    40107e08:	910003fd 	mov	x29, sp
    40107e0c:	51004008 	sub	w8, w0, #0x10
    40107e10:	710fb11f 	cmp	w8, #0x3ec
    40107e14:	54000442 	b.cs	0x40107e9c  // b.hs, b.nlast
    40107e18:	51000428 	sub	w8, w1, #0x1
    40107e1c:	7100091f 	cmp	w8, #0x2
    40107e20:	54000522 	b.cs	0x40107ec4  // b.hs, b.nlast
    40107e24:	900000a8 	adrp	x8, 0x4011b000
    40107e28:	f941490b 	ldr	x11, [x8, #656]
    40107e2c:	53027c09 	lsr	w9, w0, #2
    40107e30:	121e6d29 	and	w9, w9, #0x3ffffffc
    40107e34:	11300129 	add	w9, w9, #0xc00
    40107e38:	531f0c0a 	ubfiz	w10, w0, #1, #4
    40107e3c:	8b09016b 	add	x11, x11, x9
    40107e40:	b940016b 	ldr	w11, [x11]
    40107e44:	7100043f 	cmp	w1, #0x1
    40107e48:	1aca256d 	lsr	w13, w11, w10
    40107e4c:	540000a0 	b.eq	0x40107e60  // b.none
    40107e50:	7100083f 	cmp	w1, #0x2
    40107e54:	54000201 	b.ne	0x40107e94  // b.any
    40107e58:	120001ac 	and	w12, w13, #0x1
    40107e5c:	14000003 	b	0x40107e68
    40107e60:	5280004c 	mov	w12, #0x2                   	// #2
    40107e64:	330001ac 	bfxil	w12, w13, #0, #1
    40107e68:	120005ad 	and	w13, w13, #0x3
    40107e6c:	6b0d019f 	cmp	w12, w13
    40107e70:	54000120 	b.eq	0x40107e94  // b.none
    40107e74:	f9414908 	ldr	x8, [x8, #656]
    40107e78:	5280006d 	mov	w13, #0x3                   	// #3
    40107e7c:	1aca21ad 	lsl	w13, w13, w10
    40107e80:	0a2d016b 	bic	w11, w11, w13
    40107e84:	1aca218a 	lsl	w10, w12, w10
    40107e88:	2a0b014a 	orr	w10, w10, w11
    40107e8c:	8b090108 	add	x8, x8, x9
    40107e90:	b900010a 	str	w10, [x8]
    40107e94:	a8c17bfd 	ldp	x29, x30, [sp], #16
    40107e98:	d65f03c0 	ret
    40107e9c:	d0000081 	adrp	x1, 0x40119000
    40107ea0:	d0000082 	adrp	x2, 0x40119000
    40107ea4:	b0000084 	adrp	x4, 0x40118000
    40107ea8:	d0000085 	adrp	x5, 0x40119000
    40107eac:	911a6821 	add	x1, x1, #0x69a
    40107eb0:	911f9042 	add	x2, x2, #0x7e4
    40107eb4:	912c6c84 	add	x4, x4, #0xb1b
    40107eb8:	911d3ca5 	add	x5, x5, #0x74f
    40107ebc:	52802483 	mov	w3, #0x124                 	// #292
    40107ec0:	1400000a 	b	0x40107ee8
    40107ec4:	d0000081 	adrp	x1, 0x40119000
    40107ec8:	d0000082 	adrp	x2, 0x40119000
    40107ecc:	b0000084 	adrp	x4, 0x40118000
    40107ed0:	d0000085 	adrp	x5, 0x40119000
    40107ed4:	911a6821 	add	x1, x1, #0x69a
    40107ed8:	911f9042 	add	x2, x2, #0x7e4
    40107edc:	912c6c84 	add	x4, x4, #0xb1b
    40107ee0:	911d9ca5 	add	x5, x5, #0x767
    40107ee4:	528024c3 	mov	w3, #0x126                 	// #294
    40107ee8:	2a1f03e0 	mov	w0, wzr
    40107eec:	94003107 	bl	0x40114308
    40107ef0:	52800060 	mov	w0, #0x3                   	// #3
    40107ef4:	97ffec55 	bl	0x40103048
    40107ef8:	71007c1f 	cmp	w0, #0x1f
    40107efc:	54000128 	b.hi	0x40107f20  // b.pmore
    40107f00:	900000a8 	adrp	x8, 0x4011b000
    40107f04:	f9415108 	ldr	x8, [x8, #672]
    40107f08:	52808009 	mov	w9, #0x400                 	// #1024
    40107f0c:	72a00029 	movk	w9, #0x1, lsl #16
    40107f10:	0b090009 	add	w9, w0, w9
    40107f14:	8b090108 	add	x8, x8, x9
    40107f18:	39000101 	strb	w1, [x8]
    40107f1c:	d65f03c0 	ret
    40107f20:	900000a8 	adrp	x8, 0x4011b000
    40107f24:	f9414908 	ldr	x8, [x8, #656]
    40107f28:	11100009 	add	w9, w0, #0x400
    40107f2c:	8b090108 	add	x8, x8, x9
    40107f30:	39000101 	strb	w1, [x8]
    40107f34:	d65f03c0 	ret
    40107f38:	a9bf7bfd 	stp	x29, x30, [sp, #-16]!
    40107f3c:	910003fd 	mov	x29, sp
    40107f40:	51008008 	sub	w8, w0, #0x20
    40107f44:	710f711f 	cmp	w8, #0x3dc
    40107f48:	54000182 	b.cs	0x40107f78  // b.hs, b.nlast
    40107f4c:	900000a9 	adrp	x9, 0x4011b000
    40107f50:	f9414929 	ldr	x9, [x9, #656]
    40107f54:	531d7008 	lsl	w8, w0, #3
    40107f58:	11401908 	add	w8, w8, #0x6, lsl #12
    40107f5c:	d358fc2a 	lsr	x10, x1, #24
    40107f60:	12005c2b 	and	w11, w1, #0xffffff
    40107f64:	b3601d4b 	bfi	x11, x10, #32, #8
    40107f68:	8b080128 	add	x8, x9, x8
    40107f6c:	f900010b 	str	x11, [x8]
    40107f70:	a8c17bfd 	ldp	x29, x30, [sp], #16
    40107f74:	d65f03c0 	ret
    40107f78:	d0000081 	adrp	x1, 0x40119000
    40107f7c:	d0000082 	adrp	x2, 0x40119000
    40107f80:	b0000084 	adrp	x4, 0x40118000
    40107f84:	d0000085 	adrp	x5, 0x40119000
    40107f88:	911a6821 	add	x1, x1, #0x69a
    40107f8c:	911f9042 	add	x2, x2, #0x7e4
    40107f90:	912c6c84 	add	x4, x4, #0xb1b
    40107f94:	91210ca5 	add	x5, x5, #0x843
    40107f98:	52801fc3 	mov	w3, #0xfe                  	// #254
    40107f9c:	2a1f03e0 	mov	w0, wzr
    40107fa0:	940030da 	bl	0x40114308
    40107fa4:	52800060 	mov	w0, #0x3                   	// #3
    40107fa8:	97ffec28 	bl	0x40103048
    40107fac:	a9be7bfd 	stp	x29, x30, [sp, #-32]!
    40107fb0:	f9000bf3 	str	x19, [sp, #16]
    40107fb4:	910003fd 	mov	x29, sp
    40107fb8:	d538cc13 	mrs	x19, s3_0_c12_c12_0
    40107fbc:	d5033f9f 	dsb	sy
    40107fc0:	d5033fdf 	isb
    40107fc4:	12002668 	and	w8, w19, #0x3ff
    40107fc8:	710fed1f 	cmp	w8, #0x3fb
    40107fcc:	540001a8 	b.hi	0x40108000  // b.pmore
    40107fd0:	2a0803e0 	mov	w0, w8
    40107fd4:	97ffecec 	bl	0x40103384
    40107fd8:	d518cc33 	msr	s3_0_c12_c12_1, x19
    40107fdc:	d5033fdf 	isb
    40107fe0:	d518cb33 	msr	s3_0_c12_c11_1, x19
    40107fe4:	d5033fdf 	isb
    40107fe8:	d538cc13 	mrs	x19, s3_0_c12_c12_0
    40107fec:	d5033f9f 	dsb	sy
    40107ff0:	d5033fdf 	isb
    40107ff4:	12002668 	and	w8, w19, #0x3ff
    40107ff8:	710ff11f 	cmp	w8, #0x3fc
    40107ffc:	54fffea3 	b.cc	0x40107fd0  // b.lo, b.ul, b.last
    40108000:	710ffd1f 	cmp	w8, #0x3ff
    40108004:	540000a0 	b.eq	0x40108018  // b.none
    40108008:	d518cc33 	msr	s3_0_c12_c12_1, x19
    4010800c:	d5033fdf 	isb
    40108010:	d518cb33 	msr	s3_0_c12_c11_1, x19
    40108014:	d5033fdf 	isb
    40108018:	f9400bf3 	ldr	x19, [sp, #16]
    4010801c:	a8c27bfd 	ldp	x29, x30, [sp], #32
    40108020:	d65f03c0 	ret
    40108024:	900001a8 	adrp	x8, 0x4013c000
    40108028:	f941ad08 	ldr	x8, [x8, #856]
    4010802c:	b9400108 	ldr	w8, [x8]
    40108030:	aa0003e1 	mov	x1, x0
    40108034:	2a0803e0 	mov	w0, w8
    40108038:	140000b6 	b	0x40108310
    4010803c:	a9bf7bfd 	stp	x29, x30, [sp, #-16]!
    40108040:	910003fd 	mov	x29, sp
    40108044:	94000106 	bl	0x4010845c
    40108048:	900001a8 	adrp	x8, 0x4013c000
    4010804c:	f941ad08 	ldr	x8, [x8, #856]
    40108050:	91002108 	add	x8, x8, #0x8
    40108054:	b9000100 	str	w0, [x8]
    40108058:	a8c17bfd 	ldp	x29, x30, [sp], #16
    4010805c:	d65f03c0 	ret
    40108060:	a9bf7bfd 	stp	x29, x30, [sp, #-16]!
    40108064:	910003fd 	mov	x29, sp
    40108068:	940000fd 	bl	0x4010845c
    4010806c:	900001a8 	adrp	x8, 0x4013c000
    40108070:	f941ad08 	ldr	x8, [x8, #856]
    40108074:	91001108 	add	x8, x8, #0x4
    40108078:	b9000100 	str	w0, [x8]
    4010807c:	a8c17bfd 	ldp	x29, x30, [sp], #16
    40108080:	d65f03c0 	ret
    40108084:	900001a8 	adrp	x8, 0x4013c000
    40108088:	f941ad08 	ldr	x8, [x8, #856]
    4010808c:	aa0003e1 	mov	x1, x0
    40108090:	91001108 	add	x8, x8, #0x4
    40108094:	b9400108 	ldr	w8, [x8]
    40108098:	2a0803e0 	mov	w0, w8
    4010809c:	1400009d 	b	0x40108310
    401080a0:	900001a8 	adrp	x8, 0x4013c000
    401080a4:	f941ad08 	ldr	x8, [x8, #856]
    401080a8:	52800029 	mov	w9, #0x1                   	// #1
    401080ac:	91003108 	add	x8, x8, #0xc
    401080b0:	b9000109 	str	w9, [x8]
    401080b4:	d65f03c0 	ret
    401080b8:	900001a9 	adrp	x9, 0x4013c000
    401080bc:	f941ad29 	ldr	x9, [x9, #856]
    401080c0:	2a1f03e8 	mov	w8, wzr
    401080c4:	91003129 	add	x9, x9, #0xc
    401080c8:	b9000128 	str	w8, [x9]
    401080cc:	d65f03c0 	ret
    401080d0:	900001a8 	adrp	x8, 0x4013c000
    401080d4:	f941ad08 	ldr	x8, [x8, #856]
    401080d8:	91003108 	add	x8, x8, #0xc
    401080dc:	b9400108 	ldr	w8, [x8]
    401080e0:	12000100 	and	w0, w8, #0x1
    401080e4:	d65f03c0 	ret
    401080e8:	900001a8 	adrp	x8, 0x4013c000
    401080ec:	f941ad08 	ldr	x8, [x8, #856]
    401080f0:	52800029 	mov	w9, #0x1                   	// #1
    401080f4:	91004108 	add	x8, x8, #0x10
    401080f8:	b9000109 	str	w9, [x8]
    401080fc:	d65f03c0 	ret
    40108100:	900001a9 	adrp	x9, 0x4013c000
    40108104:	f941ad29 	ldr	x9, [x9, #856]
    40108108:	2a1f03e8 	mov	w8, wzr
    4010810c:	91004129 	add	x9, x9, #0x10
    40108110:	b9000128 	str	w8, [x9]
    40108114:	d65f03c0 	ret
    40108118:	900001a8 	adrp	x8, 0x4013c000
    4010811c:	f941ad09 	ldr	x9, [x8, #856]
    40108120:	91005129 	add	x9, x9, #0x14
    40108124:	b9400129 	ldr	w9, [x9]
    40108128:	34000129 	cbz	w9, 0x4010814c
    4010812c:	52800029 	mov	w9, #0x1                   	// #1
    40108130:	f941ad0a 	ldr	x10, [x8, #856]
    40108134:	9100714a 	add	x10, x10, #0x1c
    40108138:	b9000149 	str	w9, [x10]
    4010813c:	f941ad0a 	ldr	x10, [x8, #856]
    40108140:	9100514a 	add	x10, x10, #0x14
    40108144:	b940014a 	ldr	w10, [x10]
    40108148:	35ffff4a 	cbnz	w10, 0x40108130
    4010814c:	d65f03c0 	ret
    40108150:	900001a8 	adrp	x8, 0x4013c000
    40108154:	b9836108 	ldrsw	x8, [x8, #864]
    40108158:	aa0003e1 	mov	x1, x0
    4010815c:	aa1f03e2 	mov	x2, xzr
    40108160:	aa0803e0 	mov	x0, x8
    40108164:	17ffec46 	b	0x4010327c
    40108168:	d10103ff 	sub	sp, sp, #0x40
    4010816c:	a9027bfd 	stp	x29, x30, [sp, #32]
    40108170:	a9034ff4 	stp	x20, x19, [sp, #48]
    40108174:	910083fd 	add	x29, sp, #0x20
    40108178:	b0000082 	adrp	x2, 0x40119000
    4010817c:	91219842 	add	x2, x2, #0x866
    40108180:	12800001 	mov	w1, #0xffffffff            	// #-1
    40108184:	aa0003f4 	mov	x20, x0
    40108188:	94000d9e 	bl	0x4010b800
    4010818c:	2a0003f3 	mov	w19, w0
    40108190:	37f805c0 	tbnz	w0, #31, 0x40108248
    40108194:	900001a3 	adrp	x3, 0x4013c000
    40108198:	910d6063 	add	x3, x3, #0x358
    4010819c:	d10023a4 	sub	x4, x29, #0x8
    401081a0:	aa1403e0 	mov	x0, x20
    401081a4:	2a1303e1 	mov	w1, w19
    401081a8:	2a1f03e2 	mov	w2, wzr
    401081ac:	97fffa9d 	bl	0x40106c20
    401081b0:	37f80640 	tbnz	w0, #31, 0x40108278
    401081b4:	d10033a3 	sub	x3, x29, #0xc
    401081b8:	910043e4 	add	x4, sp, #0x10
    401081bc:	910033e5 	add	x5, sp, #0xc
    401081c0:	aa1403e0 	mov	x0, x20
    401081c4:	2a1303e1 	mov	w1, w19
    401081c8:	2a1f03e2 	mov	w2, wzr
    401081cc:	97fffb81 	bl	0x40106fd0
    401081d0:	37f80660 	tbnz	w0, #31, 0x4010829c
    401081d4:	b85f43a0 	ldur	w0, [x29, #-12]
    401081d8:	b94013e1 	ldr	w1, [sp, #16]
    401081dc:	97fffbb8 	bl	0x401070bc
    401081e0:	900001a8 	adrp	x8, 0x4013c000
    401081e4:	710ff01f 	cmp	w0, #0x3fc
    401081e8:	b9036100 	str	w0, [x8, #864]
    401081ec:	540006a2 	b.cs	0x401082c0  // b.hs, b.nlast
    401081f0:	900001a8 	adrp	x8, 0x4013c000
    401081f4:	f941ad09 	ldr	x9, [x8, #856]
    401081f8:	91003129 	add	x9, x9, #0xc
    401081fc:	b9400129 	ldr	w9, [x9]
    40108200:	370000a9 	tbnz	w9, #0, 0x40108214
    40108204:	f941ad09 	ldr	x9, [x8, #856]
    40108208:	5280002a 	mov	w10, #0x1                   	// #1
    4010820c:	91003129 	add	x9, x9, #0xc
    40108210:	b900012a 	str	w10, [x9]
    40108214:	f941ad09 	ldr	x9, [x8, #856]
    40108218:	91003129 	add	x9, x9, #0xc
    4010821c:	b9400129 	ldr	w9, [x9]
    40108220:	36000629 	tbz	w9, #0, 0x401082e4
    40108224:	f941ad08 	ldr	x8, [x8, #856]
    40108228:	2a1f03e0 	mov	w0, wzr
    4010822c:	52800029 	mov	w9, #0x1                   	// #1
    40108230:	91004108 	add	x8, x8, #0x10
    40108234:	b9000109 	str	w9, [x8]
    40108238:	a9434ff4 	ldp	x20, x19, [sp, #48]
    4010823c:	a9427bfd 	ldp	x29, x30, [sp, #32]
    40108240:	910103ff 	add	sp, sp, #0x40
    40108244:	d65f03c0 	ret
    40108248:	b0000081 	adrp	x1, 0x40119000
    4010824c:	b0000082 	adrp	x2, 0x40119000
    40108250:	b0000084 	adrp	x4, 0x40119000
    40108254:	9121c021 	add	x1, x1, #0x870
    40108258:	9121f042 	add	x2, x2, #0x87c
    4010825c:	91221084 	add	x4, x4, #0x884
    40108260:	52800020 	mov	w0, #0x1                   	// #1
    40108264:	528015a3 	mov	w3, #0xad                  	// #173
    40108268:	2a1303e5 	mov	w5, w19
    4010826c:	94003027 	bl	0x40114308
    40108270:	128002a0 	mov	w0, #0xffffffea            	// #-22
    40108274:	17fffff1 	b	0x40108238
    40108278:	b0000081 	adrp	x1, 0x40119000
    4010827c:	b0000082 	adrp	x2, 0x40119000
    40108280:	b0000084 	adrp	x4, 0x40119000
    40108284:	9121c021 	add	x1, x1, #0x870
    40108288:	9121f042 	add	x2, x2, #0x87c
    4010828c:	9122b884 	add	x4, x4, #0x8ae
    40108290:	52800020 	mov	w0, #0x1                   	// #1
    40108294:	52801663 	mov	w3, #0xb3                  	// #179
    40108298:	1400001b 	b	0x40108304
    4010829c:	b0000081 	adrp	x1, 0x40119000
    401082a0:	b0000082 	adrp	x2, 0x40119000
    401082a4:	b0000084 	adrp	x4, 0x40119000
    401082a8:	9121c021 	add	x1, x1, #0x870
    401082ac:	9121f042 	add	x2, x2, #0x87c
    401082b0:	91232484 	add	x4, x4, #0x8c9
    401082b4:	52800020 	mov	w0, #0x1                   	// #1
    401082b8:	52801763 	mov	w3, #0xbb                  	// #187
    401082bc:	14000012 	b	0x40108304
    401082c0:	b0000081 	adrp	x1, 0x40119000
    401082c4:	b0000082 	adrp	x2, 0x40119000
    401082c8:	b0000084 	adrp	x4, 0x40119000
    401082cc:	9121c021 	add	x1, x1, #0x870
    401082d0:	9121f042 	add	x2, x2, #0x87c
    401082d4:	9123a884 	add	x4, x4, #0x8ea
    401082d8:	52800020 	mov	w0, #0x1                   	// #1
    401082dc:	52801823 	mov	w3, #0xc1                  	// #193
    401082e0:	14000009 	b	0x40108304
    401082e4:	b0000081 	adrp	x1, 0x40119000
    401082e8:	b0000082 	adrp	x2, 0x40119000
    401082ec:	b0000084 	adrp	x4, 0x40119000
    401082f0:	9121c021 	add	x1, x1, #0x870
    401082f4:	9121f042 	add	x2, x2, #0x87c
    401082f8:	91241c84 	add	x4, x4, #0x907
    401082fc:	52800020 	mov	w0, #0x1                   	// #1
    40108300:	52801943 	mov	w3, #0xca                  	// #202
    40108304:	94003001 	bl	0x40114308
    40108308:	128002a0 	mov	w0, #0xffffffea            	// #-22
    4010830c:	17ffffcb 	b	0x40108238
    40108310:	529678aa 	mov	w10, #0xb3c5                	// #46021
    40108314:	52911128 	mov	w8, #0x8889                	// #34953
    40108318:	72b2344a 	movk	w10, #0x91a2, lsl #16
    4010831c:	52983fed 	mov	w13, #0xc1ff                	// #49663
    40108320:	72b11108 	movk	w8, #0x8888, lsl #16
    40108324:	5295556c 	mov	w12, #0xaaab                	// #43691
    40108328:	72b782ed 	movk	w13, #0xbc17, lsl #16
    4010832c:	9baa7c0a 	umull	x10, w0, w10
    40108330:	72b5554c 	movk	w12, #0xaaaa, lsl #16
    40108334:	6b0d001f 	cmp	w0, w13
    40108338:	9ba87c0d 	umull	x13, w0, w8
    4010833c:	d36bfd4a 	lsr	x10, x10, #43
    40108340:	52800789 	mov	w9, #0x3c                  	// #60
    40108344:	d365fdad 	lsr	x13, x13, #37
    40108348:	9b0c7d4c 	mul	x12, x10, x12
    4010834c:	5281c20b 	mov	w11, #0xe10                 	// #3600
    40108350:	1b0981a9 	msub	w9, w13, w9, w0
    40108354:	5280030d 	mov	w13, #0x18                  	// #24
    40108358:	d364fd8c 	lsr	x12, x12, #36
    4010835c:	1b0da98c 	msub	w12, w12, w13, w10
    40108360:	5288a0ed 	mov	w13, #0x4507                	// #17671
    40108364:	1b0b814a 	msub	w10, w10, w11, w0
    40108368:	5285af2b 	mov	w11, #0x2d79                	// #11641
    4010836c:	72b845cd 	movk	w13, #0xc22e, lsl #16
    40108370:	72a2206b 	movk	w11, #0x1103, lsl #16
    40108374:	9bad7c0d 	umull	x13, w0, w13
    40108378:	9bab7c0b 	umull	x11, w0, w11
    4010837c:	d370fdad 	lsr	x13, x13, #48
    40108380:	d377fd6b 	lsr	x11, x11, #55
    40108384:	4b0b01ab 	sub	w11, w13, w11
    40108388:	529e6c2d 	mov	w13, #0xf361                	// #62305
    4010838c:	b9001429 	str	w9, [x1, #20]
    40108390:	72ace32d 	movk	w13, #0x6719, lsl #16
    40108394:	12003d4a 	and	w10, w10, #0xffff
    40108398:	1a8b9569 	cinc	w9, w11, hi  // hi = pmore
    4010839c:	9ba87d48 	umull	x8, w10, w8
    401083a0:	9bad7d2a 	umull	x10, w9, w13
    401083a4:	d365fd08 	lsr	x8, x8, #37
    401083a8:	d360fd4a 	lsr	x10, x10, #32
    401083ac:	2901a02c 	stp	w12, w8, [x1, #12]
    401083b0:	4b0a0128 	sub	w8, w9, w10
    401083b4:	0b480548 	add	w8, w10, w8, lsr #1
    401083b8:	53087d0a 	lsr	w10, w8, #8
    401083bc:	111ec948 	add	w8, w10, #0x7b2
    401083c0:	7200051f 	tst	w8, #0x3
    401083c4:	b9000028 	str	w8, [x1]
    401083c8:	54000141 	b.ne	0x401083f0  // b.any
    401083cc:	5290a3eb 	mov	w11, #0x851f                	// #34079
    401083d0:	72aa3d6b 	movk	w11, #0x51eb, lsl #16
    401083d4:	9bab7d0b 	umull	x11, w8, w11
    401083d8:	d365fd6b 	lsr	x11, x11, #37
    401083dc:	52800c8c 	mov	w12, #0x64                  	// #100
    401083e0:	1b0ca16b 	msub	w11, w11, w12, w8
    401083e4:	3400006b 	cbz	w11, 0x401083f0
    401083e8:	5280002b 	mov	w11, #0x1                   	// #1
    401083ec:	14000009 	b	0x40108410
    401083f0:	528b852b 	mov	w11, #0x5c29                	// #23593
    401083f4:	72b851eb 	movk	w11, #0xc28f, lsl #16
    401083f8:	1b0b7d08 	mul	w8, w8, w11
    401083fc:	529ae16b 	mov	w11, #0xd70b                	// #55051
    40108400:	13881108 	ror	w8, w8, #4
    40108404:	72a0146b 	movk	w11, #0xa3, lsl #16
    40108408:	6b0b011f 	cmp	w8, w11
    4010840c:	1a9f27eb 	cset	w11, cc  // cc = lo, ul, last
    40108410:	12802d8c 	mov	w12, #0xfffffe93            	// #-365
    40108414:	1b0c2549 	madd	w9, w10, w12, w9
    40108418:	7100e93f 	cmp	w9, #0x3a
    4010841c:	9000008a 	adrp	x10, 0x40118000
    40108420:	aa1f03e8 	mov	x8, xzr
    40108424:	1a9f816b 	csel	w11, w11, wzr, hi  // hi = pmore
    40108428:	9107c14a 	add	x10, x10, #0x1f0
    4010842c:	f100311f 	cmp	x8, #0xc
    40108430:	54000140 	b.eq	0x40108458  // b.none
    40108434:	2a0b03ec 	mov	w12, w11
    40108438:	b868794b 	ldr	w11, [x10, x8, lsl #2]
    4010843c:	91000508 	add	x8, x8, #0x1
    40108440:	0b0c016b 	add	w11, w11, w12
    40108444:	6b0b013f 	cmp	w9, w11
    40108448:	54ffff22 	b.cs	0x4010842c  // b.hs, b.nlast
    4010844c:	4b0c0129 	sub	w9, w9, w12
    40108450:	11000529 	add	w9, w9, #0x1
    40108454:	2900a428 	stp	w8, w9, [x1, #4]
    40108458:	d65f03c0 	ret
    4010845c:	b9400008 	ldr	w8, [x0]
    40108460:	5290a3ea 	mov	w10, #0x851f                	// #34079
    40108464:	72aa3d6a 	movk	w10, #0x51eb, lsl #16
    40108468:	511ec909 	sub	w9, w8, #0x7b2
    4010846c:	9baa7d2c 	umull	x12, w9, w10
    40108470:	53027d2b 	lsr	w11, w9, #2
    40108474:	d365fd8d 	lsr	x13, x12, #37
    40108478:	d367fd8c 	lsr	x12, x12, #39
    4010847c:	4b0d016b 	sub	w11, w11, w13
    40108480:	7200051f 	tst	w8, #0x3
    40108484:	0b0c016c 	add	w12, w11, w12
    40108488:	54000101 	b.ne	0x401084a8  // b.any
    4010848c:	9b0a7d0a 	mul	x10, x8, x10
    40108490:	d365fd4a 	lsr	x10, x10, #37
    40108494:	52800c8b 	mov	w11, #0x64                  	// #100
    40108498:	1b0ba14a 	msub	w10, w10, w11, w8
    4010849c:	3400006a 	cbz	w10, 0x401084a8
    401084a0:	2a1f03e8 	mov	w8, wzr
    401084a4:	14000009 	b	0x401084c8
    401084a8:	528b852a 	mov	w10, #0x5c29                	// #23593
    401084ac:	72b851ea 	movk	w10, #0xc28f, lsl #16
    401084b0:	1b0a7d08 	mul	w8, w8, w10
    401084b4:	529ae14a 	mov	w10, #0xd70a                	// #55050
    401084b8:	13881108 	ror	w8, w8, #4
    401084bc:	72a0146a 	movk	w10, #0xa3, lsl #16
    401084c0:	6b0a011f 	cmp	w8, w10
    401084c4:	5a9f93e8 	csetm	w8, hi  // hi = pmore
    401084c8:	b940040a 	ldr	w10, [x0, #4]
    401084cc:	52802dad 	mov	w13, #0x16d                 	// #365
    401084d0:	1b0d3129 	madd	w9, w9, w13, w12
    401084d4:	7100054b 	subs	w11, w10, #0x1
    401084d8:	54000061 	b.ne	0x401084e4  // b.any
    401084dc:	11007d29 	add	w9, w9, #0x1f
    401084e0:	1400001d 	b	0x40108554
    401084e4:	7100095f 	cmp	w10, #0x2
    401084e8:	5400036b 	b.lt	0x40108554  // b.tstop
    401084ec:	7100057f 	cmp	w11, #0x1
    401084f0:	54000068 	b.hi	0x401084fc  // b.pmore
    401084f4:	aa1f03ec 	mov	x12, xzr
    401084f8:	1400000f 	b	0x40108534
    401084fc:	927f796c 	and	x12, x11, #0xfffffffe
    40108500:	9000008e 	adrp	x14, 0x40118000
    40108504:	2a1f03ed 	mov	w13, wzr
    40108508:	9107d1ce 	add	x14, x14, #0x1f4
    4010850c:	aa0c03ef 	mov	x15, x12
    40108510:	297fc5d0 	ldp	w16, w17, [x14, #-4]
    40108514:	f10009ef 	subs	x15, x15, #0x2
    40108518:	910021ce 	add	x14, x14, #0x8
    4010851c:	0b090209 	add	w9, w16, w9
    40108520:	0b0d022d 	add	w13, w17, w13
    40108524:	54ffff61 	b.ne	0x40108510  // b.any
    40108528:	eb0b019f 	cmp	x12, x11
    4010852c:	0b0901a9 	add	w9, w13, w9
    40108530:	54000120 	b.eq	0x40108554  // b.none
    40108534:	9000008d 	adrp	x13, 0x40118000
    40108538:	9107c1ad 	add	x13, x13, #0x1f0
    4010853c:	8b0c09ad 	add	x13, x13, x12, lsl #2
    40108540:	cb0c016b 	sub	x11, x11, x12
    40108544:	b84045ac 	ldr	w12, [x13], #4
    40108548:	f100056b 	subs	x11, x11, #0x1
    4010854c:	0b090189 	add	w9, w12, w9
    40108550:	54ffffa1 	b.ne	0x40108544  // b.any
    40108554:	2941300b 	ldp	w11, w12, [x0, #8]
    40108558:	7100095f 	cmp	w10, #0x2
    4010855c:	5a9fc108 	csinv	w8, w8, wzr, gt
    40108560:	0b090108 	add	w8, w8, w9
    40108564:	0b0b0108 	add	w8, w8, w11
    40108568:	2942340b 	ldp	w11, w13, [x0, #16]
    4010856c:	5281c209 	mov	w9, #0xe10                 	// #3600
    40108570:	1b097d89 	mul	w9, w12, w9
    40108574:	5280078c 	mov	w12, #0x3c                  	// #60
    40108578:	528a300a 	mov	w10, #0x5180                	// #20864
    4010857c:	1b0c2569 	madd	w9, w11, w12, w9
    40108580:	72a0002a 	movk	w10, #0x1, lsl #16
    40108584:	0b0d0129 	add	w9, w9, w13
    40108588:	1b0a2500 	madd	w0, w8, w10, w9
    4010858c:	d65f03c0 	ret
    40108590:	a9bd7bfd 	stp	x29, x30, [sp, #-48]!
    40108594:	f9000bf5 	str	x21, [sp, #16]
    40108598:	a9024ff4 	stp	x20, x19, [sp, #32]
    4010859c:	910003fd 	mov	x29, sp
    401085a0:	2a0003f4 	mov	w20, w0
    401085a4:	b0000080 	adrp	x0, 0x40119000
    401085a8:	91246c00 	add	x0, x0, #0x91b
    401085ac:	aa0103f3 	mov	x19, x1
    401085b0:	940017e9 	bl	0x4010e554
    401085b4:	b0000080 	adrp	x0, 0x40119000
    401085b8:	9124a400 	add	x0, x0, #0x929
    401085bc:	940017e6 	bl	0x4010e554
    401085c0:	7100069f 	cmp	w20, #0x1
    401085c4:	5400012b 	b.lt	0x401085e8  // b.tstop
    401085c8:	2a1403f5 	mov	w21, w20
    401085cc:	b0000094 	adrp	x20, 0x40119000
    401085d0:	9124d694 	add	x20, x20, #0x935
    401085d4:	f8408661 	ldr	x1, [x19], #8
    401085d8:	aa1403e0 	mov	x0, x20
    401085dc:	940017de 	bl	0x4010e554
    401085e0:	f10006b5 	subs	x21, x21, #0x1
    401085e4:	54ffff81 	b.ne	0x401085d4  // b.any
    401085e8:	90000080 	adrp	x0, 0x40118000
    401085ec:	91392c00 	add	x0, x0, #0xe4b
    401085f0:	940017d9 	bl	0x4010e554
    401085f4:	a9424ff4 	ldp	x20, x19, [sp, #32]
    401085f8:	f9400bf5 	ldr	x21, [sp, #16]
    401085fc:	2a1f03e0 	mov	w0, wzr
    40108600:	a8c37bfd 	ldp	x29, x30, [sp], #48
    40108604:	d65f03c0 	ret
    40108608:	f240081f 	tst	x0, #0x7
    4010860c:	54000060 	b.eq	0x40108618  // b.none
    40108610:	12800240 	mov	w0, #0xffffffed            	// #-19
    40108614:	d65f03c0 	ret
    40108618:	29402009 	ldp	w9, w8, [x0]
    4010861c:	5280224a 	mov	w10, #0x112                 	// #274
    40108620:	72a5fe4a 	movk	w10, #0x2ff2, lsl #16
    40108624:	5ac00929 	rev	w9, w9
    40108628:	6b0a013f 	cmp	w9, w10
    4010862c:	54000160 	b.eq	0x40108658  // b.none
    40108630:	529fddaa 	mov	w10, #0xfeed                	// #65261
    40108634:	72ba01aa 	movk	w10, #0xd00d, lsl #16
    40108638:	6b0a013f 	cmp	w9, w10
    4010863c:	54000181 	b.ne	0x4010866c  // b.any
    40108640:	b9401409 	ldr	w9, [x0, #20]
    40108644:	5ac00929 	rev	w9, w9
    40108648:	7100093f 	cmp	w9, #0x2
    4010864c:	54000142 	b.cs	0x40108674  // b.hs, b.nlast
    40108650:	12800120 	mov	w0, #0xfffffff6            	// #-10
    40108654:	d65f03c0 	ret
    40108658:	b9402409 	ldr	w9, [x0, #36]
    4010865c:	5ac00929 	rev	w9, w9
    40108660:	35000169 	cbnz	w9, 0x4010868c
    40108664:	128000c0 	mov	w0, #0xfffffff9            	// #-7
    40108668:	d65f03c0 	ret
    4010866c:	12800100 	mov	w0, #0xfffffff7            	// #-9
    40108670:	d65f03c0 	ret
    40108674:	b9401809 	ldr	w9, [x0, #24]
    40108678:	5ac00929 	rev	w9, w9
    4010867c:	7100453f 	cmp	w9, #0x11
    40108680:	54000069 	b.ls	0x4010868c  // b.plast
    40108684:	12800120 	mov	w0, #0xfffffff6            	// #-10
    40108688:	d65f03c0 	ret
    4010868c:	5ac00908 	rev	w8, w8
    40108690:	12b00009 	mov	w9, #0x7fffffff            	// #2147483647
    40108694:	6b09011f 	cmp	w8, w9
    40108698:	128000e9 	mov	w9, #0xfffffff8            	// #-8
    4010869c:	1a893100 	csel	w0, w8, w9, cc  // cc = lo, ul, last
    401086a0:	d65f03c0 	ret
    401086a4:	7100081f 	cmp	w0, #0x2
    401086a8:	54000062 	b.cs	0x401086b4  // b.hs, b.nlast
    401086ac:	52800380 	mov	w0, #0x1c                  	// #28
    401086b0:	d65f03c0 	ret
    401086b4:	54000061 	b.ne	0x401086c0  // b.any
    401086b8:	52800400 	mov	w0, #0x20                  	// #32
    401086bc:	d65f03c0 	ret
    401086c0:	7100101f 	cmp	w0, #0x4
    401086c4:	54000062 	b.cs	0x401086d0  // b.hs, b.nlast
    401086c8:	52800480 	mov	w0, #0x24                  	// #36
    401086cc:	d65f03c0 	ret
    401086d0:	7100441f 	cmp	w0, #0x11
    401086d4:	52800508 	mov	w8, #0x28                  	// #40
    401086d8:	52800489 	mov	w9, #0x24                  	// #36
    401086dc:	9a883120 	csel	x0, x9, x8, cc  // cc = lo, ul, last
    401086e0:	d65f03c0 	ret
    401086e4:	b9401408 	ldr	w8, [x0, #20]
    401086e8:	5ac00908 	rev	w8, w8
    401086ec:	7100091f 	cmp	w8, #0x2
    401086f0:	54000062 	b.cs	0x401086fc  // b.hs, b.nlast
    401086f4:	52800380 	mov	w0, #0x1c                  	// #28
    401086f8:	d65f03c0 	ret
    401086fc:	54000061 	b.ne	0x40108708  // b.any
    40108700:	52800400 	mov	w0, #0x20                  	// #32
    40108704:	d65f03c0 	ret
    40108708:	7100111f 	cmp	w8, #0x4
    4010870c:	54000062 	b.cs	0x40108718  // b.hs, b.nlast
    40108710:	52800480 	mov	w0, #0x24                  	// #36
    40108714:	d65f03c0 	ret
    40108718:	7100451f 	cmp	w8, #0x11
    4010871c:	52800508 	mov	w8, #0x28                  	// #40
    40108720:	52800489 	mov	w9, #0x24                  	// #36
    40108724:	9a883120 	csel	x0, x9, x8, cc  // cc = lo, ul, last
    40108728:	d65f03c0 	ret
    4010872c:	f240081f 	tst	x0, #0x7
    40108730:	54000060 	b.eq	0x4010873c  // b.none
    40108734:	12800240 	mov	w0, #0xffffffed            	// #-19
    40108738:	d65f03c0 	ret
    4010873c:	b9400008 	ldr	w8, [x0]
    40108740:	529fdda9 	mov	w9, #0xfeed                	// #65261
    40108744:	72ba01a9 	movk	w9, #0xd00d, lsl #16
    40108748:	5ac00908 	rev	w8, w8
    4010874c:	6b09011f 	cmp	w8, w9
    40108750:	540000e1 	b.ne	0x4010876c  // b.any
    40108754:	b9401408 	ldr	w8, [x0, #20]
    40108758:	5ac0090a 	rev	w10, w8
    4010875c:	7100095f 	cmp	w10, #0x2
    40108760:	540000a2 	b.cs	0x40108774  // b.hs, b.nlast
    40108764:	12800120 	mov	w0, #0xfffffff6            	// #-10
    40108768:	d65f03c0 	ret
    4010876c:	12800100 	mov	w0, #0xfffffff7            	// #-9
    40108770:	d65f03c0 	ret
    40108774:	b9401808 	ldr	w8, [x0, #24]
    40108778:	5ac00909 	rev	w9, w8
    4010877c:	7100453f 	cmp	w9, #0x11
    40108780:	12800128 	mov	w8, #0xfffffff6            	// #-10
    40108784:	54000868 	b.hi	0x40108890  // b.pmore
    40108788:	6b09015f 	cmp	w10, w9
    4010878c:	54000823 	b.cc	0x40108890  // b.lo, b.ul, b.last
    40108790:	7100095f 	cmp	w10, #0x2
    40108794:	54000061 	b.ne	0x401087a0  // b.any
    40108798:	52800409 	mov	w9, #0x20                  	// #32
    4010879c:	14000009 	b	0x401087c0
    401087a0:	7100115f 	cmp	w10, #0x4
    401087a4:	54000062 	b.cs	0x401087b0  // b.hs, b.nlast
    401087a8:	52800489 	mov	w9, #0x24                  	// #36
    401087ac:	14000005 	b	0x401087c0
    401087b0:	7100455f 	cmp	w10, #0x11
    401087b4:	52800508 	mov	w8, #0x28                  	// #40
    401087b8:	52800489 	mov	w9, #0x24                  	// #36
    401087bc:	9a883129 	csel	x9, x9, x8, cc  // cc = lo, ul, last
    401087c0:	b9400408 	ldr	w8, [x0, #4]
    401087c4:	d3607d08 	lsl	x8, x8, #32
    401087c8:	dac00d0b 	rev	x11, x8
    401087cc:	128000e8 	mov	w8, #0xfffffff8            	// #-8
    401087d0:	37f8060b 	tbnz	w11, #31, 0x40108890
    401087d4:	eb0b013f 	cmp	x9, x11
    401087d8:	540005c8 	b.hi	0x40108890  // b.pmore
    401087dc:	b9401008 	ldr	w8, [x0, #16]
    401087e0:	5ac0090c 	rev	w12, w8
    401087e4:	6b09019f 	cmp	w12, w9
    401087e8:	128000e8 	mov	w8, #0xfffffff8            	// #-8
    401087ec:	54000523 	b.cc	0x40108890  // b.lo, b.ul, b.last
    401087f0:	6b0b019f 	cmp	w12, w11
    401087f4:	540004e8 	b.hi	0x40108890  // b.pmore
    401087f8:	b9400808 	ldr	w8, [x0, #8]
    401087fc:	5ac00908 	rev	w8, w8
    40108800:	6b09011f 	cmp	w8, w9
    40108804:	1a9f27ec 	cset	w12, cc  // cc = lo, ul, last
    40108808:	6b0b011f 	cmp	w8, w11
    4010880c:	1a9f97ed 	cset	w13, hi  // hi = pmore
    40108810:	7100415f 	cmp	w10, #0x10
    40108814:	2a0d018a 	orr	w10, w12, w13
    40108818:	54000248 	b.hi	0x40108860  // b.pmore
    4010881c:	370002ca 	tbnz	w10, #0, 0x40108874
    40108820:	b9400c08 	ldr	w8, [x0, #12]
    40108824:	5ac00908 	rev	w8, w8
    40108828:	6b09011f 	cmp	w8, w9
    4010882c:	54000243 	b.cc	0x40108874  // b.lo, b.ul, b.last
    40108830:	6b0b011f 	cmp	w8, w11
    40108834:	54000208 	b.hi	0x40108874  // b.pmore
    40108838:	b940200a 	ldr	w10, [x0, #32]
    4010883c:	5ac0094a 	rev	w10, w10
    40108840:	2b080148 	adds	w8, w10, w8
    40108844:	54000182 	b.cs	0x40108874  // b.hs, b.nlast
    40108848:	6b09011f 	cmp	w8, w9
    4010884c:	54000143 	b.cc	0x40108874  // b.lo, b.ul, b.last
    40108850:	6b0b011f 	cmp	w8, w11
    40108854:	54000108 	b.hi	0x40108874  // b.pmore
    40108858:	2a1f03e8 	mov	w8, wzr
    4010885c:	1400000d 	b	0x40108890
    40108860:	370000aa 	tbnz	w10, #0, 0x40108874
    40108864:	b940240a 	ldr	w10, [x0, #36]
    40108868:	5ac0094a 	rev	w10, w10
    4010886c:	2b08014a 	adds	w10, w10, w8
    40108870:	54000063 	b.cc	0x4010887c  // b.lo, b.ul, b.last
    40108874:	128000e0 	mov	w0, #0xfffffff8            	// #-8
    40108878:	d65f03c0 	ret
    4010887c:	6b09015f 	cmp	w10, w9
    40108880:	128000e8 	mov	w8, #0xfffffff8            	// #-8
    40108884:	54000063 	b.cc	0x40108890  // b.lo, b.ul, b.last
    40108888:	6b0b015f 	cmp	w10, w11
    4010888c:	54fffca9 	b.ls	0x40108820  // b.plast
    40108890:	2a0803e0 	mov	w0, w8
    40108894:	d65f03c0 	ret
    40108898:	3940200c 	ldrb	w12, [x0, #8]
    4010889c:	39402409 	ldrb	w9, [x0, #9]
    401088a0:	3940280a 	ldrb	w10, [x0, #10]
    401088a4:	39402c0b 	ldrb	w11, [x0, #11]
    401088a8:	53081d8d 	lsl	w13, w12, #24
    401088ac:	33101d2d 	bfi	w13, w9, #16, #8
    401088b0:	33181d4d 	bfi	w13, w10, #8, #8
    401088b4:	2a0b01ad 	orr	w13, w13, w11
    401088b8:	2b0101ad 	adds	w13, w13, w1
    401088bc:	aa1f03e8 	mov	x8, xzr
    401088c0:	1a9f37ee 	cset	w14, cs  // cs = hs, nlast
    401088c4:	37f80421 	tbnz	w1, #31, 0x40108948
    401088c8:	3700040e 	tbnz	w14, #0, 0x40108948
    401088cc:	2b0201a8 	adds	w8, w13, w2
    401088d0:	54000063 	b.cc	0x401088dc  // b.lo, b.ul, b.last
    401088d4:	aa1f03e0 	mov	x0, xzr
    401088d8:	d65f03c0 	ret
    401088dc:	b940040d 	ldr	w13, [x0, #4]
    401088e0:	5ac009ad 	rev	w13, w13
    401088e4:	6b0d011f 	cmp	w8, w13
    401088e8:	54000069 	b.ls	0x401088f4  // b.plast
    401088ec:	aa1f03e0 	mov	x0, xzr
    401088f0:	d65f03c0 	ret
    401088f4:	b9401408 	ldr	w8, [x0, #20]
    401088f8:	5ac00908 	rev	w8, w8
    401088fc:	7100451f 	cmp	w8, #0x11
    40108900:	54000163 	b.cc	0x4010892c  // b.lo, b.ul, b.last
    40108904:	2b010048 	adds	w8, w2, w1
    40108908:	54000063 	b.cc	0x40108914  // b.lo, b.ul, b.last
    4010890c:	aa1f03e0 	mov	x0, xzr
    40108910:	d65f03c0 	ret
    40108914:	b940240d 	ldr	w13, [x0, #36]
    40108918:	5ac009ad 	rev	w13, w13
    4010891c:	6b0d011f 	cmp	w8, w13
    40108920:	54000069 	b.ls	0x4010892c  // b.plast
    40108924:	aa1f03e0 	mov	x0, xzr
    40108928:	d65f03c0 	ret
    4010892c:	92401d88 	and	x8, x12, #0xff
    40108930:	d3689d08 	lsl	x8, x8, #24
    40108934:	b3701d28 	bfi	x8, x9, #16, #8
    40108938:	b3781d48 	bfi	x8, x10, #8, #8
    4010893c:	aa0b0108 	orr	x8, x8, x11
    40108940:	8b080008 	add	x8, x0, x8
    40108944:	8b214108 	add	x8, x8, w1, uxtw
    40108948:	aa0803e0 	mov	x0, x8
    4010894c:	d65f03c0 	ret
    40108950:	a9bc7bfd 	stp	x29, x30, [sp, #-64]!
    40108954:	f9000bf7 	str	x23, [sp, #16]
    40108958:	a90257f6 	stp	x22, x21, [sp, #32]
    4010895c:	a9034ff4 	stp	x20, x19, [sp, #48]
    40108960:	910003fd 	mov	x29, sp
    40108964:	128000e8 	mov	w8, #0xfffffff8            	// #-8
    40108968:	aa0203f3 	mov	x19, x2
    4010896c:	b9000048 	str	w8, [x2]
    40108970:	52800082 	mov	w2, #0x4                   	// #4
    40108974:	2a0103f4 	mov	w20, w1
    40108978:	aa0003f5 	mov	x21, x0
    4010897c:	97ffffc7 	bl	0x40108898
    40108980:	b40006c0 	cbz	x0, 0x40108a58
    40108984:	b9400008 	ldr	w8, [x0]
    40108988:	12800149 	mov	w9, #0xfffffff5            	// #-11
    4010898c:	52800120 	mov	w0, #0x9                   	// #9
    40108990:	b9000269 	str	w9, [x19]
    40108994:	5ac00917 	rev	w23, w8
    40108998:	510006e8 	sub	w8, w23, #0x1
    4010899c:	7100211f 	cmp	w8, #0x8
    401089a0:	540005e8 	b.hi	0x40108a5c  // b.pmore
    401089a4:	90000089 	adrp	x9, 0x40118000
    401089a8:	91088129 	add	x9, x9, #0x220
    401089ac:	100000aa 	adr	x10, 0x401089c0
    401089b0:	3868692b 	ldrb	w11, [x9, x8]
    401089b4:	8b0b094a 	add	x10, x10, x11, lsl #2
    401089b8:	11001296 	add	w22, w20, #0x4
    401089bc:	d61f0140 	br	x10
    401089c0:	4b1402c2 	sub	w2, w22, w20
    401089c4:	aa1503e0 	mov	x0, x21
    401089c8:	2a1403e1 	mov	w1, w20
    401089cc:	97ffffb3 	bl	0x40108898
    401089d0:	b4000440 	cbz	x0, 0x40108a58
    401089d4:	11000ec8 	add	w8, w22, #0x3
    401089d8:	121e7508 	and	w8, w8, #0xfffffffc
    401089dc:	2a1703e0 	mov	w0, w23
    401089e0:	b9000268 	str	w8, [x19]
    401089e4:	1400001e 	b	0x40108a5c
    401089e8:	39400008 	ldrb	w8, [x0]
    401089ec:	110006d6 	add	w22, w22, #0x1
    401089f0:	34fffe88 	cbz	w8, 0x401089c0
    401089f4:	52800022 	mov	w2, #0x1                   	// #1
    401089f8:	aa1503e0 	mov	x0, x21
    401089fc:	2a1603e1 	mov	w1, w22
    40108a00:	97ffffa6 	bl	0x40108898
    40108a04:	b5ffff20 	cbnz	x0, 0x401089e8
    40108a08:	14000014 	b	0x40108a58
    40108a0c:	52800082 	mov	w2, #0x4                   	// #4
    40108a10:	aa1503e0 	mov	x0, x21
    40108a14:	2a1603e1 	mov	w1, w22
    40108a18:	97ffffa0 	bl	0x40108898
    40108a1c:	b40001e0 	cbz	x0, 0x40108a58
    40108a20:	b9400008 	ldr	w8, [x0]
    40108a24:	5ac00909 	rev	w9, w8
    40108a28:	11003288 	add	w8, w20, #0xc
    40108a2c:	7100213f 	cmp	w9, #0x8
    40108a30:	0b090116 	add	w22, w8, w9
    40108a34:	54fffc63 	b.cc	0x401089c0  // b.lo, b.ul, b.last
    40108a38:	b94016a9 	ldr	w9, [x21, #20]
    40108a3c:	5ac00929 	rev	w9, w9
    40108a40:	71003d3f 	cmp	w9, #0xf
    40108a44:	54fffbe8 	b.hi	0x401089c0  // b.pmore
    40108a48:	110012c9 	add	w9, w22, #0x4
    40108a4c:	7200091f 	tst	w8, #0x7
    40108a50:	1a8902d6 	csel	w22, w22, w9, eq  // eq = none
    40108a54:	17ffffdb 	b	0x401089c0
    40108a58:	52800120 	mov	w0, #0x9                   	// #9
    40108a5c:	a9434ff4 	ldp	x20, x19, [sp, #48]
    40108a60:	a94257f6 	ldp	x22, x21, [sp, #32]
    40108a64:	f9400bf7 	ldr	x23, [sp, #16]
    40108a68:	a8c47bfd 	ldp	x29, x30, [sp], #64
    40108a6c:	d65f03c0 	ret
    40108a70:	d10083ff 	sub	sp, sp, #0x20
    40108a74:	a9017bfd 	stp	x29, x30, [sp, #16]
    40108a78:	910043fd 	add	x29, sp, #0x10
    40108a7c:	7201083f 	tst	w1, #0x80000003
    40108a80:	b81fc3a1 	stur	w1, [x29, #-4]
    40108a84:	54000060 	b.eq	0x40108a90  // b.none
    40108a88:	12800060 	mov	w0, #0xfffffffc            	// #-4
    40108a8c:	14000007 	b	0x40108aa8
    40108a90:	d10013a2 	sub	x2, x29, #0x4
    40108a94:	97ffffaf 	bl	0x40108950
    40108a98:	b85fc3a8 	ldur	w8, [x29, #-4]
    40108a9c:	7100041f 	cmp	w0, #0x1
    40108aa0:	12800069 	mov	w9, #0xfffffffc            	// #-4
    40108aa4:	1a890100 	csel	w0, w8, w9, eq  // eq = none
    40108aa8:	a9417bfd 	ldp	x29, x30, [sp, #16]
    40108aac:	910083ff 	add	sp, sp, #0x20
    40108ab0:	d65f03c0 	ret
    40108ab4:	d10083ff 	sub	sp, sp, #0x20
    40108ab8:	a9017bfd 	stp	x29, x30, [sp, #16]
    40108abc:	910043fd 	add	x29, sp, #0x10
    40108ac0:	7201083f 	tst	w1, #0x80000003
    40108ac4:	b81fc3a1 	stur	w1, [x29, #-4]
    40108ac8:	54000060 	b.eq	0x40108ad4  // b.none
    40108acc:	12800060 	mov	w0, #0xfffffffc            	// #-4
    40108ad0:	14000007 	b	0x40108aec
    40108ad4:	d10013a2 	sub	x2, x29, #0x4
    40108ad8:	97ffff9e 	bl	0x40108950
    40108adc:	b85fc3a8 	ldur	w8, [x29, #-4]
    40108ae0:	71000c1f 	cmp	w0, #0x3
    40108ae4:	12800069 	mov	w9, #0xfffffffc            	// #-4
    40108ae8:	1a890100 	csel	w0, w8, w9, eq  // eq = none
    40108aec:	a9417bfd 	ldp	x29, x30, [sp, #16]
    40108af0:	910083ff 	add	sp, sp, #0x20
    40108af4:	d65f03c0 	ret
    40108af8:	a9bd7bfd 	stp	x29, x30, [sp, #-48]!
    40108afc:	f9000bf5 	str	x21, [sp, #16]
    40108b00:	a9024ff4 	stp	x20, x19, [sp, #32]
    40108b04:	910003fd 	mov	x29, sp
    40108b08:	aa0203f3 	mov	x19, x2
    40108b0c:	aa0003f4 	mov	x20, x0
    40108b10:	b9001bbf 	str	wzr, [x29, #24]
    40108b14:	37f80281 	tbnz	w1, #31, 0x40108b64
    40108b18:	7201083f 	tst	w1, #0x80000003
    40108b1c:	b9001fa1 	str	w1, [x29, #28]
    40108b20:	54000141 	b.ne	0x40108b48  // b.any
    40108b24:	910073a2 	add	x2, x29, #0x1c
    40108b28:	aa1403e0 	mov	x0, x20
    40108b2c:	97ffff89 	bl	0x40108950
    40108b30:	7100041f 	cmp	w0, #0x1
    40108b34:	540000a1 	b.ne	0x40108b48  // b.any
    40108b38:	b9401fb5 	ldr	w21, [x29, #28]
    40108b3c:	b9001bb5 	str	w21, [x29, #24]
    40108b40:	36f80195 	tbz	w21, #31, 0x40108b70
    40108b44:	14000003 	b	0x40108b50
    40108b48:	12800075 	mov	w21, #0xfffffffc            	// #-4
    40108b4c:	b9001bb5 	str	w21, [x29, #24]
    40108b50:	2a1503e0 	mov	w0, w21
    40108b54:	a9424ff4 	ldp	x20, x19, [sp, #32]
    40108b58:	f9400bf5 	ldr	x21, [sp, #16]
    40108b5c:	a8c37bfd 	ldp	x29, x30, [sp], #48
    40108b60:	d65f03c0 	ret
    40108b64:	2a1f03f5 	mov	w21, wzr
    40108b68:	14000002 	b	0x40108b70
    40108b6c:	b9401bb5 	ldr	w21, [x29, #24]
    40108b70:	910063a2 	add	x2, x29, #0x18
    40108b74:	aa1403e0 	mov	x0, x20
    40108b78:	2a1503e1 	mov	w1, w21
    40108b7c:	97ffff75 	bl	0x40108950
    40108b80:	7100081f 	cmp	w0, #0x2
    40108b84:	540000c0 	b.eq	0x40108b9c  // b.none
    40108b88:	7100041f 	cmp	w0, #0x1
    40108b8c:	54000180 	b.eq	0x40108bbc  // b.none
    40108b90:	7100241f 	cmp	w0, #0x9
    40108b94:	54fffec1 	b.ne	0x40108b6c  // b.any
    40108b98:	1400000e 	b	0x40108bd0
    40108b9c:	b4fffe93 	cbz	x19, 0x40108b6c
    40108ba0:	b9400268 	ldr	w8, [x19]
    40108ba4:	51000509 	sub	w9, w8, #0x1
    40108ba8:	7100011f 	cmp	w8, #0x0
    40108bac:	b9000269 	str	w9, [x19]
    40108bb0:	54fffdec 	b.gt	0x40108b6c
    40108bb4:	b9401bb5 	ldr	w21, [x29, #24]
    40108bb8:	17ffffe6 	b	0x40108b50
    40108bbc:	b4fffcb3 	cbz	x19, 0x40108b50
    40108bc0:	b9400268 	ldr	w8, [x19]
    40108bc4:	11000508 	add	w8, w8, #0x1
    40108bc8:	b9000268 	str	w8, [x19]
    40108bcc:	17ffffe1 	b	0x40108b50
    40108bd0:	b9401ba8 	ldr	w8, [x29, #24]
    40108bd4:	37f80068 	tbnz	w8, #31, 0x40108be0
    40108bd8:	12800015 	mov	w21, #0xffffffff            	// #-1
    40108bdc:	17ffffdd 	b	0x40108b50
    40108be0:	3100211f 	cmn	w8, #0x8
    40108be4:	fa400a60 	ccmp	x19, #0x0, #0x0, eq  // eq = none
    40108be8:	5a9f1115 	csinv	w21, w8, wzr, ne  // ne = any
    40108bec:	17ffffd9 	b	0x40108b50
    40108bf0:	d100c3ff 	sub	sp, sp, #0x30
    40108bf4:	a9017bfd 	stp	x29, x30, [sp, #16]
    40108bf8:	a9024ff4 	stp	x20, x19, [sp, #32]
    40108bfc:	910043fd 	add	x29, sp, #0x10
    40108c00:	aa0003f4 	mov	x20, x0
    40108c04:	b9000bff 	str	wzr, [sp, #8]
    40108c08:	37f80201 	tbnz	w1, #31, 0x40108c48
    40108c0c:	7201083f 	tst	w1, #0x80000003
    40108c10:	b81fc3a1 	stur	w1, [x29, #-4]
    40108c14:	54000141 	b.ne	0x40108c3c  // b.any
    40108c18:	d10013a2 	sub	x2, x29, #0x4
    40108c1c:	aa1403e0 	mov	x0, x20
    40108c20:	97ffff4c 	bl	0x40108950
    40108c24:	7100041f 	cmp	w0, #0x1
    40108c28:	540000a1 	b.ne	0x40108c3c  // b.any
    40108c2c:	b85fc3b3 	ldur	w19, [x29, #-4]
    40108c30:	b9000bf3 	str	w19, [sp, #8]
    40108c34:	36f800d3 	tbz	w19, #31, 0x40108c4c
    40108c38:	14000018 	b	0x40108c98
    40108c3c:	12800073 	mov	w19, #0xfffffffc            	// #-4
    40108c40:	b9000bf3 	str	w19, [sp, #8]
    40108c44:	14000015 	b	0x40108c98
    40108c48:	2a1f03f3 	mov	w19, wzr
    40108c4c:	910023e2 	add	x2, sp, #0x8
    40108c50:	aa1403e0 	mov	x0, x20
    40108c54:	2a1303e1 	mov	w1, w19
    40108c58:	97ffff3e 	bl	0x40108950
    40108c5c:	7100041f 	cmp	w0, #0x1
    40108c60:	540000e0 	b.eq	0x40108c7c  // b.none
    40108c64:	7100081f 	cmp	w0, #0x2
    40108c68:	540000e0 	b.eq	0x40108c84  // b.none
    40108c6c:	7100241f 	cmp	w0, #0x9
    40108c70:	540000e0 	b.eq	0x40108c8c  // b.none
    40108c74:	b9400bf3 	ldr	w19, [sp, #8]
    40108c78:	17fffff5 	b	0x40108c4c
    40108c7c:	2a1f03e8 	mov	w8, wzr
    40108c80:	14000007 	b	0x40108c9c
    40108c84:	b9400bf3 	ldr	w19, [sp, #8]
    40108c88:	14000004 	b	0x40108c98
    40108c8c:	b9400be8 	ldr	w8, [sp, #8]
    40108c90:	3100051f 	cmn	w8, #0x1
    40108c94:	5a9fb113 	csinv	w19, w8, wzr, lt  // lt = tstop
    40108c98:	52800028 	mov	w8, #0x1                   	// #1
    40108c9c:	7100027f 	cmp	w19, #0x0
    40108ca0:	1a9fa7e9 	cset	w9, lt  // lt = tstop
    40108ca4:	2a090108 	orr	w8, w8, w9
    40108ca8:	7100011f 	cmp	w8, #0x0
    40108cac:	5a9f0260 	csinv	w0, w19, wzr, eq  // eq = none
    40108cb0:	a9424ff4 	ldp	x20, x19, [sp, #32]
    40108cb4:	a9417bfd 	ldp	x29, x30, [sp, #16]
    40108cb8:	9100c3ff 	add	sp, sp, #0x30
    40108cbc:	d65f03c0 	ret
    40108cc0:	a9bd7bfd 	stp	x29, x30, [sp, #-48]!
    40108cc4:	f9000bf5 	str	x21, [sp, #16]
    40108cc8:	a9024ff4 	stp	x20, x19, [sp, #32]
    40108ccc:	910003fd 	mov	x29, sp
    40108cd0:	2a0103f4 	mov	w20, w1
    40108cd4:	aa0003f3 	mov	x19, x0
    40108cd8:	52800035 	mov	w21, #0x1                   	// #1
    40108cdc:	b9001bbf 	str	wzr, [x29, #24]
    40108ce0:	37f801d4 	tbnz	w20, #31, 0x40108d18
    40108ce4:	72010a9f 	tst	w20, #0x80000003
    40108ce8:	b9001fb4 	str	w20, [x29, #28]
    40108cec:	540004e1 	b.ne	0x40108d88  // b.any
    40108cf0:	910073a2 	add	x2, x29, #0x1c
    40108cf4:	aa1303e0 	mov	x0, x19
    40108cf8:	2a1403e1 	mov	w1, w20
    40108cfc:	97ffff15 	bl	0x40108950
    40108d00:	7100041f 	cmp	w0, #0x1
    40108d04:	54000421 	b.ne	0x40108d88  // b.any
    40108d08:	b9401fb4 	ldr	w20, [x29, #28]
    40108d0c:	b9001bb4 	str	w20, [x29, #24]
    40108d10:	36f80114 	tbz	w20, #31, 0x40108d30
    40108d14:	1400001f 	b	0x40108d90
    40108d18:	2a1f03f4 	mov	w20, wzr
    40108d1c:	14000005 	b	0x40108d30
    40108d20:	710002bf 	cmp	w21, #0x0
    40108d24:	510006b5 	sub	w21, w21, #0x1
    40108d28:	540001ed 	b.le	0x40108d64
    40108d2c:	b9401bb4 	ldr	w20, [x29, #24]
    40108d30:	910063a2 	add	x2, x29, #0x18
    40108d34:	aa1303e0 	mov	x0, x19
    40108d38:	2a1403e1 	mov	w1, w20
    40108d3c:	97ffff05 	bl	0x40108950
    40108d40:	7100081f 	cmp	w0, #0x2
    40108d44:	54fffee0 	b.eq	0x40108d20  // b.none
    40108d48:	7100041f 	cmp	w0, #0x1
    40108d4c:	54000080 	b.eq	0x40108d5c  // b.none
    40108d50:	7100241f 	cmp	w0, #0x9
    40108d54:	54fffec1 	b.ne	0x40108d2c  // b.any
    40108d58:	1400000e 	b	0x40108d90
    40108d5c:	110006b5 	add	w21, w21, #0x1
    40108d60:	14000002 	b	0x40108d68
    40108d64:	b9401bb4 	ldr	w20, [x29, #24]
    40108d68:	710006bf 	cmp	w21, #0x1
    40108d6c:	12800000 	mov	w0, #0xffffffff            	// #-1
    40108d70:	5400012b 	b.lt	0x40108d94  // b.tstop
    40108d74:	37f80114 	tbnz	w20, #31, 0x40108d94
    40108d78:	710006bf 	cmp	w21, #0x1
    40108d7c:	2a1403e0 	mov	w0, w20
    40108d80:	54fffaec 	b.gt	0x40108cdc
    40108d84:	14000004 	b	0x40108d94
    40108d88:	12800068 	mov	w8, #0xfffffffc            	// #-4
    40108d8c:	b9001ba8 	str	w8, [x29, #24]
    40108d90:	12800000 	mov	w0, #0xffffffff            	// #-1
    40108d94:	a9424ff4 	ldp	x20, x19, [sp, #32]
    40108d98:	f9400bf5 	ldr	x21, [sp, #16]
    40108d9c:	a8c37bfd 	ldp	x29, x30, [sp], #48
    40108da0:	d65f03c0 	ret
    40108da4:	a9bd7bfd 	stp	x29, x30, [sp, #-48]!
    40108da8:	a90157f6 	stp	x22, x21, [sp, #16]
    40108dac:	a9024ff4 	stp	x20, x19, [sp, #32]
    40108db0:	910003fd 	mov	x29, sp
    40108db4:	aa0003f3 	mov	x19, x0
    40108db8:	aa0203e0 	mov	x0, x2
    40108dbc:	aa0203f4 	mov	x20, x2
    40108dc0:	2a0103f5 	mov	w21, w1
    40108dc4:	940018ab 	bl	0x4010f070
    40108dc8:	11000409 	add	w9, w0, #0x1
    40108dcc:	8b35c268 	add	x8, x19, w21, sxtw
    40108dd0:	93407d35 	sxtw	x21, w9
    40108dd4:	cb150116 	sub	x22, x8, x21
    40108dd8:	eb1302df 	cmp	x22, x19
    40108ddc:	54000123 	b.cc	0x40108e00  // b.lo, b.ul, b.last
    40108de0:	aa1303e0 	mov	x0, x19
    40108de4:	aa1403e1 	mov	x1, x20
    40108de8:	aa1503e2 	mov	x2, x21
    40108dec:	94001895 	bl	0x4010f040
    40108df0:	340000a0 	cbz	w0, 0x40108e04
    40108df4:	91000673 	add	x19, x19, #0x1
    40108df8:	eb16027f 	cmp	x19, x22
    40108dfc:	54ffff29 	b.ls	0x40108de0  // b.plast
    40108e00:	aa1f03f3 	mov	x19, xzr
    40108e04:	aa1303e0 	mov	x0, x19
    40108e08:	a9424ff4 	ldp	x20, x19, [sp, #32]
    40108e0c:	a94157f6 	ldp	x22, x21, [sp, #16]
    40108e10:	a8c37bfd 	ldp	x29, x30, [sp], #48
    40108e14:	d65f03c0 	ret
    40108e18:	a9bd7bfd 	stp	x29, x30, [sp, #-48]!
    40108e1c:	f9000bf5 	str	x21, [sp, #16]
    40108e20:	a9024ff4 	stp	x20, x19, [sp, #32]
    40108e24:	910003fd 	mov	x29, sp
    40108e28:	37f80162 	tbnz	w2, #31, 0x40108e54
    40108e2c:	2a0203f5 	mov	w21, w2
    40108e30:	aa0103f4 	mov	x20, x1
    40108e34:	aa0003f3 	mov	x19, x0
    40108e38:	97fffdf4 	bl	0x40108608
    40108e3c:	37f80180 	tbnz	w0, #31, 0x40108e6c
    40108e40:	b9400668 	ldr	w8, [x19, #4]
    40108e44:	d3607d08 	lsl	x8, x8, #32
    40108e48:	dac00d02 	rev	x2, x8
    40108e4c:	6b15005f 	cmp	w2, w21
    40108e50:	54000069 	b.ls	0x40108e5c  // b.plast
    40108e54:	12800040 	mov	w0, #0xfffffffd            	// #-3
    40108e58:	14000005 	b	0x40108e6c
    40108e5c:	aa1403e0 	mov	x0, x20
    40108e60:	aa1303e1 	mov	x1, x19
    40108e64:	94001866 	bl	0x4010effc
    40108e68:	2a1f03e0 	mov	w0, wzr
    40108e6c:	a9424ff4 	ldp	x20, x19, [sp, #32]
    40108e70:	f9400bf5 	ldr	x21, [sp, #16]
    40108e74:	a8c37bfd 	ldp	x29, x30, [sp], #48
    40108e78:	d65f03c0 	ret
    40108e7c:	d10083ff 	sub	sp, sp, #0x20
    40108e80:	a9017bfd 	stp	x29, x30, [sp, #16]
    40108e84:	910043fd 	add	x29, sp, #0x10
    40108e88:	90000082 	adrp	x2, 0x40118000
    40108e8c:	913fec42 	add	x2, x2, #0xffb
    40108e90:	d10013a3 	sub	x3, x29, #0x4
    40108e94:	9400077a 	bl	0x4010ac7c
    40108e98:	b85fc3a8 	ldur	w8, [x29, #-4]
    40108e9c:	b40000e0 	cbz	x0, 0x40108eb8
    40108ea0:	7100111f 	cmp	w8, #0x4
    40108ea4:	54000141 	b.ne	0x40108ecc  // b.any
    40108ea8:	b9400008 	ldr	w8, [x0]
    40108eac:	5ac00908 	rev	w8, w8
    40108eb0:	7100151f 	cmp	w8, #0x5
    40108eb4:	540000c2 	b.cs	0x40108ecc  // b.hs, b.nlast
    40108eb8:	340000a8 	cbz	w8, 0x40108ecc
    40108ebc:	3100051f 	cmn	w8, #0x1
    40108ec0:	54000081 	b.ne	0x40108ed0  // b.any
    40108ec4:	52800048 	mov	w8, #0x2                   	// #2
    40108ec8:	14000002 	b	0x40108ed0
    40108ecc:	128001a8 	mov	w8, #0xfffffff2            	// #-14
    40108ed0:	a9417bfd 	ldp	x29, x30, [sp, #16]
    40108ed4:	2a0803e0 	mov	w0, w8
    40108ed8:	910083ff 	add	sp, sp, #0x20
    40108edc:	d65f03c0 	ret
    40108ee0:	d10083ff 	sub	sp, sp, #0x20
    40108ee4:	a9017bfd 	stp	x29, x30, [sp, #16]
    40108ee8:	910043fd 	add	x29, sp, #0x10
    40108eec:	b0000082 	adrp	x2, 0x40119000
    40108ef0:	9124ec42 	add	x2, x2, #0x93b
    40108ef4:	d10013a3 	sub	x3, x29, #0x4
    40108ef8:	94000761 	bl	0x4010ac7c
    40108efc:	b85fc3a9 	ldur	w9, [x29, #-4]
    40108f00:	b4000140 	cbz	x0, 0x40108f28
    40108f04:	aa0003e8 	mov	x8, x0
    40108f08:	7100113f 	cmp	w9, #0x4
    40108f0c:	128001a0 	mov	w0, #0xfffffff2            	// #-14
    40108f10:	54000101 	b.ne	0x40108f30  // b.any
    40108f14:	b9400108 	ldr	w8, [x8]
    40108f18:	5ac00908 	rev	w8, w8
    40108f1c:	7100111f 	cmp	w8, #0x4
    40108f20:	1a888000 	csel	w0, w0, w8, hi  // hi = pmore
    40108f24:	14000003 	b	0x40108f30
    40108f28:	3100053f 	cmn	w9, #0x1
    40108f2c:	1a9f1520 	csinc	w0, w9, wzr, ne  // ne = any
    40108f30:	a9417bfd 	ldp	x29, x30, [sp, #16]
    40108f34:	910083ff 	add	sp, sp, #0x20
    40108f38:	d65f03c0 	ret
    40108f3c:	d10183ff 	sub	sp, sp, #0x60
    40108f40:	a9017bfd 	stp	x29, x30, [sp, #16]
    40108f44:	f90013f9 	str	x25, [sp, #32]
    40108f48:	a9035ff8 	stp	x24, x23, [sp, #48]
    40108f4c:	a90457f6 	stp	x22, x21, [sp, #64]
    40108f50:	a9054ff4 	stp	x20, x19, [sp, #80]
    40108f54:	910043fd 	add	x29, sp, #0x10
    40108f58:	2a0203f4 	mov	w20, w2
    40108f5c:	90000082 	adrp	x2, 0x40118000
    40108f60:	aa0303f3 	mov	x19, x3
    40108f64:	913fec42 	add	x2, x2, #0xffb
    40108f68:	910003e3 	mov	x3, sp
    40108f6c:	aa0503f6 	mov	x22, x5
    40108f70:	aa0403f7 	mov	x23, x4
    40108f74:	2a0103f8 	mov	w24, w1
    40108f78:	aa0003f5 	mov	x21, x0
    40108f7c:	94000740 	bl	0x4010ac7c
    40108f80:	b94003f9 	ldr	w25, [sp]
    40108f84:	b40000e0 	cbz	x0, 0x40108fa0
    40108f88:	7100133f 	cmp	w25, #0x4
    40108f8c:	54000a21 	b.ne	0x401090d0  // b.any
    40108f90:	b9400008 	ldr	w8, [x0]
    40108f94:	5ac00919 	rev	w25, w8
    40108f98:	7100173f 	cmp	w25, #0x5
    40108f9c:	540009a2 	b.cs	0x401090d0  // b.hs, b.nlast
    40108fa0:	3100073f 	cmn	w25, #0x1
    40108fa4:	540000a0 	b.eq	0x40108fb8  // b.none
    40108fa8:	34000959 	cbz	w25, 0x401090d0
    40108fac:	2a1903e0 	mov	w0, w25
    40108fb0:	36f80079 	tbz	w25, #31, 0x40108fbc
    40108fb4:	14000048 	b	0x401090d4
    40108fb8:	52800059 	mov	w25, #0x2                   	// #2
    40108fbc:	b0000082 	adrp	x2, 0x40119000
    40108fc0:	9124ec42 	add	x2, x2, #0x93b
    40108fc4:	910003e3 	mov	x3, sp
    40108fc8:	aa1503e0 	mov	x0, x21
    40108fcc:	2a1803e1 	mov	w1, w24
    40108fd0:	9400072b 	bl	0x4010ac7c
    40108fd4:	b94003e8 	ldr	w8, [sp]
    40108fd8:	b4000120 	cbz	x0, 0x40108ffc
    40108fdc:	7100111f 	cmp	w8, #0x4
    40108fe0:	128001a8 	mov	w8, #0xfffffff2            	// #-14
    40108fe4:	54000101 	b.ne	0x40109004  // b.any
    40108fe8:	b9400009 	ldr	w9, [x0]
    40108fec:	5ac00929 	rev	w9, w9
    40108ff0:	7100113f 	cmp	w9, #0x4
    40108ff4:	1a898108 	csel	w8, w8, w9, hi  // hi = pmore
    40108ff8:	14000003 	b	0x40109004
    40108ffc:	3100051f 	cmn	w8, #0x1
    40109000:	540002c0 	b.eq	0x40109058  // b.none
    40109004:	2a0803e0 	mov	w0, w8
    40109008:	37f80668 	tbnz	w8, #31, 0x401090d4
    4010900c:	71000b3f 	cmp	w25, #0x2
    40109010:	540002a0 	b.eq	0x40109064  // b.none
    40109014:	7100073f 	cmp	w25, #0x1
    40109018:	540005c1 	b.ne	0x401090d0  // b.any
    4010901c:	d360fee9 	lsr	x9, x23, #32
    40109020:	128001c0 	mov	w0, #0xfffffff1            	// #-15
    40109024:	b5000589 	cbnz	x9, 0x401090d4
    40109028:	d2c00029 	mov	x9, #0x100000000           	// #4294967296
    4010902c:	cb170129 	sub	x9, x9, x23
    40109030:	eb16013f 	cmp	x9, x22
    40109034:	54000503 	b.cc	0x401090d4  // b.lo, b.ul, b.last
    40109038:	d3587eeb 	ubfx	x11, x23, #24, #8
    4010903c:	d3507eec 	ubfx	x12, x23, #16, #16
    40109040:	d3487ee9 	ubfx	x9, x23, #8, #24
    40109044:	5280006a 	mov	w10, #0x3                   	// #3
    40109048:	390003eb 	strb	w11, [sp]
    4010904c:	390007ec 	strb	w12, [sp, #1]
    40109050:	5280004b 	mov	w11, #0x2                   	// #2
    40109054:	14000013 	b	0x401090a0
    40109058:	52800028 	mov	w8, #0x1                   	// #1
    4010905c:	71000b3f 	cmp	w25, #0x2
    40109060:	54fffda1 	b.ne	0x40109014  // b.any
    40109064:	d378feeb 	lsr	x11, x23, #56
    40109068:	d370feec 	lsr	x12, x23, #48
    4010906c:	d368feed 	lsr	x13, x23, #40
    40109070:	d360feee 	lsr	x14, x23, #32
    40109074:	d358feef 	lsr	x15, x23, #24
    40109078:	d350fef0 	lsr	x16, x23, #16
    4010907c:	d348fee9 	lsr	x9, x23, #8
    40109080:	528000ea 	mov	w10, #0x7                   	// #7
    40109084:	390003eb 	strb	w11, [sp]
    40109088:	528000cb 	mov	w11, #0x6                   	// #6
    4010908c:	390007ec 	strb	w12, [sp, #1]
    40109090:	39000bed 	strb	w13, [sp, #2]
    40109094:	39000fee 	strb	w14, [sp, #3]
    40109098:	390013ef 	strb	w15, [sp, #4]
    4010909c:	390017f0 	strb	w16, [sp, #5]
    401090a0:	910003ec 	mov	x12, sp
    401090a4:	7100091f 	cmp	w8, #0x2
    401090a8:	382b6989 	strb	w9, [x12, x11]
    401090ac:	8b394989 	add	x9, x12, w25, uxtw #2
    401090b0:	382a6997 	strb	w23, [x12, x10]
    401090b4:	540001e0 	b.eq	0x401090f0  // b.none
    401090b8:	7100051f 	cmp	w8, #0x1
    401090bc:	540000a1 	b.ne	0x401090d0  // b.any
    401090c0:	d360feca 	lsr	x10, x22, #32
    401090c4:	b400036a 	cbz	x10, 0x40109130
    401090c8:	128001c0 	mov	w0, #0xfffffff1            	// #-15
    401090cc:	14000002 	b	0x401090d4
    401090d0:	128001a0 	mov	w0, #0xfffffff2            	// #-14
    401090d4:	a9454ff4 	ldp	x20, x19, [sp, #80]
    401090d8:	a94457f6 	ldp	x22, x21, [sp, #64]
    401090dc:	a9435ff8 	ldp	x24, x23, [sp, #48]
    401090e0:	f94013f9 	ldr	x25, [sp, #32]
    401090e4:	a9417bfd 	ldp	x29, x30, [sp, #16]
    401090e8:	910183ff 	add	sp, sp, #0x60
    401090ec:	d65f03c0 	ret
    401090f0:	d378fecc 	lsr	x12, x22, #56
    401090f4:	d370fecd 	lsr	x13, x22, #48
    401090f8:	d368fece 	lsr	x14, x22, #40
    401090fc:	d360fecf 	lsr	x15, x22, #32
    40109100:	d358fed0 	lsr	x16, x22, #24
    40109104:	d350fed1 	lsr	x17, x22, #16
    40109108:	d348feca 	lsr	x10, x22, #8
    4010910c:	528000eb 	mov	w11, #0x7                   	// #7
    40109110:	3900012c 	strb	w12, [x9]
    40109114:	528000cc 	mov	w12, #0x6                   	// #6
    40109118:	3900052d 	strb	w13, [x9, #1]
    4010911c:	3900092e 	strb	w14, [x9, #2]
    40109120:	39000d2f 	strb	w15, [x9, #3]
    40109124:	39001130 	strb	w16, [x9, #4]
    40109128:	39001531 	strb	w17, [x9, #5]
    4010912c:	14000008 	b	0x4010914c
    40109130:	d3587ecc 	ubfx	x12, x22, #24, #8
    40109134:	d3507ecd 	ubfx	x13, x22, #16, #16
    40109138:	d3487eca 	ubfx	x10, x22, #8, #24
    4010913c:	5280006b 	mov	w11, #0x3                   	// #3
    40109140:	3900012c 	strb	w12, [x9]
    40109144:	3900052d 	strb	w13, [x9, #1]
    40109148:	5280004c 	mov	w12, #0x2                   	// #2
    4010914c:	0b190108 	add	w8, w8, w25
    40109150:	531e7504 	lsl	w4, w8, #2
    40109154:	910003e3 	mov	x3, sp
    40109158:	aa1503e0 	mov	x0, x21
    4010915c:	2a1403e1 	mov	w1, w20
    40109160:	aa1303e2 	mov	x2, x19
    40109164:	382c692a 	strb	w10, [x9, x12]
    40109168:	382b6936 	strb	w22, [x9, x11]
    4010916c:	94000bd8 	bl	0x4010c0cc
    40109170:	17ffffd9 	b	0x401090d4
    40109174:	a9be7bfd 	stp	x29, x30, [sp, #-32]!
    40109178:	a9014ff4 	stp	x20, x19, [sp, #16]
    4010917c:	910003fd 	mov	x29, sp
    40109180:	2a0103f3 	mov	w19, w1
    40109184:	aa0003f4 	mov	x20, x0
    40109188:	94000e98 	bl	0x4010cbe8
    4010918c:	350001e0 	cbnz	w0, 0x401091c8
    40109190:	aa1403e0 	mov	x0, x20
    40109194:	94000f29 	bl	0x4010ce38
    40109198:	35000180 	cbnz	w0, 0x401091c8
    4010919c:	f0000061 	adrp	x1, 0x40118000
    401091a0:	91393021 	add	x1, x1, #0xe4c
    401091a4:	aa1403e0 	mov	x0, x20
    401091a8:	94000f31 	bl	0x4010ce6c
    401091ac:	350000e0 	cbnz	w0, 0x401091c8
    401091b0:	aa1403e0 	mov	x0, x20
    401091b4:	94000f6b 	bl	0x4010cf60
    401091b8:	35000080 	cbnz	w0, 0x401091c8
    401091bc:	aa1403e0 	mov	x0, x20
    401091c0:	94001053 	bl	0x4010d30c
    401091c4:	34000080 	cbz	w0, 0x401091d4
    401091c8:	a9414ff4 	ldp	x20, x19, [sp, #16]
    401091cc:	a8c27bfd 	ldp	x29, x30, [sp], #32
    401091d0:	d65f03c0 	ret
    401091d4:	aa1403e0 	mov	x0, x20
    401091d8:	aa1403e1 	mov	x1, x20
    401091dc:	2a1303e2 	mov	w2, w19
    401091e0:	a9414ff4 	ldp	x20, x19, [sp, #16]
    401091e4:	a8c27bfd 	ldp	x29, x30, [sp], #32
    401091e8:	14000d62 	b	0x4010c770
    401091ec:	d10103ff 	sub	sp, sp, #0x40
    401091f0:	a9017bfd 	stp	x29, x30, [sp, #16]
    401091f4:	a90257f6 	stp	x22, x21, [sp, #32]
    401091f8:	a9034ff4 	stp	x20, x19, [sp, #48]
    401091fc:	910043fd 	add	x29, sp, #0x10
    40109200:	2a0203f5 	mov	w21, w2
    40109204:	90000082 	adrp	x2, 0x40119000
    40109208:	aa0303f3 	mov	x19, x3
    4010920c:	aa0103f6 	mov	x22, x1
    40109210:	aa0003f4 	mov	x20, x0
    40109214:	91254c42 	add	x2, x2, #0x953
    40109218:	d10013a3 	sub	x3, x29, #0x4
    4010921c:	aa0103e0 	mov	x0, x1
    40109220:	2a1503e1 	mov	w1, w21
    40109224:	b9000bff 	str	wzr, [sp, #8]
    40109228:	94000695 	bl	0x4010ac7c
    4010922c:	b4000120 	cbz	x0, 0x40109250
    40109230:	b85fc3a8 	ldur	w8, [x29, #-4]
    40109234:	7100111f 	cmp	w8, #0x4
    40109238:	54000241 	b.ne	0x40109280  // b.any
    4010923c:	b9400008 	ldr	w8, [x0]
    40109240:	5ac00901 	rev	w1, w8
    40109244:	3100043f 	cmn	w1, #0x1
    40109248:	540001c0 	b.eq	0x40109280  // b.none
    4010924c:	35000221 	cbnz	w1, 0x40109290
    40109250:	90000082 	adrp	x2, 0x40119000
    40109254:	91251c42 	add	x2, x2, #0x947
    40109258:	910023e3 	add	x3, sp, #0x8
    4010925c:	aa1603e0 	mov	x0, x22
    40109260:	2a1503e1 	mov	w1, w21
    40109264:	94000686 	bl	0x4010ac7c
    40109268:	aa0003f5 	mov	x21, x0
    4010926c:	b40000e0 	cbz	x0, 0x40109288
    40109270:	aa1403e0 	mov	x0, x20
    40109274:	aa1503e1 	mov	x1, x21
    40109278:	94000507 	bl	0x4010a694
    4010927c:	14000008 	b	0x4010929c
    40109280:	128000a0 	mov	w0, #0xfffffffa            	// #-6
    40109284:	1400000e 	b	0x401092bc
    40109288:	b9400be0 	ldr	w0, [sp, #8]
    4010928c:	14000004 	b	0x4010929c
    40109290:	aa1403e0 	mov	x0, x20
    40109294:	94000801 	bl	0x4010b298
    40109298:	aa1f03f5 	mov	x21, xzr
    4010929c:	b9400be8 	ldr	w8, [sp, #8]
    401092a0:	3100051f 	cmn	w8, #0x1
    401092a4:	7a400800 	ccmp	w0, #0x0, #0x0, eq  // eq = none
    401092a8:	128001e8 	mov	w8, #0xfffffff0            	// #-16
    401092ac:	1a80b100 	csel	w0, w8, w0, lt  // lt = tstop
    401092b0:	b4000073 	cbz	x19, 0x401092bc
    401092b4:	37f80040 	tbnz	w0, #31, 0x401092bc
    401092b8:	f9000275 	str	x21, [x19]
    401092bc:	a9434ff4 	ldp	x20, x19, [sp, #48]
    401092c0:	a94257f6 	ldp	x22, x21, [sp, #32]
    401092c4:	a9417bfd 	ldp	x29, x30, [sp, #16]
    401092c8:	910103ff 	add	sp, sp, #0x40
    401092cc:	d65f03c0 	ret
    401092d0:	d10283ff 	sub	sp, sp, #0xa0
    401092d4:	a9047bfd 	stp	x29, x30, [sp, #64]
    401092d8:	a9056ffc 	stp	x28, x27, [sp, #80]
    401092dc:	a90667fa 	stp	x26, x25, [sp, #96]
    401092e0:	a9075ff8 	stp	x24, x23, [sp, #112]
    401092e4:	a90857f6 	stp	x22, x21, [sp, #128]
    401092e8:	a9094ff4 	stp	x20, x19, [sp, #144]
    401092ec:	910103fd 	add	x29, sp, #0x40
    401092f0:	aa0103f3 	mov	x19, x1
    401092f4:	aa0003f4 	mov	x20, x0
    401092f8:	97fffcc4 	bl	0x40108608
    401092fc:	37f80260 	tbnz	w0, #31, 0x40109348
    40109300:	aa1303e0 	mov	x0, x19
    40109304:	97fffcc1 	bl	0x40108608
    40109308:	37f80200 	tbnz	w0, #31, 0x40109348
    4010930c:	910073e1 	add	x1, sp, #0x1c
    40109310:	aa1403e0 	mov	x0, x20
    40109314:	9400031d 	bl	0x40109f88
    40109318:	2a0003fa 	mov	w26, w0
    4010931c:	350000e0 	cbnz	w0, 0x40109338
    40109320:	b9401fe2 	ldr	w2, [sp, #28]
    40109324:	aa1303e0 	mov	x0, x19
    40109328:	2a1f03e1 	mov	w1, wzr
    4010932c:	940001a9 	bl	0x401099d0
    40109330:	2a0003fa 	mov	w26, w0
    40109334:	340001e0 	cbz	w0, 0x40109370
    40109338:	12800008 	mov	w8, #0xffffffff            	// #-1
    4010933c:	b9000268 	str	w8, [x19]
    40109340:	b9000288 	str	w8, [x20]
    40109344:	14000002 	b	0x4010934c
    40109348:	2a0003fa 	mov	w26, w0
    4010934c:	2a1a03e0 	mov	w0, w26
    40109350:	a9494ff4 	ldp	x20, x19, [sp, #144]
    40109354:	a94857f6 	ldp	x22, x21, [sp, #128]
    40109358:	a9475ff8 	ldp	x24, x23, [sp, #112]
    4010935c:	a94667fa 	ldp	x26, x25, [sp, #96]
    40109360:	a9456ffc 	ldp	x28, x27, [sp, #80]
    40109364:	a9447bfd 	ldp	x29, x30, [sp, #64]
    40109368:	910283ff 	add	sp, sp, #0xa0
    4010936c:	d65f03c0 	ret
    40109370:	b9401ff5 	ldr	w21, [sp, #28]
    40109374:	90000081 	adrp	x1, 0x40119000
    40109378:	9125a021 	add	x1, x1, #0x968
    4010937c:	aa1303e0 	mov	x0, x19
    40109380:	940004c5 	bl	0x4010a694
    40109384:	2a0003fa 	mov	w26, w0
    40109388:	37f80120 	tbnz	w0, #31, 0x401093ac
    4010938c:	aa1303e0 	mov	x0, x19
    40109390:	2a1f03e1 	mov	w1, wzr
    40109394:	2a1a03e2 	mov	w2, w26
    40109398:	2a1503e3 	mov	w3, w21
    4010939c:	940001e9 	bl	0x40109b40
    401093a0:	2a0003fa 	mov	w26, w0
    401093a4:	35fffca0 	cbnz	w0, 0x40109338
    401093a8:	14000003 	b	0x401093b4
    401093ac:	3100075f 	cmn	w26, #0x1
    401093b0:	54fffc41 	b.ne	0x40109338  // b.any
    401093b4:	90000081 	adrp	x1, 0x40119000
    401093b8:	9125e821 	add	x1, x1, #0x97a
    401093bc:	aa1303e0 	mov	x0, x19
    401093c0:	940004b5 	bl	0x4010a694
    401093c4:	3100041f 	cmn	w0, #0x1
    401093c8:	54001060 	b.eq	0x401095d4  // b.none
    401093cc:	2a0003fa 	mov	w26, w0
    401093d0:	37fffb40 	tbnz	w0, #31, 0x40109338
    401093d4:	90000081 	adrp	x1, 0x40119000
    401093d8:	91261821 	add	x1, x1, #0x986
    401093dc:	aa1403e0 	mov	x0, x20
    401093e0:	940004ad 	bl	0x4010a694
    401093e4:	2a0003f6 	mov	w22, w0
    401093e8:	3100041f 	cmn	w0, #0x1
    401093ec:	5400006a 	b.ge	0x401093f8  // b.tcont
    401093f0:	2a1603fa 	mov	w26, w22
    401093f4:	17ffffd1 	b	0x40109338
    401093f8:	aa1303e0 	mov	x0, x19
    401093fc:	2a1a03e1 	mov	w1, w26
    40109400:	940004dc 	bl	0x4010a770
    40109404:	37f80e80 	tbnz	w0, #31, 0x401095d4
    40109408:	2a0003f5 	mov	w21, w0
    4010940c:	b90013f6 	str	w22, [sp, #16]
    40109410:	d10043a2 	sub	x2, x29, #0x10
    40109414:	d10023a3 	sub	x3, x29, #0x8
    40109418:	aa1303e0 	mov	x0, x19
    4010941c:	2a1503e1 	mov	w1, w21
    40109420:	940005de 	bl	0x4010ab98
    40109424:	b85f83ba 	ldur	w26, [x29, #-8]
    40109428:	b4000c60 	cbz	x0, 0x401095b4
    4010942c:	aa0003f7 	mov	x23, x0
    40109430:	b9000bf5 	str	w21, [sp, #8]
    40109434:	93407f42 	sxtw	x2, w26
    40109438:	aa1703e0 	mov	x0, x23
    4010943c:	2a1f03e1 	mov	w1, wzr
    40109440:	940016db 	bl	0x4010efac
    40109444:	b40014e0 	cbz	x0, 0x401096e0
    40109448:	b85f83a8 	ldur	w8, [x29, #-8]
    4010944c:	cb170016 	sub	x22, x0, x23
    40109450:	110006d5 	add	w21, w22, #0x1
    40109454:	92407ec2 	and	x2, x22, #0xffffffff
    40109458:	4b150108 	sub	w8, w8, w21
    4010945c:	52800741 	mov	w1, #0x3a                  	// #58
    40109460:	aa1703e0 	mov	x0, x23
    40109464:	b81f83a8 	stur	w8, [x29, #-8]
    40109468:	940016d1 	bl	0x4010efac
    4010946c:	b40013a0 	cbz	x0, 0x401096e0
    40109470:	39400008 	ldrb	w8, [x0]
    40109474:	7100e91f 	cmp	w8, #0x3a
    40109478:	54001341 	b.ne	0x401096e0  // b.any
    4010947c:	cb170019 	sub	x25, x0, x23
    40109480:	510006c8 	sub	w8, w22, #0x1
    40109484:	6b19011f 	cmp	w8, w25
    40109488:	540012c0 	b.eq	0x401096e0  // b.none
    4010948c:	2a3903e8 	mvn	w8, w25
    40109490:	91000418 	add	x24, x0, #0x1
    40109494:	0b160102 	add	w2, w8, w22
    40109498:	52800741 	mov	w1, #0x3a                  	// #58
    4010949c:	aa1803e0 	mov	x0, x24
    401094a0:	940016c3 	bl	0x4010efac
    401094a4:	b40011e0 	cbz	x0, 0x401096e0
    401094a8:	39400008 	ldrb	w8, [x0]
    401094ac:	7100e91f 	cmp	w8, #0x3a
    401094b0:	54001181 	b.ne	0x401096e0  // b.any
    401094b4:	6b18001b 	subs	w27, w0, w24
    401094b8:	54001140 	b.eq	0x401096e0  // b.none
    401094bc:	91000416 	add	x22, x0, #0x1
    401094c0:	d10063a1 	sub	x1, x29, #0x18
    401094c4:	52800142 	mov	w2, #0xa                   	// #10
    401094c8:	aa1603e0 	mov	x0, x22
    401094cc:	94001483 	bl	0x4010e6d8
    401094d0:	f85e83a8 	ldur	x8, [x29, #-24]
    401094d4:	eb16011f 	cmp	x8, x22
    401094d8:	54001049 	b.ls	0x401096e0  // b.plast
    401094dc:	39400108 	ldrb	w8, [x8]
    401094e0:	35001008 	cbnz	w8, 0x401096e0
    401094e4:	b94013f6 	ldr	w22, [sp, #16]
    401094e8:	2a1603fa 	mov	w26, w22
    401094ec:	37f80576 	tbnz	w22, #31, 0x40109598
    401094f0:	f85f03a2 	ldur	x2, [x29, #-16]
    401094f4:	aa0003fc 	mov	x28, x0
    401094f8:	d10013a3 	sub	x3, x29, #0x4
    401094fc:	aa1403e0 	mov	x0, x20
    40109500:	2a1603e1 	mov	w1, w22
    40109504:	940005de 	bl	0x4010ac7c
    40109508:	b40003e0 	cbz	x0, 0x40109584
    4010950c:	aa0003e1 	mov	x1, x0
    40109510:	aa1403e0 	mov	x0, x20
    40109514:	94000460 	bl	0x4010a694
    40109518:	2a0003fa 	mov	w26, w0
    4010951c:	37f803e0 	tbnz	w0, #31, 0x40109598
    40109520:	aa1403e0 	mov	x0, x20
    40109524:	2a1a03e1 	mov	w1, w26
    40109528:	940002b9 	bl	0x4010a00c
    4010952c:	34000300 	cbz	w0, 0x4010958c
    40109530:	2a0003f6 	mov	w22, w0
    40109534:	aa1303e0 	mov	x0, x19
    40109538:	aa1703e1 	mov	x1, x23
    4010953c:	2a1903e2 	mov	w2, w25
    40109540:	940003c7 	bl	0x4010a45c
    40109544:	3100041f 	cmn	w0, #0x1
    40109548:	54000260 	b.eq	0x40109594  // b.none
    4010954c:	2a0003fa 	mov	w26, w0
    40109550:	37f80240 	tbnz	w0, #31, 0x40109598
    40109554:	5ac00ac8 	rev	w8, w22
    40109558:	910083e5 	add	x5, sp, #0x20
    4010955c:	52800086 	mov	w6, #0x4                   	// #4
    40109560:	aa1303e0 	mov	x0, x19
    40109564:	2a1a03e1 	mov	w1, w26
    40109568:	aa1803e2 	mov	x2, x24
    4010956c:	2a1b03e3 	mov	w3, w27
    40109570:	2a1c03e4 	mov	w4, w28
    40109574:	b90023e8 	str	w8, [sp, #32]
    40109578:	94000fd5 	bl	0x4010d4cc
    4010957c:	2a0003fa 	mov	w26, w0
    40109580:	14000006 	b	0x40109598
    40109584:	b85fc3ba 	ldur	w26, [x29, #-4]
    40109588:	14000004 	b	0x40109598
    4010958c:	1280001a 	mov	w26, #0xffffffff            	// #-1
    40109590:	14000002 	b	0x40109598
    40109594:	128001fa 	mov	w26, #0xfffffff0            	// #-16
    40109598:	35ffed1a 	cbnz	w26, 0x40109338
    4010959c:	b85f83ba 	ldur	w26, [x29, #-8]
    401095a0:	8b1502f7 	add	x23, x23, x21
    401095a4:	7100035f 	cmp	w26, #0x0
    401095a8:	54fff46c 	b.gt	0x40109434
    401095ac:	b9400bf5 	ldr	w21, [sp, #8]
    401095b0:	14000004 	b	0x401095c0
    401095b4:	3100075f 	cmn	w26, #0x1
    401095b8:	54002000 	b.eq	0x401099b8  // b.none
    401095bc:	35ffebfa 	cbnz	w26, 0x40109338
    401095c0:	aa1303e0 	mov	x0, x19
    401095c4:	2a1503e1 	mov	w1, w21
    401095c8:	94000488 	bl	0x4010a7e8
    401095cc:	2a0003f5 	mov	w21, w0
    401095d0:	36fff200 	tbz	w0, #31, 0x40109410
    401095d4:	aa1303e0 	mov	x0, x19
    401095d8:	2a1f03e1 	mov	w1, wzr
    401095dc:	97fffd85 	bl	0x40108bf0
    401095e0:	37f80400 	tbnz	w0, #31, 0x40109660
    401095e4:	90000096 	adrp	x22, 0x40119000
    401095e8:	2a0003f5 	mov	w21, w0
    401095ec:	91268ad6 	add	x22, x22, #0x9a2
    401095f0:	14000006 	b	0x40109608
    401095f4:	aa1303e0 	mov	x0, x19
    401095f8:	2a1503e1 	mov	w1, w21
    401095fc:	97fffdb1 	bl	0x40108cc0
    40109600:	2a0003f5 	mov	w21, w0
    40109604:	37f802e0 	tbnz	w0, #31, 0x40109660
    40109608:	aa1303e0 	mov	x0, x19
    4010960c:	2a1503e1 	mov	w1, w21
    40109610:	aa1603e2 	mov	x2, x22
    40109614:	94000381 	bl	0x4010a418
    40109618:	3100041f 	cmn	w0, #0x1
    4010961c:	54fffec0 	b.eq	0x401095f4  // b.none
    40109620:	2a0003fa 	mov	w26, w0
    40109624:	37ffe8a0 	tbnz	w0, #31, 0x40109338
    40109628:	aa1403e0 	mov	x0, x20
    4010962c:	aa1303e1 	mov	x1, x19
    40109630:	2a1503e2 	mov	w2, w21
    40109634:	aa1f03e3 	mov	x3, xzr
    40109638:	97fffeed 	bl	0x401091ec
    4010963c:	2a0003e1 	mov	w1, w0
    40109640:	37f81aa0 	tbnz	w0, #31, 0x40109994
    40109644:	aa1403e0 	mov	x0, x20
    40109648:	aa1303e2 	mov	x2, x19
    4010964c:	2a1a03e3 	mov	w3, w26
    40109650:	940001b6 	bl	0x40109d28
    40109654:	34fffd00 	cbz	w0, 0x401095f4
    40109658:	2a0003fa 	mov	w26, w0
    4010965c:	17ffff37 	b	0x40109338
    40109660:	90000082 	adrp	x2, 0x40119000
    40109664:	91261c42 	add	x2, x2, #0x987
    40109668:	aa1303e0 	mov	x0, x19
    4010966c:	2a1f03e1 	mov	w1, wzr
    40109670:	9400036a 	bl	0x4010a418
    40109674:	37f81880 	tbnz	w0, #31, 0x40109984
    40109678:	90000082 	adrp	x2, 0x40119000
    4010967c:	2a0003f6 	mov	w22, w0
    40109680:	91261c42 	add	x2, x2, #0x987
    40109684:	aa1403e0 	mov	x0, x20
    40109688:	2a1f03e1 	mov	w1, wzr
    4010968c:	94000363 	bl	0x4010a418
    40109690:	2a0003f5 	mov	w21, w0
    40109694:	3100041f 	cmn	w0, #0x1
    40109698:	540000e1 	b.ne	0x401096b4  // b.any
    4010969c:	90000082 	adrp	x2, 0x40119000
    401096a0:	91261c42 	add	x2, x2, #0x987
    401096a4:	aa1403e0 	mov	x0, x20
    401096a8:	2a1f03e1 	mov	w1, wzr
    401096ac:	94000bce 	bl	0x4010c5e4
    401096b0:	2a0003f5 	mov	w21, w0
    401096b4:	37f816d5 	tbnz	w21, #31, 0x4010998c
    401096b8:	aa1303e0 	mov	x0, x19
    401096bc:	2a1603e1 	mov	w1, w22
    401096c0:	9400042c 	bl	0x4010a770
    401096c4:	37f81600 	tbnz	w0, #31, 0x40109984
    401096c8:	9000009b 	adrp	x27, 0x40119000
    401096cc:	9000009c 	adrp	x28, 0x40119000
    401096d0:	2a0003f6 	mov	w22, w0
    401096d4:	91264f7b 	add	x27, x27, #0x993
    401096d8:	9126879c 	add	x28, x28, #0x9a1
    401096dc:	1400000d 	b	0x40109710
    401096e0:	128001fa 	mov	w26, #0xfffffff0            	// #-16
    401096e4:	17ffff15 	b	0x40109338
    401096e8:	528001a2 	mov	w2, #0xd                   	// #13
    401096ec:	aa1a03e0 	mov	x0, x26
    401096f0:	aa1b03e1 	mov	x1, x27
    401096f4:	94001653 	bl	0x4010f040
    401096f8:	34000600 	cbz	w0, 0x401097b8
    401096fc:	aa1303e0 	mov	x0, x19
    40109700:	2a1603e1 	mov	w1, w22
    40109704:	94000439 	bl	0x4010a7e8
    40109708:	2a0003f6 	mov	w22, w0
    4010970c:	37f813c0 	tbnz	w0, #31, 0x40109984
    40109710:	d10043a2 	sub	x2, x29, #0x10
    40109714:	d10023a3 	sub	x3, x29, #0x8
    40109718:	aa1303e0 	mov	x0, x19
    4010971c:	2a1603e1 	mov	w1, w22
    40109720:	9400051e 	bl	0x4010ab98
    40109724:	b85f83ba 	ldur	w26, [x29, #-8]
    40109728:	b40013c0 	cbz	x0, 0x401099a0
    4010972c:	7100075f 	cmp	w26, #0x1
    40109730:	5400136b 	b.lt	0x4010999c  // b.tstop
    40109734:	2a1f03e1 	mov	w1, wzr
    40109738:	aa1a03e2 	mov	x2, x26
    4010973c:	aa0003f8 	mov	x24, x0
    40109740:	9400161b 	bl	0x4010efac
    40109744:	b89f83b7 	ldursw	x23, [x29, #-8]
    40109748:	8b1802e8 	add	x8, x23, x24
    4010974c:	d1000508 	sub	x8, x8, #0x1
    40109750:	eb08001f 	cmp	x0, x8
    40109754:	54001241 	b.ne	0x4010999c  // b.any
    40109758:	39400308 	ldrb	w8, [x24]
    4010975c:	7100bd1f 	cmp	w8, #0x2f
    40109760:	540011e1 	b.ne	0x4010999c  // b.any
    40109764:	91000719 	add	x25, x24, #0x1
    40109768:	528005e1 	mov	w1, #0x2f                  	// #47
    4010976c:	aa1903e0 	mov	x0, x25
    40109770:	940016d5 	bl	0x4010f2c4
    40109774:	b4fffc40 	cbz	x0, 0x401096fc
    40109778:	8b170317 	add	x23, x24, x23
    4010977c:	cb0002e8 	sub	x8, x23, x0
    40109780:	aa0003fa 	mov	x26, x0
    40109784:	f100391f 	cmp	x8, #0xe
    40109788:	54fffb0a 	b.ge	0x401096e8  // b.tcont
    4010978c:	f100351f 	cmp	x8, #0xd
    40109790:	54fffb61 	b.ne	0x401096fc  // b.any
    40109794:	52800182 	mov	w2, #0xc                   	// #12
    40109798:	aa1a03e0 	mov	x0, x26
    4010979c:	aa1c03e1 	mov	x1, x28
    401097a0:	94001628 	bl	0x4010f040
    401097a4:	35fffac0 	cbnz	w0, 0x401096fc
    401097a8:	f000007b 	adrp	x27, 0x40118000
    401097ac:	9139337b 	add	x27, x27, #0xe4c
    401097b0:	f9000bff 	str	xzr, [sp, #16]
    401097b4:	14000005 	b	0x401097c8
    401097b8:	9100375b 	add	x27, x26, #0xd
    401097bc:	2a3b03e8 	mvn	w8, w27
    401097c0:	0b170108 	add	w8, w8, w23
    401097c4:	f9000be8 	str	x8, [sp, #16]
    401097c8:	2a3803e8 	mvn	w8, w24
    401097cc:	0b1a0103 	add	w3, w8, w26
    401097d0:	aa1303e0 	mov	x0, x19
    401097d4:	2a1f03e1 	mov	w1, wzr
    401097d8:	aa1903e2 	mov	x2, x25
    401097dc:	940002d1 	bl	0x4010a320
    401097e0:	37f80e80 	tbnz	w0, #31, 0x401099b0
    401097e4:	2a0003fc 	mov	w28, w0
    401097e8:	90000082 	adrp	x2, 0x40119000
    401097ec:	aa1303e0 	mov	x0, x19
    401097f0:	2a1c03e1 	mov	w1, w28
    401097f4:	91268842 	add	x2, x2, #0x9a2
    401097f8:	94000308 	bl	0x4010a418
    401097fc:	37f80da0 	tbnz	w0, #31, 0x401099b0
    40109800:	d10063a3 	sub	x3, x29, #0x18
    40109804:	aa1403e0 	mov	x0, x20
    40109808:	aa1303e1 	mov	x1, x19
    4010980c:	2a1c03e2 	mov	w2, w28
    40109810:	97fffe77 	bl	0x401091ec
    40109814:	2a0003f9 	mov	w25, w0
    40109818:	37f80d80 	tbnz	w0, #31, 0x401099c8
    4010981c:	f85e83a0 	ldur	x0, [x29, #-24]
    40109820:	f90007fb 	str	x27, [sp, #8]
    40109824:	b4000080 	cbz	x0, 0x40109834
    40109828:	94001612 	bl	0x4010f070
    4010982c:	aa0003f8 	mov	x24, x0
    40109830:	14000020 	b	0x401098b0
    40109834:	aa1403e0 	mov	x0, x20
    40109838:	97fffb74 	bl	0x40108608
    4010983c:	37f80c20 	tbnz	w0, #31, 0x401099c0
    40109840:	d10013a2 	sub	x2, x29, #0x4
    40109844:	aa1403e0 	mov	x0, x20
    40109848:	2a1903e1 	mov	w1, w25
    4010984c:	9400039f 	bl	0x4010a6c8
    40109850:	b85fc3b8 	ldur	w24, [x29, #-4]
    40109854:	b40002a0 	cbz	x0, 0x401098a8
    40109858:	2a1f03f7 	mov	w23, wzr
    4010985c:	2a1903fa 	mov	w26, w25
    40109860:	34000218 	cbz	w24, 0x401098a0
    40109864:	aa1403e0 	mov	x0, x20
    40109868:	2a1a03e1 	mov	w1, w26
    4010986c:	940005fa 	bl	0x4010b054
    40109870:	2a0003fa 	mov	w26, w0
    40109874:	37f80960 	tbnz	w0, #31, 0x401099a0
    40109878:	b85fc3a8 	ldur	w8, [x29, #-4]
    4010987c:	d10013a2 	sub	x2, x29, #0x4
    40109880:	aa1403e0 	mov	x0, x20
    40109884:	2a1a03e1 	mov	w1, w26
    40109888:	0b0802e8 	add	w8, w23, w8
    4010988c:	11000517 	add	w23, w8, #0x1
    40109890:	9400038e 	bl	0x4010a6c8
    40109894:	b85fc3b8 	ldur	w24, [x29, #-4]
    40109898:	b5fffe40 	cbnz	x0, 0x40109860
    4010989c:	14000003 	b	0x401098a8
    401098a0:	2a1703f8 	mov	w24, w23
    401098a4:	340006d7 	cbz	w23, 0x4010997c
    401098a8:	2a1803fa 	mov	w26, w24
    401098ac:	37f807b8 	tbnz	w24, #31, 0x401099a0
    401098b0:	f9400be8 	ldr	x8, [sp, #16]
    401098b4:	f85f03a2 	ldur	x2, [x29, #-16]
    401098b8:	71000717 	subs	w23, w24, #0x1
    401098bc:	910083e4 	add	x4, sp, #0x20
    401098c0:	0b08031b 	add	w27, w24, w8
    401098c4:	11000b68 	add	w8, w27, #0x2
    401098c8:	1a9bc503 	csinc	w3, w8, w27, gt
    401098cc:	aa1403e0 	mov	x0, x20
    401098d0:	2a1503e1 	mov	w1, w21
    401098d4:	940008ee 	bl	0x4010bc8c
    401098d8:	37f80740 	tbnz	w0, #31, 0x401099c0
    401098dc:	f85e83a8 	ldur	x8, [x29, #-24]
    401098e0:	b5000128 	cbnz	x8, 0x40109904
    401098e4:	d10063a3 	sub	x3, x29, #0x18
    401098e8:	aa1403e0 	mov	x0, x20
    401098ec:	aa1303e1 	mov	x1, x19
    401098f0:	2a1c03e2 	mov	w2, w28
    401098f4:	97fffe3e 	bl	0x401091ec
    401098f8:	2a0003f9 	mov	w25, w0
    401098fc:	2a0003fa 	mov	w26, w0
    40109900:	37f80500 	tbnz	w0, #31, 0x401099a0
    40109904:	f94013fc 	ldr	x28, [sp, #32]
    40109908:	71000b1f 	cmp	w24, #0x2
    4010990c:	5400012b 	b.lt	0x40109930  // b.tstop
    40109910:	f85e83a1 	ldur	x1, [x29, #-24]
    40109914:	1100077b 	add	w27, w27, #0x1
    40109918:	11000703 	add	w3, w24, #0x1
    4010991c:	b40000e1 	cbz	x1, 0x40109938
    40109920:	2a0303e2 	mov	w2, w3
    40109924:	aa1c03e0 	mov	x0, x28
    40109928:	94001585 	bl	0x4010ef3c
    4010992c:	14000008 	b	0x4010994c
    40109930:	2a1703f8 	mov	w24, w23
    40109934:	14000006 	b	0x4010994c
    40109938:	aa1403e0 	mov	x0, x20
    4010993c:	2a1903e1 	mov	w1, w25
    40109940:	aa1c03e2 	mov	x2, x28
    40109944:	94000502 	bl	0x4010ad4c
    40109948:	37f803c0 	tbnz	w0, #31, 0x401099c0
    4010994c:	8b38c380 	add	x0, x28, w24, sxtw
    40109950:	528005e8 	mov	w8, #0x2f                  	// #47
    40109954:	38001408 	strb	w8, [x0], #1
    40109958:	a940a3e1 	ldp	x1, x8, [sp, #8]
    4010995c:	93407d02 	sxtw	x2, w8
    40109960:	94001577 	bl	0x4010ef3c
    40109964:	383bcb9f 	strb	wzr, [x28, w27, sxtw]
    40109968:	9000009b 	adrp	x27, 0x40119000
    4010996c:	9000009c 	adrp	x28, 0x40119000
    40109970:	91264f7b 	add	x27, x27, #0x993
    40109974:	9126879c 	add	x28, x28, #0x9a1
    40109978:	17ffff61 	b	0x401096fc
    4010997c:	52800038 	mov	w24, #0x1                   	// #1
    40109980:	17ffffcc 	b	0x401098b0
    40109984:	2a1f03fa 	mov	w26, wzr
    40109988:	14000006 	b	0x401099a0
    4010998c:	2a1503fa 	mov	w26, w21
    40109990:	14000004 	b	0x401099a0
    40109994:	2a0103fa 	mov	w26, w1
    40109998:	17fffe68 	b	0x40109338
    4010999c:	128001da 	mov	w26, #0xfffffff1            	// #-15
    401099a0:	35ffccda 	cbnz	w26, 0x40109338
    401099a4:	12800008 	mov	w8, #0xffffffff            	// #-1
    401099a8:	b9000268 	str	w8, [x19]
    401099ac:	17fffe68 	b	0x4010934c
    401099b0:	128001fa 	mov	w26, #0xfffffff0            	// #-16
    401099b4:	17fffffb 	b	0x401099a0
    401099b8:	1280019a 	mov	w26, #0xfffffff3            	// #-13
    401099bc:	17fffe5f 	b	0x40109338
    401099c0:	2a0003fa 	mov	w26, w0
    401099c4:	17fffff7 	b	0x401099a0
    401099c8:	2a1903fa 	mov	w26, w25
    401099cc:	17fffff5 	b	0x401099a0
    401099d0:	a9bd7bfd 	stp	x29, x30, [sp, #-48]!
    401099d4:	f9000bf5 	str	x21, [sp, #16]
    401099d8:	a9024ff4 	stp	x20, x19, [sp, #32]
    401099dc:	910003fd 	mov	x29, sp
    401099e0:	2a0203f3 	mov	w19, w2
    401099e4:	90000082 	adrp	x2, 0x40119000
    401099e8:	91258042 	add	x2, x2, #0x960
    401099ec:	910063a3 	add	x3, x29, #0x18
    401099f0:	2a0103f5 	mov	w21, w1
    401099f4:	aa0003f4 	mov	x20, x0
    401099f8:	940004a1 	bl	0x4010ac7c
    401099fc:	b9401ba8 	ldr	w8, [x29, #24]
    40109a00:	b4000280 	cbz	x0, 0x40109a50
    40109a04:	7100111f 	cmp	w8, #0x4
    40109a08:	54000881 	b.ne	0x40109b18  // b.any
    40109a0c:	b9400008 	ldr	w8, [x0]
    40109a10:	5ac00908 	rev	w8, w8
    40109a14:	2b130109 	adds	w9, w8, w19
    40109a18:	12800208 	mov	w8, #0xffffffef            	// #-17
    40109a1c:	54000802 	b.cs	0x40109b1c  // b.hs, b.nlast
    40109a20:	3100053f 	cmn	w9, #0x1
    40109a24:	540007c0 	b.eq	0x40109b1c  // b.none
    40109a28:	90000082 	adrp	x2, 0x40119000
    40109a2c:	5ac00928 	rev	w8, w9
    40109a30:	91258042 	add	x2, x2, #0x960
    40109a34:	910073a3 	add	x3, x29, #0x1c
    40109a38:	52800084 	mov	w4, #0x4                   	// #4
    40109a3c:	aa1403e0 	mov	x0, x20
    40109a40:	2a1503e1 	mov	w1, w21
    40109a44:	b9001fa8 	str	w8, [x29, #28]
    40109a48:	94000ebb 	bl	0x4010d534
    40109a4c:	2a0003e8 	mov	w8, w0
    40109a50:	11000509 	add	w9, w8, #0x1
    40109a54:	7100053f 	cmp	w9, #0x1
    40109a58:	54000628 	b.hi	0x40109b1c  // b.pmore
    40109a5c:	90000082 	adrp	x2, 0x40119000
    40109a60:	91256842 	add	x2, x2, #0x95a
    40109a64:	910063a3 	add	x3, x29, #0x18
    40109a68:	aa1403e0 	mov	x0, x20
    40109a6c:	2a1503e1 	mov	w1, w21
    40109a70:	94000483 	bl	0x4010ac7c
    40109a74:	b9401ba8 	ldr	w8, [x29, #24]
    40109a78:	b4000280 	cbz	x0, 0x40109ac8
    40109a7c:	7100111f 	cmp	w8, #0x4
    40109a80:	540004c1 	b.ne	0x40109b18  // b.any
    40109a84:	b9400008 	ldr	w8, [x0]
    40109a88:	5ac00908 	rev	w8, w8
    40109a8c:	2b130109 	adds	w9, w8, w19
    40109a90:	12800208 	mov	w8, #0xffffffef            	// #-17
    40109a94:	54000442 	b.cs	0x40109b1c  // b.hs, b.nlast
    40109a98:	3100053f 	cmn	w9, #0x1
    40109a9c:	54000400 	b.eq	0x40109b1c  // b.none
    40109aa0:	90000082 	adrp	x2, 0x40119000
    40109aa4:	5ac00928 	rev	w8, w9
    40109aa8:	91256842 	add	x2, x2, #0x95a
    40109aac:	910073a3 	add	x3, x29, #0x1c
    40109ab0:	52800084 	mov	w4, #0x4                   	// #4
    40109ab4:	aa1403e0 	mov	x0, x20
    40109ab8:	2a1503e1 	mov	w1, w21
    40109abc:	b9001fa8 	str	w8, [x29, #28]
    40109ac0:	94000e9d 	bl	0x4010d534
    40109ac4:	2a0003e8 	mov	w8, w0
    40109ac8:	11000509 	add	w9, w8, #0x1
    40109acc:	7100053f 	cmp	w9, #0x1
    40109ad0:	54000268 	b.hi	0x40109b1c  // b.pmore
    40109ad4:	aa1403e0 	mov	x0, x20
    40109ad8:	2a1503e1 	mov	w1, w21
    40109adc:	97fffc45 	bl	0x40108bf0
    40109ae0:	37f80280 	tbnz	w0, #31, 0x40109b30
    40109ae4:	2a0003f5 	mov	w21, w0
    40109ae8:	aa1403e0 	mov	x0, x20
    40109aec:	2a1503e1 	mov	w1, w21
    40109af0:	2a1303e2 	mov	w2, w19
    40109af4:	97ffffb7 	bl	0x401099d0
    40109af8:	35000200 	cbnz	w0, 0x40109b38
    40109afc:	aa1403e0 	mov	x0, x20
    40109b00:	2a1503e1 	mov	w1, w21
    40109b04:	97fffc6f 	bl	0x40108cc0
    40109b08:	2a0003f5 	mov	w21, w0
    40109b0c:	2a1f03e8 	mov	w8, wzr
    40109b10:	36fffec0 	tbz	w0, #31, 0x40109ae8
    40109b14:	14000002 	b	0x40109b1c
    40109b18:	128000a8 	mov	w8, #0xfffffffa            	// #-6
    40109b1c:	a9424ff4 	ldp	x20, x19, [sp, #32]
    40109b20:	f9400bf5 	ldr	x21, [sp, #16]
    40109b24:	2a0803e0 	mov	w0, w8
    40109b28:	a8c37bfd 	ldp	x29, x30, [sp], #48
    40109b2c:	d65f03c0 	ret
    40109b30:	2a1f03e8 	mov	w8, wzr
    40109b34:	17fffffa 	b	0x40109b1c
    40109b38:	2a0003e8 	mov	w8, w0
    40109b3c:	17fffff8 	b	0x40109b1c
    40109b40:	d10203ff 	sub	sp, sp, #0x80
    40109b44:	a9027bfd 	stp	x29, x30, [sp, #32]
    40109b48:	a9036ffc 	stp	x28, x27, [sp, #48]
    40109b4c:	a90467fa 	stp	x26, x25, [sp, #64]
    40109b50:	a9055ff8 	stp	x24, x23, [sp, #80]
    40109b54:	a90657f6 	stp	x22, x21, [sp, #96]
    40109b58:	a9074ff4 	stp	x20, x19, [sp, #112]
    40109b5c:	910083fd 	add	x29, sp, #0x20
    40109b60:	2a0103f4 	mov	w20, w1
    40109b64:	2a0203e1 	mov	w1, w2
    40109b68:	2a0303f3 	mov	w19, w3
    40109b6c:	2a0203f6 	mov	w22, w2
    40109b70:	aa0003f5 	mov	x21, x0
    40109b74:	940002ff 	bl	0x4010a770
    40109b78:	37f80800 	tbnz	w0, #31, 0x40109c78
    40109b7c:	2a0003f7 	mov	w23, w0
    40109b80:	14000006 	b	0x40109b98
    40109b84:	aa1503e0 	mov	x0, x21
    40109b88:	2a1703e1 	mov	w1, w23
    40109b8c:	94000317 	bl	0x4010a7e8
    40109b90:	2a0003f7 	mov	w23, w0
    40109b94:	37f80720 	tbnz	w0, #31, 0x40109c78
    40109b98:	d10023a2 	sub	x2, x29, #0x8
    40109b9c:	d10033a3 	sub	x3, x29, #0xc
    40109ba0:	aa1503e0 	mov	x0, x21
    40109ba4:	2a1703e1 	mov	w1, w23
    40109ba8:	940003fc 	bl	0x4010ab98
    40109bac:	b85f43a1 	ldur	w1, [x29, #-12]
    40109bb0:	b4000aa0 	cbz	x0, 0x40109d04
    40109bb4:	7200043f 	tst	w1, #0x3
    40109bb8:	540005c1 	b.ne	0x40109c70  // b.any
    40109bbc:	f85f83a2 	ldur	x2, [x29, #-8]
    40109bc0:	aa0003f8 	mov	x24, x0
    40109bc4:	13027c28 	asr	w8, w1, #2
    40109bc8:	910043e3 	add	x3, sp, #0x10
    40109bcc:	aa1503e0 	mov	x0, x21
    40109bd0:	2a1403e1 	mov	w1, w20
    40109bd4:	b81f43a8 	stur	w8, [x29, #-12]
    40109bd8:	94000429 	bl	0x4010ac7c
    40109bdc:	b40008c0 	cbz	x0, 0x40109cf4
    40109be0:	b85f43a8 	ldur	w8, [x29, #-12]
    40109be4:	7100051f 	cmp	w8, #0x1
    40109be8:	54fffceb 	b.lt	0x40109b84  // b.tstop
    40109bec:	aa0003f9 	mov	x25, x0
    40109bf0:	aa1f03fc 	mov	x28, xzr
    40109bf4:	b87c7b08 	ldr	w8, [x24, x28, lsl #2]
    40109bf8:	910033e0 	add	x0, sp, #0xc
    40109bfc:	52800082 	mov	w2, #0x4                   	// #4
    40109c00:	5ac0091a 	rev	w26, w8
    40109c04:	8b1a0321 	add	x1, x25, x26
    40109c08:	940014cd 	bl	0x4010ef3c
    40109c0c:	b9400fe8 	ldr	w8, [sp, #12]
    40109c10:	f85f83bb 	ldur	x27, [x29, #-8]
    40109c14:	5ac00908 	rev	w8, w8
    40109c18:	0b130108 	add	w8, w8, w19
    40109c1c:	5ac00908 	rev	w8, w8
    40109c20:	aa1b03e0 	mov	x0, x27
    40109c24:	b9000fe8 	str	w8, [sp, #12]
    40109c28:	94001512 	bl	0x4010f070
    40109c2c:	aa0003e3 	mov	x3, x0
    40109c30:	910033e5 	add	x5, sp, #0xc
    40109c34:	52800086 	mov	w6, #0x4                   	// #4
    40109c38:	aa1503e0 	mov	x0, x21
    40109c3c:	2a1403e1 	mov	w1, w20
    40109c40:	aa1b03e2 	mov	x2, x27
    40109c44:	2a1a03e4 	mov	w4, w26
    40109c48:	94000e21 	bl	0x4010d4cc
    40109c4c:	350000c0 	cbnz	w0, 0x40109c64
    40109c50:	b89f43a8 	ldursw	x8, [x29, #-12]
    40109c54:	9100079c 	add	x28, x28, #0x1
    40109c58:	eb08039f 	cmp	x28, x8
    40109c5c:	54fffccb 	b.lt	0x40109bf4  // b.tstop
    40109c60:	17ffffc9 	b	0x40109b84
    40109c64:	2a0003e1 	mov	w1, w0
    40109c68:	31000c1f 	cmn	w0, #0x3
    40109c6c:	540004c1 	b.ne	0x40109d04  // b.any
    40109c70:	128001e1 	mov	w1, #0xfffffff0            	// #-16
    40109c74:	14000024 	b	0x40109d04
    40109c78:	aa1503e0 	mov	x0, x21
    40109c7c:	2a1603e1 	mov	w1, w22
    40109c80:	97fffbdc 	bl	0x40108bf0
    40109c84:	37f80300 	tbnz	w0, #31, 0x40109ce4
    40109c88:	2a0003f6 	mov	w22, w0
    40109c8c:	aa1503e0 	mov	x0, x21
    40109c90:	2a1603e1 	mov	w1, w22
    40109c94:	aa1f03e2 	mov	x2, xzr
    40109c98:	9400028c 	bl	0x4010a6c8
    40109c9c:	aa0003e2 	mov	x2, x0
    40109ca0:	aa1503e0 	mov	x0, x21
    40109ca4:	2a1403e1 	mov	w1, w20
    40109ca8:	940001dc 	bl	0x4010a418
    40109cac:	3100041f 	cmn	w0, #0x1
    40109cb0:	54fffe00 	b.eq	0x40109c70  // b.none
    40109cb4:	2a0003e1 	mov	w1, w0
    40109cb8:	37f80260 	tbnz	w0, #31, 0x40109d04
    40109cbc:	aa1503e0 	mov	x0, x21
    40109cc0:	2a1603e2 	mov	w2, w22
    40109cc4:	2a1303e3 	mov	w3, w19
    40109cc8:	97ffff9e 	bl	0x40109b40
    40109ccc:	35000100 	cbnz	w0, 0x40109cec
    40109cd0:	aa1503e0 	mov	x0, x21
    40109cd4:	2a1603e1 	mov	w1, w22
    40109cd8:	97fffbfa 	bl	0x40108cc0
    40109cdc:	2a0003f6 	mov	w22, w0
    40109ce0:	36fffd60 	tbz	w0, #31, 0x40109c8c
    40109ce4:	2a1f03e1 	mov	w1, wzr
    40109ce8:	14000007 	b	0x40109d04
    40109cec:	2a0003e1 	mov	w1, w0
    40109cf0:	14000005 	b	0x40109d04
    40109cf4:	b94013e8 	ldr	w8, [sp, #16]
    40109cf8:	128001e9 	mov	w9, #0xfffffff0            	// #-16
    40109cfc:	3100051f 	cmn	w8, #0x1
    40109d00:	1a880121 	csel	w1, w9, w8, eq  // eq = none
    40109d04:	a9474ff4 	ldp	x20, x19, [sp, #112]
    40109d08:	a94657f6 	ldp	x22, x21, [sp, #96]
    40109d0c:	a9455ff8 	ldp	x24, x23, [sp, #80]
    40109d10:	a94467fa 	ldp	x26, x25, [sp, #64]
    40109d14:	a9436ffc 	ldp	x28, x27, [sp, #48]
    40109d18:	a9427bfd 	ldp	x29, x30, [sp, #32]
    40109d1c:	2a0103e0 	mov	w0, w1
    40109d20:	910203ff 	add	sp, sp, #0x80
    40109d24:	d65f03c0 	ret
    40109d28:	d10143ff 	sub	sp, sp, #0x50
    40109d2c:	a9017bfd 	stp	x29, x30, [sp, #16]
    40109d30:	f90013f7 	str	x23, [sp, #32]
    40109d34:	a90357f6 	stp	x22, x21, [sp, #48]
    40109d38:	a9044ff4 	stp	x20, x19, [sp, #64]
    40109d3c:	910043fd 	add	x29, sp, #0x10
    40109d40:	2a0103f4 	mov	w20, w1
    40109d44:	aa0003f5 	mov	x21, x0
    40109d48:	aa0203e0 	mov	x0, x2
    40109d4c:	2a0303e1 	mov	w1, w3
    40109d50:	2a0303f6 	mov	w22, w3
    40109d54:	aa0203f3 	mov	x19, x2
    40109d58:	94000286 	bl	0x4010a770
    40109d5c:	37f802c0 	tbnz	w0, #31, 0x40109db4
    40109d60:	2a0003f7 	mov	w23, w0
    40109d64:	910063a2 	add	x2, x29, #0x18
    40109d68:	d10013a3 	sub	x3, x29, #0x4
    40109d6c:	aa1303e0 	mov	x0, x19
    40109d70:	2a1703e1 	mov	w1, w23
    40109d74:	94000389 	bl	0x4010ab98
    40109d78:	b85fc3a4 	ldur	w4, [x29, #-4]
    40109d7c:	3100049f 	cmn	w4, #0x1
    40109d80:	540006a0 	b.eq	0x40109e54  // b.none
    40109d84:	37f806a4 	tbnz	w4, #31, 0x40109e58
    40109d88:	f9400fa2 	ldr	x2, [x29, #24]
    40109d8c:	aa0003e3 	mov	x3, x0
    40109d90:	aa1503e0 	mov	x0, x21
    40109d94:	2a1403e1 	mov	w1, w20
    40109d98:	940008b8 	bl	0x4010c078
    40109d9c:	35000580 	cbnz	w0, 0x40109e4c
    40109da0:	aa1303e0 	mov	x0, x19
    40109da4:	2a1703e1 	mov	w1, w23
    40109da8:	94000290 	bl	0x4010a7e8
    40109dac:	2a0003f7 	mov	w23, w0
    40109db0:	36fffda0 	tbz	w0, #31, 0x40109d64
    40109db4:	aa1303e0 	mov	x0, x19
    40109db8:	2a1603e1 	mov	w1, w22
    40109dbc:	97fffb8d 	bl	0x40108bf0
    40109dc0:	37f80420 	tbnz	w0, #31, 0x40109e44
    40109dc4:	2a0003f6 	mov	w22, w0
    40109dc8:	aa1303e0 	mov	x0, x19
    40109dcc:	2a1603e1 	mov	w1, w22
    40109dd0:	aa1f03e2 	mov	x2, xzr
    40109dd4:	9400023d 	bl	0x4010a6c8
    40109dd8:	aa0003f7 	mov	x23, x0
    40109ddc:	aa1503e0 	mov	x0, x21
    40109de0:	2a1403e1 	mov	w1, w20
    40109de4:	aa1703e2 	mov	x2, x23
    40109de8:	940009ff 	bl	0x4010c5e4
    40109dec:	2a0003e4 	mov	w4, w0
    40109df0:	3100081f 	cmn	w0, #0x2
    40109df4:	54000101 	b.ne	0x40109e14  // b.any
    40109df8:	aa1503e0 	mov	x0, x21
    40109dfc:	2a1403e1 	mov	w1, w20
    40109e00:	aa1703e2 	mov	x2, x23
    40109e04:	94000185 	bl	0x4010a418
    40109e08:	2a0003e4 	mov	w4, w0
    40109e0c:	3100041f 	cmn	w0, #0x1
    40109e10:	54000220 	b.eq	0x40109e54  // b.none
    40109e14:	37f80224 	tbnz	w4, #31, 0x40109e58
    40109e18:	aa1503e0 	mov	x0, x21
    40109e1c:	2a0403e1 	mov	w1, w4
    40109e20:	aa1303e2 	mov	x2, x19
    40109e24:	2a1603e3 	mov	w3, w22
    40109e28:	97ffffc0 	bl	0x40109d28
    40109e2c:	35000100 	cbnz	w0, 0x40109e4c
    40109e30:	aa1303e0 	mov	x0, x19
    40109e34:	2a1603e1 	mov	w1, w22
    40109e38:	97fffba2 	bl	0x40108cc0
    40109e3c:	2a0003f6 	mov	w22, w0
    40109e40:	36fffc40 	tbz	w0, #31, 0x40109dc8
    40109e44:	2a1f03e4 	mov	w4, wzr
    40109e48:	14000004 	b	0x40109e58
    40109e4c:	2a0003e4 	mov	w4, w0
    40109e50:	14000002 	b	0x40109e58
    40109e54:	12800184 	mov	w4, #0xfffffff3            	// #-13
    40109e58:	a9444ff4 	ldp	x20, x19, [sp, #64]
    40109e5c:	a94357f6 	ldp	x22, x21, [sp, #48]
    40109e60:	f94013f7 	ldr	x23, [sp, #32]
    40109e64:	a9417bfd 	ldp	x29, x30, [sp, #16]
    40109e68:	2a0403e0 	mov	w0, w4
    40109e6c:	910143ff 	add	sp, sp, #0x50
    40109e70:	d65f03c0 	ret
    40109e74:	a9bd7bfd 	stp	x29, x30, [sp, #-48]!
    40109e78:	f9000bf5 	str	x21, [sp, #16]
    40109e7c:	a9024ff4 	stp	x20, x19, [sp, #32]
    40109e80:	910003fd 	mov	x29, sp
    40109e84:	aa0203f3 	mov	x19, x2
    40109e88:	2a0103f5 	mov	w21, w1
    40109e8c:	aa0003f4 	mov	x20, x0
    40109e90:	97fff9de 	bl	0x40108608
    40109e94:	37f80460 	tbnz	w0, #31, 0x40109f20
    40109e98:	b9400e88 	ldr	w8, [x20, #12]
    40109e9c:	5ac00908 	rev	w8, w8
    40109ea0:	0b150108 	add	w8, w8, w21
    40109ea4:	6b080009 	subs	w9, w0, w8
    40109ea8:	540003a9 	b.ls	0x40109f1c  // b.plast
    40109eac:	b940028a 	ldr	w10, [x20]
    40109eb0:	5280224b 	mov	w11, #0x112                 	// #274
    40109eb4:	72a5fe4b 	movk	w11, #0x2ff2, lsl #16
    40109eb8:	5ac0094a 	rev	w10, w10
    40109ebc:	6b0b015f 	cmp	w10, w11
    40109ec0:	54000220 	b.eq	0x40109f04  // b.none
    40109ec4:	529fddab 	mov	w11, #0xfeed                	// #65261
    40109ec8:	72ba01ab 	movk	w11, #0xd00d, lsl #16
    40109ecc:	6b0b015f 	cmp	w10, w11
    40109ed0:	54000381 	b.ne	0x40109f40  // b.any
    40109ed4:	37f80255 	tbnz	w21, #31, 0x40109f1c
    40109ed8:	b940168a 	ldr	w10, [x20, #20]
    40109edc:	5ac0094a 	rev	w10, w10
    40109ee0:	7100455f 	cmp	w10, #0x11
    40109ee4:	54000363 	b.cc	0x40109f50  // b.lo, b.ul, b.last
    40109ee8:	b940228a 	ldr	w10, [x20, #32]
    40109eec:	5ac0094a 	rev	w10, w10
    40109ef0:	6b15014a 	subs	w10, w10, w21
    40109ef4:	54000149 	b.ls	0x40109f1c  // b.plast
    40109ef8:	6b09015f 	cmp	w10, w9
    40109efc:	1a893149 	csel	w9, w10, w9, cc  // cc = lo, ul, last
    40109f00:	14000014 	b	0x40109f50
    40109f04:	36f800d5 	tbz	w21, #31, 0x40109f1c
    40109f08:	b940228b 	ldr	w11, [x20, #32]
    40109f0c:	4b1503ea 	neg	w10, w21
    40109f10:	5ac0096b 	rev	w11, w11
    40109f14:	6b0a017f 	cmp	w11, w10
    40109f18:	54000182 	b.cs	0x40109f48  // b.hs, b.nlast
    40109f1c:	12800060 	mov	w0, #0xfffffffc            	// #-4
    40109f20:	aa1f03f4 	mov	x20, xzr
    40109f24:	b4000053 	cbz	x19, 0x40109f2c
    40109f28:	b9000260 	str	w0, [x19]
    40109f2c:	aa1403e0 	mov	x0, x20
    40109f30:	a9424ff4 	ldp	x20, x19, [sp, #32]
    40109f34:	f9400bf5 	ldr	x21, [sp, #16]
    40109f38:	a8c37bfd 	ldp	x29, x30, [sp], #48
    40109f3c:	d65f03c0 	ret
    40109f40:	12800180 	mov	w0, #0xfffffff3            	// #-13
    40109f44:	17fffff7 	b	0x40109f20
    40109f48:	6b0a013f 	cmp	w9, w10
    40109f4c:	1a8a3129 	csel	w9, w9, w10, cc  // cc = lo, ul, last
    40109f50:	8b284294 	add	x20, x20, w8, uxtw
    40109f54:	2a0903e2 	mov	w2, w9
    40109f58:	aa1403e0 	mov	x0, x20
    40109f5c:	2a1f03e1 	mov	w1, wzr
    40109f60:	94001413 	bl	0x4010efac
    40109f64:	b40000a0 	cbz	x0, 0x40109f78
    40109f68:	b4fffe33 	cbz	x19, 0x40109f2c
    40109f6c:	4b140008 	sub	w8, w0, w20
    40109f70:	b9000268 	str	w8, [x19]
    40109f74:	17ffffee 	b	0x40109f2c
    40109f78:	128000e0 	mov	w0, #0xfffffff8            	// #-8
    40109f7c:	17ffffe9 	b	0x40109f20
    40109f80:	aa1f03e2 	mov	x2, xzr
    40109f84:	17ffffbc 	b	0x40109e74
    40109f88:	a9bd7bfd 	stp	x29, x30, [sp, #-48]!
    40109f8c:	a90157f6 	stp	x22, x21, [sp, #16]
    40109f90:	a9024ff4 	stp	x20, x19, [sp, #32]
    40109f94:	910003fd 	mov	x29, sp
    40109f98:	aa0103f3 	mov	x19, x1
    40109f9c:	12800001 	mov	w1, #0xffffffff            	// #-1
    40109fa0:	aa1f03e2 	mov	x2, xzr
    40109fa4:	aa0003f5 	mov	x21, x0
    40109fa8:	97fffad4 	bl	0x40108af8
    40109fac:	2a0003f4 	mov	w20, w0
    40109fb0:	2a1f03f6 	mov	w22, wzr
    40109fb4:	37f80180 	tbnz	w0, #31, 0x40109fe4
    40109fb8:	aa1503e0 	mov	x0, x21
    40109fbc:	2a1403e1 	mov	w1, w20
    40109fc0:	94000013 	bl	0x4010a00c
    40109fc4:	6b16001f 	cmp	w0, w22
    40109fc8:	1a968016 	csel	w22, w0, w22, hi  // hi = pmore
    40109fcc:	aa1503e0 	mov	x0, x21
    40109fd0:	2a1403e1 	mov	w1, w20
    40109fd4:	aa1f03e2 	mov	x2, xzr
    40109fd8:	97fffac8 	bl	0x40108af8
    40109fdc:	2a0003f4 	mov	w20, w0
    40109fe0:	36fffec0 	tbz	w0, #31, 0x40109fb8
    40109fe4:	3100069f 	cmn	w20, #0x1
    40109fe8:	54000081 	b.ne	0x40109ff8  // b.any
    40109fec:	2a1f03f4 	mov	w20, wzr
    40109ff0:	b4000053 	cbz	x19, 0x40109ff8
    40109ff4:	b9000276 	str	w22, [x19]
    40109ff8:	2a1403e0 	mov	w0, w20
    40109ffc:	a9424ff4 	ldp	x20, x19, [sp, #32]
    4010a000:	a94157f6 	ldp	x22, x21, [sp, #16]
    4010a004:	a8c37bfd 	ldp	x29, x30, [sp], #48
    4010a008:	d65f03c0 	ret
    4010a00c:	d10103ff 	sub	sp, sp, #0x40
    4010a010:	a9017bfd 	stp	x29, x30, [sp, #16]
    4010a014:	f90013f5 	str	x21, [sp, #32]
    4010a018:	a9034ff4 	stp	x20, x19, [sp, #48]
    4010a01c:	910043fd 	add	x29, sp, #0x10
    4010a020:	f0000075 	adrp	x21, 0x40119000
    4010a024:	912582b5 	add	x21, x21, #0x960
    4010a028:	aa0003f3 	mov	x19, x0
    4010a02c:	aa1503e0 	mov	x0, x21
    4010a030:	2a0103f4 	mov	w20, w1
    4010a034:	9400140f 	bl	0x4010f070
    4010a038:	aa0003e3 	mov	x3, x0
    4010a03c:	d10013a4 	sub	x4, x29, #0x4
    4010a040:	910063a5 	add	x5, x29, #0x18
    4010a044:	aa1303e0 	mov	x0, x19
    4010a048:	2a1403e1 	mov	w1, w20
    4010a04c:	aa1503e2 	mov	x2, x21
    4010a050:	94000233 	bl	0x4010a91c
    4010a054:	b4000260 	cbz	x0, 0x4010a0a0
    4010a058:	b9401668 	ldr	w8, [x19, #20]
    4010a05c:	5ac00908 	rev	w8, w8
    4010a060:	71003d1f 	cmp	w8, #0xf
    4010a064:	54000168 	b.hi	0x4010a090  // b.pmore
    4010a068:	b9401ba8 	ldr	w8, [x29, #24]
    4010a06c:	11001108 	add	w8, w8, #0x4
    4010a070:	7200091f 	tst	w8, #0x7
    4010a074:	540000e0 	b.eq	0x4010a090  // b.none
    4010a078:	b9400408 	ldr	w8, [x0, #4]
    4010a07c:	5ac00908 	rev	w8, w8
    4010a080:	7100211f 	cmp	w8, #0x8
    4010a084:	54000063 	b.cc	0x4010a090  // b.lo, b.ul, b.last
    4010a088:	91004008 	add	x8, x0, #0x10
    4010a08c:	14000002 	b	0x4010a094
    4010a090:	91003008 	add	x8, x0, #0xc
    4010a094:	b85fc3a9 	ldur	w9, [x29, #-4]
    4010a098:	7100113f 	cmp	w9, #0x4
    4010a09c:	540003e0 	b.eq	0x4010a118  // b.none
    4010a0a0:	f0000075 	adrp	x21, 0x40119000
    4010a0a4:	91256ab5 	add	x21, x21, #0x95a
    4010a0a8:	aa1503e0 	mov	x0, x21
    4010a0ac:	940013f1 	bl	0x4010f070
    4010a0b0:	aa0003e3 	mov	x3, x0
    4010a0b4:	d10013a4 	sub	x4, x29, #0x4
    4010a0b8:	910073a5 	add	x5, x29, #0x1c
    4010a0bc:	aa1303e0 	mov	x0, x19
    4010a0c0:	2a1403e1 	mov	w1, w20
    4010a0c4:	aa1503e2 	mov	x2, x21
    4010a0c8:	94000215 	bl	0x4010a91c
    4010a0cc:	b40002e0 	cbz	x0, 0x4010a128
    4010a0d0:	b9401668 	ldr	w8, [x19, #20]
    4010a0d4:	5ac00908 	rev	w8, w8
    4010a0d8:	71003d1f 	cmp	w8, #0xf
    4010a0dc:	54000168 	b.hi	0x4010a108  // b.pmore
    4010a0e0:	b9401fa8 	ldr	w8, [x29, #28]
    4010a0e4:	11001108 	add	w8, w8, #0x4
    4010a0e8:	7200091f 	tst	w8, #0x7
    4010a0ec:	540000e0 	b.eq	0x4010a108  // b.none
    4010a0f0:	b9400408 	ldr	w8, [x0, #4]
    4010a0f4:	5ac00908 	rev	w8, w8
    4010a0f8:	7100211f 	cmp	w8, #0x8
    4010a0fc:	54000063 	b.cc	0x4010a108  // b.lo, b.ul, b.last
    4010a100:	91004008 	add	x8, x0, #0x10
    4010a104:	14000002 	b	0x4010a10c
    4010a108:	91003008 	add	x8, x0, #0xc
    4010a10c:	b85fc3a9 	ldur	w9, [x29, #-4]
    4010a110:	7100113f 	cmp	w9, #0x4
    4010a114:	54000081 	b.ne	0x4010a124  // b.any
    4010a118:	b9400108 	ldr	w8, [x8]
    4010a11c:	5ac00900 	rev	w0, w8
    4010a120:	14000002 	b	0x4010a128
    4010a124:	2a1f03e0 	mov	w0, wzr
    4010a128:	a9434ff4 	ldp	x20, x19, [sp, #48]
    4010a12c:	f94013f5 	ldr	x21, [sp, #32]
    4010a130:	a9417bfd 	ldp	x29, x30, [sp, #16]
    4010a134:	910103ff 	add	sp, sp, #0x40
    4010a138:	d65f03c0 	ret
    4010a13c:	a9bd7bfd 	stp	x29, x30, [sp, #-48]!
    4010a140:	a90157f6 	stp	x22, x21, [sp, #16]
    4010a144:	a9024ff4 	stp	x20, x19, [sp, #32]
    4010a148:	910003fd 	mov	x29, sp
    4010a14c:	aa0103f3 	mov	x19, x1
    4010a150:	12800001 	mov	w1, #0xffffffff            	// #-1
    4010a154:	aa1f03e2 	mov	x2, xzr
    4010a158:	aa0003f5 	mov	x21, x0
    4010a15c:	97fffa67 	bl	0x40108af8
    4010a160:	2a0003f4 	mov	w20, w0
    4010a164:	2a1f03f6 	mov	w22, wzr
    4010a168:	37f80180 	tbnz	w0, #31, 0x4010a198
    4010a16c:	aa1503e0 	mov	x0, x21
    4010a170:	2a1403e1 	mov	w1, w20
    4010a174:	97ffffa6 	bl	0x4010a00c
    4010a178:	6b16001f 	cmp	w0, w22
    4010a17c:	1a968016 	csel	w22, w0, w22, hi  // hi = pmore
    4010a180:	aa1503e0 	mov	x0, x21
    4010a184:	2a1403e1 	mov	w1, w20
    4010a188:	aa1f03e2 	mov	x2, xzr
    4010a18c:	97fffa5b 	bl	0x40108af8
    4010a190:	2a0003f4 	mov	w20, w0
    4010a194:	36fffec0 	tbz	w0, #31, 0x4010a16c
    4010a198:	3100069f 	cmn	w20, #0x1
    4010a19c:	54000121 	b.ne	0x4010a1c0  // b.any
    4010a1a0:	31000adf 	cmn	w22, #0x2
    4010a1a4:	54000061 	b.ne	0x4010a1b0  // b.any
    4010a1a8:	12800214 	mov	w20, #0xffffffef            	// #-17
    4010a1ac:	14000005 	b	0x4010a1c0
    4010a1b0:	2a1f03f4 	mov	w20, wzr
    4010a1b4:	b4000073 	cbz	x19, 0x4010a1c0
    4010a1b8:	110006c8 	add	w8, w22, #0x1
    4010a1bc:	b9000268 	str	w8, [x19]
    4010a1c0:	2a1403e0 	mov	w0, w20
    4010a1c4:	a9424ff4 	ldp	x20, x19, [sp, #32]
    4010a1c8:	a94157f6 	ldp	x22, x21, [sp, #16]
    4010a1cc:	a8c37bfd 	ldp	x29, x30, [sp], #48
    4010a1d0:	d65f03c0 	ret
    4010a1d4:	a9bd7bfd 	stp	x29, x30, [sp, #-48]!
    4010a1d8:	a90157f6 	stp	x22, x21, [sp, #16]
    4010a1dc:	a9024ff4 	stp	x20, x19, [sp, #32]
    4010a1e0:	910003fd 	mov	x29, sp
    4010a1e4:	aa0303f3 	mov	x19, x3
    4010a1e8:	aa0203f4 	mov	x20, x2
    4010a1ec:	2a0103f5 	mov	w21, w1
    4010a1f0:	aa0003f6 	mov	x22, x0
    4010a1f4:	97fff905 	bl	0x40108608
    4010a1f8:	37f80420 	tbnz	w0, #31, 0x4010a27c
    4010a1fc:	394042cb 	ldrb	w11, [x22, #16]
    4010a200:	394046c8 	ldrb	w8, [x22, #17]
    4010a204:	39404ac9 	ldrb	w9, [x22, #18]
    4010a208:	39404eca 	ldrb	w10, [x22, #19]
    4010a20c:	53081d6c 	lsl	w12, w11, #24
    4010a210:	33101d0c 	bfi	w12, w8, #16, #8
    4010a214:	33181d2c 	bfi	w12, w9, #8, #8
    4010a218:	2a0a018c 	orr	w12, w12, w10
    4010a21c:	2b15118c 	adds	w12, w12, w21, lsl #4
    4010a220:	540000e2 	b.cs	0x4010a23c  // b.hs, b.nlast
    4010a224:	b94006cd 	ldr	w13, [x22, #4]
    4010a228:	d3607dad 	lsl	x13, x13, #32
    4010a22c:	dac00dad 	rev	x13, x13
    4010a230:	d10041ad 	sub	x13, x13, #0x10
    4010a234:	eb2c41bf 	cmp	x13, w12, uxtw
    4010a238:	54000062 	b.cs	0x4010a244  // b.hs, b.nlast
    4010a23c:	12800060 	mov	w0, #0xfffffffc            	// #-4
    4010a240:	1400000f 	b	0x4010a27c
    4010a244:	92401d6b 	and	x11, x11, #0xff
    4010a248:	d3689d6b 	lsl	x11, x11, #24
    4010a24c:	b3701d0b 	bfi	x11, x8, #16, #8
    4010a250:	b3781d2b 	bfi	x11, x9, #8, #8
    4010a254:	aa0a0168 	orr	x8, x11, x10
    4010a258:	8b0802c8 	add	x8, x22, x8
    4010a25c:	8b35d108 	add	x8, x8, w21, sxtw #4
    4010a260:	f9400109 	ldr	x9, [x8]
    4010a264:	2a1f03e0 	mov	w0, wzr
    4010a268:	dac00d29 	rev	x9, x9
    4010a26c:	f9000289 	str	x9, [x20]
    4010a270:	f9400508 	ldr	x8, [x8, #8]
    4010a274:	dac00d08 	rev	x8, x8
    4010a278:	f9000268 	str	x8, [x19]
    4010a27c:	a9424ff4 	ldp	x20, x19, [sp, #32]
    4010a280:	a94157f6 	ldp	x22, x21, [sp, #16]
    4010a284:	a8c37bfd 	ldp	x29, x30, [sp], #48
    4010a288:	d65f03c0 	ret
    4010a28c:	39404008 	ldrb	w8, [x0, #16]
    4010a290:	3940440a 	ldrb	w10, [x0, #17]
    4010a294:	3940480b 	ldrb	w11, [x0, #18]
    4010a298:	b940040c 	ldr	w12, [x0, #4]
    4010a29c:	39404c0e 	ldrb	w14, [x0, #19]
    4010a2a0:	53081d0d 	lsl	w13, w8, #24
    4010a2a4:	d3689d08 	lsl	x8, x8, #24
    4010a2a8:	b3701d48 	bfi	x8, x10, #16, #8
    4010a2ac:	33101d4d 	bfi	w13, w10, #16, #8
    4010a2b0:	b3781d68 	bfi	x8, x11, #8, #8
    4010a2b4:	d3607d8a 	lsl	x10, x12, #32
    4010a2b8:	33181d6d 	bfi	w13, w11, #8, #8
    4010a2bc:	aa0e0108 	orr	x8, x8, x14
    4010a2c0:	dac00d4a 	rev	x10, x10
    4010a2c4:	2a0e01ab 	orr	w11, w13, w14
    4010a2c8:	8b000108 	add	x8, x8, x0
    4010a2cc:	2a1f03e9 	mov	w9, wzr
    4010a2d0:	d100414a 	sub	x10, x10, #0x10
    4010a2d4:	9100210c 	add	x12, x8, #0x8
    4010a2d8:	2a0b03ed 	mov	w13, w11
    4010a2dc:	128000e8 	mov	w8, #0xfffffff8            	// #-8
    4010a2e0:	b4000180 	cbz	x0, 0x4010a310
    4010a2e4:	2a0d03ee 	mov	w14, w13
    4010a2e8:	eb0e015f 	cmp	x10, x14
    4010a2ec:	54000123 	b.cc	0x4010a310  // b.lo, b.ul, b.last
    4010a2f0:	f9400188 	ldr	x8, [x12]
    4010a2f4:	b4000128 	cbz	x8, 0x4010a318
    4010a2f8:	110041ad 	add	w13, w13, #0x10
    4010a2fc:	11000529 	add	w9, w9, #0x1
    4010a300:	6b0b01bf 	cmp	w13, w11
    4010a304:	9100418c 	add	x12, x12, #0x10
    4010a308:	54fffea2 	b.cs	0x4010a2dc  // b.hs, b.nlast
    4010a30c:	128000e8 	mov	w8, #0xfffffff8            	// #-8
    4010a310:	2a0803e0 	mov	w0, w8
    4010a314:	d65f03c0 	ret
    4010a318:	2a0903e0 	mov	w0, w9
    4010a31c:	d65f03c0 	ret
    4010a320:	d10143ff 	sub	sp, sp, #0x50
    4010a324:	a9017bfd 	stp	x29, x30, [sp, #16]
    4010a328:	a9025ff8 	stp	x24, x23, [sp, #32]
    4010a32c:	a90357f6 	stp	x22, x21, [sp, #48]
    4010a330:	a9044ff4 	stp	x20, x19, [sp, #64]
    4010a334:	910043fd 	add	x29, sp, #0x10
    4010a338:	2a0303f4 	mov	w20, w3
    4010a33c:	aa0203f5 	mov	x21, x2
    4010a340:	2a0103f3 	mov	w19, w1
    4010a344:	aa0003f6 	mov	x22, x0
    4010a348:	97fff8b0 	bl	0x40108608
    4010a34c:	37f80500 	tbnz	w0, #31, 0x4010a3ec
    4010a350:	b9000bff 	str	wzr, [sp, #8]
    4010a354:	37f80553 	tbnz	w19, #31, 0x4010a3fc
    4010a358:	2a1f03e8 	mov	w8, wzr
    4010a35c:	93407e97 	sxtw	x23, w20
    4010a360:	14000009 	b	0x4010a384
    4010a364:	910023e2 	add	x2, sp, #0x8
    4010a368:	aa1603e0 	mov	x0, x22
    4010a36c:	2a1303e1 	mov	w1, w19
    4010a370:	97fff9e2 	bl	0x40108af8
    4010a374:	b9400be8 	ldr	w8, [sp, #8]
    4010a378:	2a0003f3 	mov	w19, w0
    4010a37c:	2a080009 	orr	w9, w0, w8
    4010a380:	37f803a9 	tbnz	w9, #31, 0x4010a3f4
    4010a384:	7100051f 	cmp	w8, #0x1
    4010a388:	54fffee1 	b.ne	0x4010a364  // b.any
    4010a38c:	d10013a2 	sub	x2, x29, #0x4
    4010a390:	aa1603e0 	mov	x0, x22
    4010a394:	2a1303e1 	mov	w1, w19
    4010a398:	940000cc 	bl	0x4010a6c8
    4010a39c:	b4fffe40 	cbz	x0, 0x4010a364
    4010a3a0:	b85fc3a8 	ldur	w8, [x29, #-4]
    4010a3a4:	6b14011f 	cmp	w8, w20
    4010a3a8:	54fffdeb 	b.lt	0x4010a364  // b.tstop
    4010a3ac:	aa1503e1 	mov	x1, x21
    4010a3b0:	aa1703e2 	mov	x2, x23
    4010a3b4:	aa0003f8 	mov	x24, x0
    4010a3b8:	94001322 	bl	0x4010f040
    4010a3bc:	35fffd40 	cbnz	w0, 0x4010a364
    4010a3c0:	38776b08 	ldrb	w8, [x24, x23]
    4010a3c4:	340001c8 	cbz	w8, 0x4010a3fc
    4010a3c8:	52800801 	mov	w1, #0x40                  	// #64
    4010a3cc:	aa1503e0 	mov	x0, x21
    4010a3d0:	aa1703e2 	mov	x2, x23
    4010a3d4:	940012f6 	bl	0x4010efac
    4010a3d8:	b5fffc60 	cbnz	x0, 0x4010a364
    4010a3dc:	38776b08 	ldrb	w8, [x24, x23]
    4010a3e0:	7101011f 	cmp	w8, #0x40
    4010a3e4:	54fffc01 	b.ne	0x4010a364  // b.any
    4010a3e8:	14000005 	b	0x4010a3fc
    4010a3ec:	2a0003f3 	mov	w19, w0
    4010a3f0:	14000003 	b	0x4010a3fc
    4010a3f4:	7100011f 	cmp	w8, #0x0
    4010a3f8:	5a9fa273 	csinv	w19, w19, wzr, ge  // ge = tcont
    4010a3fc:	2a1303e0 	mov	w0, w19
    4010a400:	a9444ff4 	ldp	x20, x19, [sp, #64]
    4010a404:	a94357f6 	ldp	x22, x21, [sp, #48]
    4010a408:	a9425ff8 	ldp	x24, x23, [sp, #32]
    4010a40c:	a9417bfd 	ldp	x29, x30, [sp, #16]
    4010a410:	910143ff 	add	sp, sp, #0x50
    4010a414:	d65f03c0 	ret
    4010a418:	a9bd7bfd 	stp	x29, x30, [sp, #-48]!
    4010a41c:	f9000bf5 	str	x21, [sp, #16]
    4010a420:	a9024ff4 	stp	x20, x19, [sp, #32]
    4010a424:	910003fd 	mov	x29, sp
    4010a428:	aa0003f5 	mov	x21, x0
    4010a42c:	aa0203e0 	mov	x0, x2
    4010a430:	aa0203f3 	mov	x19, x2
    4010a434:	2a0103f4 	mov	w20, w1
    4010a438:	9400130e 	bl	0x4010f070
    4010a43c:	aa0003e3 	mov	x3, x0
    4010a440:	aa1503e0 	mov	x0, x21
    4010a444:	2a1403e1 	mov	w1, w20
    4010a448:	aa1303e2 	mov	x2, x19
    4010a44c:	a9424ff4 	ldp	x20, x19, [sp, #32]
    4010a450:	f9400bf5 	ldr	x21, [sp, #16]
    4010a454:	a8c37bfd 	ldp	x29, x30, [sp], #48
    4010a458:	17ffffb2 	b	0x4010a320
    4010a45c:	a9bc7bfd 	stp	x29, x30, [sp, #-64]!
    4010a460:	f9000bf7 	str	x23, [sp, #16]
    4010a464:	a90257f6 	stp	x22, x21, [sp, #32]
    4010a468:	a9034ff4 	stp	x20, x19, [sp, #48]
    4010a46c:	910003fd 	mov	x29, sp
    4010a470:	2a0203f4 	mov	w20, w2
    4010a474:	aa0103f6 	mov	x22, x1
    4010a478:	aa0003f3 	mov	x19, x0
    4010a47c:	97fff863 	bl	0x40108608
    4010a480:	37f80120 	tbnz	w0, #31, 0x4010a4a4
    4010a484:	394002c8 	ldrb	w8, [x22]
    4010a488:	93407e82 	sxtw	x2, w20
    4010a48c:	8b0202d7 	add	x23, x22, x2
    4010a490:	7100bd1f 	cmp	w8, #0x2f
    4010a494:	540000c1 	b.ne	0x4010a4ac  // b.any
    4010a498:	2a1f03f5 	mov	w21, wzr
    4010a49c:	aa1603f4 	mov	x20, x22
    4010a4a0:	14000040 	b	0x4010a5a0
    4010a4a4:	2a0003f5 	mov	w21, w0
    4010a4a8:	14000046 	b	0x4010a5c0
    4010a4ac:	528005e1 	mov	w1, #0x2f                  	// #47
    4010a4b0:	aa1603e0 	mov	x0, x22
    4010a4b4:	940012be 	bl	0x4010efac
    4010a4b8:	f0000075 	adrp	x21, 0x40119000
    4010a4bc:	f100001f 	cmp	x0, #0x0
    4010a4c0:	9126bab5 	add	x21, x21, #0x9ae
    4010a4c4:	9a8002f4 	csel	x20, x23, x0, eq  // eq = none
    4010a4c8:	aa1503e0 	mov	x0, x21
    4010a4cc:	940012e9 	bl	0x4010f070
    4010a4d0:	aa0003e2 	mov	x2, x0
    4010a4d4:	aa1303e0 	mov	x0, x19
    4010a4d8:	aa1503e1 	mov	x1, x21
    4010a4dc:	97ffffe0 	bl	0x4010a45c
    4010a4e0:	37f802e0 	tbnz	w0, #31, 0x4010a53c
    4010a4e4:	2a0003e1 	mov	w1, w0
    4010a4e8:	4b160283 	sub	w3, w20, w22
    4010a4ec:	910073a5 	add	x5, x29, #0x1c
    4010a4f0:	aa1303e0 	mov	x0, x19
    4010a4f4:	aa1603e2 	mov	x2, x22
    4010a4f8:	aa1f03e4 	mov	x4, xzr
    4010a4fc:	94000108 	bl	0x4010a91c
    4010a500:	b40001e0 	cbz	x0, 0x4010a53c
    4010a504:	b9401668 	ldr	w8, [x19, #20]
    4010a508:	5ac00908 	rev	w8, w8
    4010a50c:	71003d1f 	cmp	w8, #0xf
    4010a510:	540001a8 	b.hi	0x4010a544  // b.pmore
    4010a514:	b9401fa8 	ldr	w8, [x29, #28]
    4010a518:	11001108 	add	w8, w8, #0x4
    4010a51c:	7200091f 	tst	w8, #0x7
    4010a520:	54000120 	b.eq	0x4010a544  // b.none
    4010a524:	b9400408 	ldr	w8, [x0, #4]
    4010a528:	5ac00908 	rev	w8, w8
    4010a52c:	7100211f 	cmp	w8, #0x8
    4010a530:	540000a3 	b.cc	0x4010a544  // b.lo, b.ul, b.last
    4010a534:	91004015 	add	x21, x0, #0x10
    4010a538:	14000004 	b	0x4010a548
    4010a53c:	12800095 	mov	w21, #0xfffffffb            	// #-5
    4010a540:	14000020 	b	0x4010a5c0
    4010a544:	91003015 	add	x21, x0, #0xc
    4010a548:	aa1503e0 	mov	x0, x21
    4010a54c:	940012c9 	bl	0x4010f070
    4010a550:	aa0003e2 	mov	x2, x0
    4010a554:	aa1303e0 	mov	x0, x19
    4010a558:	aa1503e1 	mov	x1, x21
    4010a55c:	97ffffc0 	bl	0x4010a45c
    4010a560:	2a0003f5 	mov	w21, w0
    4010a564:	1400000f 	b	0x4010a5a0
    4010a568:	cb1402e2 	sub	x2, x23, x20
    4010a56c:	528005e1 	mov	w1, #0x2f                  	// #47
    4010a570:	aa1403e0 	mov	x0, x20
    4010a574:	9400128e 	bl	0x4010efac
    4010a578:	f100001f 	cmp	x0, #0x0
    4010a57c:	9a8002f6 	csel	x22, x23, x0, eq  // eq = none
    4010a580:	4b1402c3 	sub	w3, w22, w20
    4010a584:	aa1303e0 	mov	x0, x19
    4010a588:	2a1503e1 	mov	w1, w21
    4010a58c:	aa1403e2 	mov	x2, x20
    4010a590:	97ffff64 	bl	0x4010a320
    4010a594:	2a0003f5 	mov	w21, w0
    4010a598:	aa1603f4 	mov	x20, x22
    4010a59c:	37f80120 	tbnz	w0, #31, 0x4010a5c0
    4010a5a0:	eb17029f 	cmp	x20, x23
    4010a5a4:	540000e2 	b.cs	0x4010a5c0  // b.hs, b.nlast
    4010a5a8:	39400288 	ldrb	w8, [x20]
    4010a5ac:	7100bd1f 	cmp	w8, #0x2f
    4010a5b0:	54fffdc1 	b.ne	0x4010a568  // b.any
    4010a5b4:	91000694 	add	x20, x20, #0x1
    4010a5b8:	eb1402ff 	cmp	x23, x20
    4010a5bc:	54ffff61 	b.ne	0x4010a5a8  // b.any
    4010a5c0:	2a1503e0 	mov	w0, w21
    4010a5c4:	a9434ff4 	ldp	x20, x19, [sp, #48]
    4010a5c8:	a94257f6 	ldp	x22, x21, [sp, #32]
    4010a5cc:	f9400bf7 	ldr	x23, [sp, #16]
    4010a5d0:	a8c47bfd 	ldp	x29, x30, [sp], #64
    4010a5d4:	d65f03c0 	ret
    4010a5d8:	d10103ff 	sub	sp, sp, #0x40
    4010a5dc:	a9017bfd 	stp	x29, x30, [sp, #16]
    4010a5e0:	a90257f6 	stp	x22, x21, [sp, #32]
    4010a5e4:	a9034ff4 	stp	x20, x19, [sp, #48]
    4010a5e8:	910043fd 	add	x29, sp, #0x10
    4010a5ec:	f0000076 	adrp	x22, 0x40119000
    4010a5f0:	9126bad6 	add	x22, x22, #0x9ae
    4010a5f4:	aa0003f3 	mov	x19, x0
    4010a5f8:	aa1603e0 	mov	x0, x22
    4010a5fc:	2a0203f4 	mov	w20, w2
    4010a600:	aa0103f5 	mov	x21, x1
    4010a604:	9400129b 	bl	0x4010f070
    4010a608:	aa0003e2 	mov	x2, x0
    4010a60c:	aa1303e0 	mov	x0, x19
    4010a610:	aa1603e1 	mov	x1, x22
    4010a614:	97ffff92 	bl	0x4010a45c
    4010a618:	37f802e0 	tbnz	w0, #31, 0x4010a674
    4010a61c:	2a0003e1 	mov	w1, w0
    4010a620:	d10013a5 	sub	x5, x29, #0x4
    4010a624:	aa1303e0 	mov	x0, x19
    4010a628:	aa1503e2 	mov	x2, x21
    4010a62c:	2a1403e3 	mov	w3, w20
    4010a630:	aa1f03e4 	mov	x4, xzr
    4010a634:	940000ba 	bl	0x4010a91c
    4010a638:	b4000240 	cbz	x0, 0x4010a680
    4010a63c:	b9401668 	ldr	w8, [x19, #20]
    4010a640:	5ac00908 	rev	w8, w8
    4010a644:	71003d1f 	cmp	w8, #0xf
    4010a648:	540001a8 	b.hi	0x4010a67c  // b.pmore
    4010a64c:	b85fc3a8 	ldur	w8, [x29, #-4]
    4010a650:	11001108 	add	w8, w8, #0x4
    4010a654:	7200091f 	tst	w8, #0x7
    4010a658:	54000120 	b.eq	0x4010a67c  // b.none
    4010a65c:	b9400408 	ldr	w8, [x0, #4]
    4010a660:	5ac00908 	rev	w8, w8
    4010a664:	7100211f 	cmp	w8, #0x8
    4010a668:	540000a3 	b.cc	0x4010a67c  // b.lo, b.ul, b.last
    4010a66c:	91004000 	add	x0, x0, #0x10
    4010a670:	14000004 	b	0x4010a680
    4010a674:	aa1f03e0 	mov	x0, xzr
    4010a678:	14000002 	b	0x4010a680
    4010a67c:	91003000 	add	x0, x0, #0xc
    4010a680:	a9434ff4 	ldp	x20, x19, [sp, #48]
    4010a684:	a94257f6 	ldp	x22, x21, [sp, #32]
    4010a688:	a9417bfd 	ldp	x29, x30, [sp, #16]
    4010a68c:	910103ff 	add	sp, sp, #0x40
    4010a690:	d65f03c0 	ret
    4010a694:	a9be7bfd 	stp	x29, x30, [sp, #-32]!
    4010a698:	a9014ff4 	stp	x20, x19, [sp, #16]
    4010a69c:	910003fd 	mov	x29, sp
    4010a6a0:	aa0003f4 	mov	x20, x0
    4010a6a4:	aa0103e0 	mov	x0, x1
    4010a6a8:	aa0103f3 	mov	x19, x1
    4010a6ac:	94001271 	bl	0x4010f070
    4010a6b0:	aa0003e2 	mov	x2, x0
    4010a6b4:	aa1403e0 	mov	x0, x20
    4010a6b8:	aa1303e1 	mov	x1, x19
    4010a6bc:	a9414ff4 	ldp	x20, x19, [sp, #16]
    4010a6c0:	a8c27bfd 	ldp	x29, x30, [sp], #32
    4010a6c4:	17ffff66 	b	0x4010a45c
    4010a6c8:	a9bd7bfd 	stp	x29, x30, [sp, #-48]!
    4010a6cc:	a90157f6 	stp	x22, x21, [sp, #16]
    4010a6d0:	a9024ff4 	stp	x20, x19, [sp, #32]
    4010a6d4:	910003fd 	mov	x29, sp
    4010a6d8:	b9400816 	ldr	w22, [x0, #8]
    4010a6dc:	aa0203f3 	mov	x19, x2
    4010a6e0:	aa0003f4 	mov	x20, x0
    4010a6e4:	2a0103f5 	mov	w21, w1
    4010a6e8:	97fff7c8 	bl	0x40108608
    4010a6ec:	37f80320 	tbnz	w0, #31, 0x4010a750
    4010a6f0:	aa1403e0 	mov	x0, x20
    4010a6f4:	2a1503e1 	mov	w1, w21
    4010a6f8:	97fff8de 	bl	0x40108a70
    4010a6fc:	37f802a0 	tbnz	w0, #31, 0x4010a750
    4010a700:	b9401689 	ldr	w9, [x20, #20]
    4010a704:	d3607ec8 	lsl	x8, x22, #32
    4010a708:	dac00d08 	rev	x8, x8
    4010a70c:	8b080288 	add	x8, x20, x8
    4010a710:	8b35c108 	add	x8, x8, w21, sxtw
    4010a714:	5ac00929 	rev	w9, w9
    4010a718:	71003d3f 	cmp	w9, #0xf
    4010a71c:	91001114 	add	x20, x8, #0x4
    4010a720:	540000c8 	b.hi	0x4010a738  // b.pmore
    4010a724:	528005e1 	mov	w1, #0x2f                  	// #47
    4010a728:	aa1403e0 	mov	x0, x20
    4010a72c:	9400131b 	bl	0x4010f398
    4010a730:	b40000e0 	cbz	x0, 0x4010a74c
    4010a734:	91000414 	add	x20, x0, #0x1
    4010a738:	b4000133 	cbz	x19, 0x4010a75c
    4010a73c:	aa1403e0 	mov	x0, x20
    4010a740:	9400124c 	bl	0x4010f070
    4010a744:	b9000260 	str	w0, [x19]
    4010a748:	14000005 	b	0x4010a75c
    4010a74c:	12800140 	mov	w0, #0xfffffff5            	// #-11
    4010a750:	aa1f03f4 	mov	x20, xzr
    4010a754:	b4000053 	cbz	x19, 0x4010a75c
    4010a758:	b9000260 	str	w0, [x19]
    4010a75c:	aa1403e0 	mov	x0, x20
    4010a760:	a9424ff4 	ldp	x20, x19, [sp, #32]
    4010a764:	a94157f6 	ldp	x22, x21, [sp, #16]
    4010a768:	a8c37bfd 	ldp	x29, x30, [sp], #48
    4010a76c:	d65f03c0 	ret
    4010a770:	d100c3ff 	sub	sp, sp, #0x30
    4010a774:	a9017bfd 	stp	x29, x30, [sp, #16]
    4010a778:	a9024ff4 	stp	x20, x19, [sp, #32]
    4010a77c:	910043fd 	add	x29, sp, #0x10
    4010a780:	aa0003f4 	mov	x20, x0
    4010a784:	97fff8bb 	bl	0x40108a70
    4010a788:	2a0003f3 	mov	w19, w0
    4010a78c:	37f80240 	tbnz	w0, #31, 0x4010a7d4
    4010a790:	d10013a2 	sub	x2, x29, #0x4
    4010a794:	aa1403e0 	mov	x0, x20
    4010a798:	2a1303e1 	mov	w1, w19
    4010a79c:	97fff86d 	bl	0x40108950
    4010a7a0:	71000c1f 	cmp	w0, #0x3
    4010a7a4:	54000180 	b.eq	0x4010a7d4  // b.none
    4010a7a8:	7100241f 	cmp	w0, #0x9
    4010a7ac:	540000c0 	b.eq	0x4010a7c4  // b.none
    4010a7b0:	b85fc3b3 	ldur	w19, [x29, #-4]
    4010a7b4:	7100101f 	cmp	w0, #0x4
    4010a7b8:	54fffec0 	b.eq	0x4010a790  // b.none
    4010a7bc:	12800013 	mov	w19, #0xffffffff            	// #-1
    4010a7c0:	14000005 	b	0x4010a7d4
    4010a7c4:	b85fc3a8 	ldur	w8, [x29, #-4]
    4010a7c8:	12800149 	mov	w9, #0xfffffff5            	// #-11
    4010a7cc:	7100011f 	cmp	w8, #0x0
    4010a7d0:	1a88a133 	csel	w19, w9, w8, ge  // ge = tcont
    4010a7d4:	2a1303e0 	mov	w0, w19
    4010a7d8:	a9424ff4 	ldp	x20, x19, [sp, #32]
    4010a7dc:	a9417bfd 	ldp	x29, x30, [sp, #16]
    4010a7e0:	9100c3ff 	add	sp, sp, #0x30
    4010a7e4:	d65f03c0 	ret
    4010a7e8:	d100c3ff 	sub	sp, sp, #0x30
    4010a7ec:	a9017bfd 	stp	x29, x30, [sp, #16]
    4010a7f0:	a9024ff4 	stp	x20, x19, [sp, #32]
    4010a7f4:	910043fd 	add	x29, sp, #0x10
    4010a7f8:	aa0003f4 	mov	x20, x0
    4010a7fc:	97fff8ae 	bl	0x40108ab4
    4010a800:	2a0003f3 	mov	w19, w0
    4010a804:	37f80240 	tbnz	w0, #31, 0x4010a84c
    4010a808:	d10013a2 	sub	x2, x29, #0x4
    4010a80c:	aa1403e0 	mov	x0, x20
    4010a810:	2a1303e1 	mov	w1, w19
    4010a814:	97fff84f 	bl	0x40108950
    4010a818:	71000c1f 	cmp	w0, #0x3
    4010a81c:	54000180 	b.eq	0x4010a84c  // b.none
    4010a820:	7100241f 	cmp	w0, #0x9
    4010a824:	540000c0 	b.eq	0x4010a83c  // b.none
    4010a828:	b85fc3b3 	ldur	w19, [x29, #-4]
    4010a82c:	7100101f 	cmp	w0, #0x4
    4010a830:	54fffec0 	b.eq	0x4010a808  // b.none
    4010a834:	12800013 	mov	w19, #0xffffffff            	// #-1
    4010a838:	14000005 	b	0x4010a84c
    4010a83c:	b85fc3a8 	ldur	w8, [x29, #-4]
    4010a840:	12800149 	mov	w9, #0xfffffff5            	// #-11
    4010a844:	7100011f 	cmp	w8, #0x0
    4010a848:	1a88a133 	csel	w19, w9, w8, ge  // ge = tcont
    4010a84c:	2a1303e0 	mov	w0, w19
    4010a850:	a9424ff4 	ldp	x20, x19, [sp, #32]
    4010a854:	a9417bfd 	ldp	x29, x30, [sp, #16]
    4010a858:	9100c3ff 	add	sp, sp, #0x30
    4010a85c:	d65f03c0 	ret
    4010a860:	a9bd7bfd 	stp	x29, x30, [sp, #-48]!
    4010a864:	f9000bf5 	str	x21, [sp, #16]
    4010a868:	a9024ff4 	stp	x20, x19, [sp, #32]
    4010a86c:	910003fd 	mov	x29, sp
    4010a870:	b9401408 	ldr	w8, [x0, #20]
    4010a874:	aa0203f3 	mov	x19, x2
    4010a878:	5ac00908 	rev	w8, w8
    4010a87c:	71003d1f 	cmp	w8, #0xf
    4010a880:	540000a8 	b.hi	0x4010a894  // b.pmore
    4010a884:	aa1f03e0 	mov	x0, xzr
    4010a888:	b4000293 	cbz	x19, 0x4010a8d8
    4010a88c:	12800128 	mov	w8, #0xfffffff6            	// #-10
    4010a890:	14000011 	b	0x4010a8d4
    4010a894:	aa0003f4 	mov	x20, x0
    4010a898:	2a0103f5 	mov	w21, w1
    4010a89c:	97fff886 	bl	0x40108ab4
    4010a8a0:	37f80140 	tbnz	w0, #31, 0x4010a8c8
    4010a8a4:	b9400a88 	ldr	w8, [x20, #8]
    4010a8a8:	d3607d08 	lsl	x8, x8, #32
    4010a8ac:	dac00d08 	rev	x8, x8
    4010a8b0:	8b080288 	add	x8, x20, x8
    4010a8b4:	8b35c100 	add	x0, x8, w21, sxtw
    4010a8b8:	b4000113 	cbz	x19, 0x4010a8d8
    4010a8bc:	b9400408 	ldr	w8, [x0, #4]
    4010a8c0:	5ac00908 	rev	w8, w8
    4010a8c4:	14000004 	b	0x4010a8d4
    4010a8c8:	b4000113 	cbz	x19, 0x4010a8e8
    4010a8cc:	2a0003e8 	mov	w8, w0
    4010a8d0:	aa1f03e0 	mov	x0, xzr
    4010a8d4:	b9000268 	str	w8, [x19]
    4010a8d8:	a9424ff4 	ldp	x20, x19, [sp, #32]
    4010a8dc:	f9400bf5 	ldr	x21, [sp, #16]
    4010a8e0:	a8c37bfd 	ldp	x29, x30, [sp], #48
    4010a8e4:	d65f03c0 	ret
    4010a8e8:	aa1f03e0 	mov	x0, xzr
    4010a8ec:	17fffffb 	b	0x4010a8d8
    4010a8f0:	b9401408 	ldr	w8, [x0, #20]
    4010a8f4:	5ac00908 	rev	w8, w8
    4010a8f8:	71003d1f 	cmp	w8, #0xf
    4010a8fc:	540000c8 	b.hi	0x4010a914  // b.pmore
    4010a900:	b4000064 	cbz	x4, 0x4010a90c
    4010a904:	12800128 	mov	w8, #0xfffffff6            	// #-10
    4010a908:	b9000088 	str	w8, [x4]
    4010a90c:	aa1f03e0 	mov	x0, xzr
    4010a910:	d65f03c0 	ret
    4010a914:	aa1f03e5 	mov	x5, xzr
    4010a918:	14000001 	b	0x4010a91c
    4010a91c:	d10183ff 	sub	sp, sp, #0x60
    4010a920:	a9017bfd 	stp	x29, x30, [sp, #16]
    4010a924:	a90267fa 	stp	x26, x25, [sp, #32]
    4010a928:	a9035ff8 	stp	x24, x23, [sp, #48]
    4010a92c:	a90457f6 	stp	x22, x21, [sp, #64]
    4010a930:	a9054ff4 	stp	x20, x19, [sp, #80]
    4010a934:	910043fd 	add	x29, sp, #0x10
    4010a938:	aa0503f5 	mov	x21, x5
    4010a93c:	aa0403f3 	mov	x19, x4
    4010a940:	2a0303f6 	mov	w22, w3
    4010a944:	aa0203f7 	mov	x23, x2
    4010a948:	aa0003f8 	mov	x24, x0
    4010a94c:	97fff849 	bl	0x40108a70
    4010a950:	2a0003f4 	mov	w20, w0
    4010a954:	37f80840 	tbnz	w0, #31, 0x4010aa5c
    4010a958:	910013e2 	add	x2, sp, #0x4
    4010a95c:	aa1803e0 	mov	x0, x24
    4010a960:	2a1403e1 	mov	w1, w20
    4010a964:	97fff7fb 	bl	0x40108950
    4010a968:	71000c1f 	cmp	w0, #0x3
    4010a96c:	54000120 	b.eq	0x4010a990  // b.none
    4010a970:	7100241f 	cmp	w0, #0x9
    4010a974:	540006c0 	b.eq	0x4010aa4c  // b.none
    4010a978:	b94007f4 	ldr	w20, [sp, #4]
    4010a97c:	7100101f 	cmp	w0, #0x4
    4010a980:	54fffec0 	b.eq	0x4010a958  // b.none
    4010a984:	12800014 	mov	w20, #0xffffffff            	// #-1
    4010a988:	b50006d3 	cbnz	x19, 0x4010aa60
    4010a98c:	1400003e 	b	0x4010aa84
    4010a990:	37f80674 	tbnz	w20, #31, 0x4010aa5c
    4010a994:	93407ed9 	sxtw	x25, w22
    4010a998:	aa1803e0 	mov	x0, x24
    4010a99c:	2a1403e1 	mov	w1, w20
    4010a9a0:	97fff845 	bl	0x40108ab4
    4010a9a4:	37f80680 	tbnz	w0, #31, 0x4010aa74
    4010a9a8:	b9400b08 	ldr	w8, [x24, #8]
    4010a9ac:	d3607d08 	lsl	x8, x8, #32
    4010a9b0:	dac00d08 	rev	x8, x8
    4010a9b4:	8b080308 	add	x8, x24, x8
    4010a9b8:	8b34411a 	add	x26, x8, w20, uxtw
    4010a9bc:	b4000093 	cbz	x19, 0x4010a9cc
    4010a9c0:	b9400748 	ldr	w8, [x26, #4]
    4010a9c4:	5ac00908 	rev	w8, w8
    4010a9c8:	b9000268 	str	w8, [x19]
    4010a9cc:	b9400b48 	ldr	w8, [x26, #8]
    4010a9d0:	d10013a2 	sub	x2, x29, #0x4
    4010a9d4:	aa1803e0 	mov	x0, x24
    4010a9d8:	5ac00901 	rev	w1, w8
    4010a9dc:	97fffd26 	bl	0x40109e74
    4010a9e0:	b4000100 	cbz	x0, 0x4010aa00
    4010a9e4:	b85fc3a8 	ldur	w8, [x29, #-4]
    4010a9e8:	6b16011f 	cmp	w8, w22
    4010a9ec:	540000a1 	b.ne	0x4010aa00  // b.any
    4010a9f0:	aa1703e1 	mov	x1, x23
    4010a9f4:	aa1903e2 	mov	x2, x25
    4010a9f8:	94001192 	bl	0x4010f040
    4010a9fc:	34000560 	cbz	w0, 0x4010aaa8
    4010aa00:	aa1803e0 	mov	x0, x24
    4010aa04:	2a1403e1 	mov	w1, w20
    4010aa08:	97fff82b 	bl	0x40108ab4
    4010aa0c:	2a0003f4 	mov	w20, w0
    4010aa10:	37f80260 	tbnz	w0, #31, 0x4010aa5c
    4010aa14:	910023e2 	add	x2, sp, #0x8
    4010aa18:	aa1803e0 	mov	x0, x24
    4010aa1c:	2a1403e1 	mov	w1, w20
    4010aa20:	97fff7cc 	bl	0x40108950
    4010aa24:	71000c1f 	cmp	w0, #0x3
    4010aa28:	540000e0 	b.eq	0x4010aa44  // b.none
    4010aa2c:	7100241f 	cmp	w0, #0x9
    4010aa30:	540001e0 	b.eq	0x4010aa6c  // b.none
    4010aa34:	b9400bf4 	ldr	w20, [sp, #8]
    4010aa38:	7100101f 	cmp	w0, #0x4
    4010aa3c:	54fffec0 	b.eq	0x4010aa14  // b.none
    4010aa40:	17ffffd1 	b	0x4010a984
    4010aa44:	36fffab4 	tbz	w20, #31, 0x4010a998
    4010aa48:	14000005 	b	0x4010aa5c
    4010aa4c:	b94007e8 	ldr	w8, [sp, #4]
    4010aa50:	7100011f 	cmp	w8, #0x0
    4010aa54:	12800149 	mov	w9, #0xfffffff5            	// #-11
    4010aa58:	1a88a134 	csel	w20, w9, w8, ge  // ge = tcont
    4010aa5c:	b4000153 	cbz	x19, 0x4010aa84
    4010aa60:	aa1f03fa 	mov	x26, xzr
    4010aa64:	b9000274 	str	w20, [x19]
    4010aa68:	14000008 	b	0x4010aa88
    4010aa6c:	b9400be8 	ldr	w8, [sp, #8]
    4010aa70:	17fffff8 	b	0x4010aa50
    4010aa74:	b4000093 	cbz	x19, 0x4010aa84
    4010aa78:	12800194 	mov	w20, #0xfffffff3            	// #-13
    4010aa7c:	b9000260 	str	w0, [x19]
    4010aa80:	17fffff8 	b	0x4010aa60
    4010aa84:	aa1f03fa 	mov	x26, xzr
    4010aa88:	aa1a03e0 	mov	x0, x26
    4010aa8c:	a9454ff4 	ldp	x20, x19, [sp, #80]
    4010aa90:	a94457f6 	ldp	x22, x21, [sp, #64]
    4010aa94:	a9435ff8 	ldp	x24, x23, [sp, #48]
    4010aa98:	a94267fa 	ldp	x26, x25, [sp, #32]
    4010aa9c:	a9417bfd 	ldp	x29, x30, [sp, #16]
    4010aaa0:	910183ff 	add	sp, sp, #0x60
    4010aaa4:	d65f03c0 	ret
    4010aaa8:	b4ffff15 	cbz	x21, 0x4010aa88
    4010aaac:	b90002b4 	str	w20, [x21]
    4010aab0:	17fffff6 	b	0x4010aa88
    4010aab4:	a9bd7bfd 	stp	x29, x30, [sp, #-48]!
    4010aab8:	a90157f6 	stp	x22, x21, [sp, #16]
    4010aabc:	a9024ff4 	stp	x20, x19, [sp, #32]
    4010aac0:	910003fd 	mov	x29, sp
    4010aac4:	aa0003f6 	mov	x22, x0
    4010aac8:	aa0203e0 	mov	x0, x2
    4010aacc:	aa0303f3 	mov	x19, x3
    4010aad0:	aa0203f4 	mov	x20, x2
    4010aad4:	2a0103f5 	mov	w21, w1
    4010aad8:	94001166 	bl	0x4010f070
    4010aadc:	b94016c8 	ldr	w8, [x22, #20]
    4010aae0:	5ac00908 	rev	w8, w8
    4010aae4:	71003d1f 	cmp	w8, #0xf
    4010aae8:	54000128 	b.hi	0x4010ab0c  // b.pmore
    4010aaec:	b4000073 	cbz	x19, 0x4010aaf8
    4010aaf0:	12800128 	mov	w8, #0xfffffff6            	// #-10
    4010aaf4:	b9000268 	str	w8, [x19]
    4010aaf8:	a9424ff4 	ldp	x20, x19, [sp, #32]
    4010aafc:	a94157f6 	ldp	x22, x21, [sp, #16]
    4010ab00:	aa1f03e0 	mov	x0, xzr
    4010ab04:	a8c37bfd 	ldp	x29, x30, [sp], #48
    4010ab08:	d65f03c0 	ret
    4010ab0c:	aa0003e3 	mov	x3, x0
    4010ab10:	aa1603e0 	mov	x0, x22
    4010ab14:	2a1503e1 	mov	w1, w21
    4010ab18:	aa1403e2 	mov	x2, x20
    4010ab1c:	aa1303e4 	mov	x4, x19
    4010ab20:	a9424ff4 	ldp	x20, x19, [sp, #32]
    4010ab24:	a94157f6 	ldp	x22, x21, [sp, #16]
    4010ab28:	aa1f03e5 	mov	x5, xzr
    4010ab2c:	a8c37bfd 	ldp	x29, x30, [sp], #48
    4010ab30:	17ffff7b 	b	0x4010a91c
    4010ab34:	a9be7bfd 	stp	x29, x30, [sp, #-32]!
    4010ab38:	f9000bf3 	str	x19, [sp, #16]
    4010ab3c:	910003fd 	mov	x29, sp
    4010ab40:	910073a5 	add	x5, x29, #0x1c
    4010ab44:	aa0003f3 	mov	x19, x0
    4010ab48:	97ffff75 	bl	0x4010a91c
    4010ab4c:	b4000200 	cbz	x0, 0x4010ab8c
    4010ab50:	b9401668 	ldr	w8, [x19, #20]
    4010ab54:	5ac00908 	rev	w8, w8
    4010ab58:	71003d1f 	cmp	w8, #0xf
    4010ab5c:	54000168 	b.hi	0x4010ab88  // b.pmore
    4010ab60:	b9401fa8 	ldr	w8, [x29, #28]
    4010ab64:	11001108 	add	w8, w8, #0x4
    4010ab68:	7200091f 	tst	w8, #0x7
    4010ab6c:	540000e0 	b.eq	0x4010ab88  // b.none
    4010ab70:	b9400408 	ldr	w8, [x0, #4]
    4010ab74:	5ac00908 	rev	w8, w8
    4010ab78:	7100211f 	cmp	w8, #0x8
    4010ab7c:	54000063 	b.cc	0x4010ab88  // b.lo, b.ul, b.last
    4010ab80:	91004000 	add	x0, x0, #0x10
    4010ab84:	14000002 	b	0x4010ab8c
    4010ab88:	91003000 	add	x0, x0, #0xc
    4010ab8c:	f9400bf3 	ldr	x19, [sp, #16]
    4010ab90:	a8c27bfd 	ldp	x29, x30, [sp], #32
    4010ab94:	d65f03c0 	ret
    4010ab98:	a9bc7bfd 	stp	x29, x30, [sp, #-64]!
    4010ab9c:	f9000bf7 	str	x23, [sp, #16]
    4010aba0:	a90257f6 	stp	x22, x21, [sp, #32]
    4010aba4:	a9034ff4 	stp	x20, x19, [sp, #48]
    4010aba8:	910003fd 	mov	x29, sp
    4010abac:	aa0303f3 	mov	x19, x3
    4010abb0:	aa0203f6 	mov	x22, x2
    4010abb4:	2a0103f4 	mov	w20, w1
    4010abb8:	aa0003f5 	mov	x21, x0
    4010abbc:	97fff7be 	bl	0x40108ab4
    4010abc0:	37f80420 	tbnz	w0, #31, 0x4010ac44
    4010abc4:	b9400aa8 	ldr	w8, [x21, #8]
    4010abc8:	d3607d08 	lsl	x8, x8, #32
    4010abcc:	dac00d08 	rev	x8, x8
    4010abd0:	8b0802a8 	add	x8, x21, x8
    4010abd4:	8b34c117 	add	x23, x8, w20, sxtw
    4010abd8:	b4000093 	cbz	x19, 0x4010abe8
    4010abdc:	b94006e8 	ldr	w8, [x23, #4]
    4010abe0:	5ac00908 	rev	w8, w8
    4010abe4:	b9000268 	str	w8, [x19]
    4010abe8:	b4000116 	cbz	x22, 0x4010ac08
    4010abec:	b9400ae8 	ldr	w8, [x23, #8]
    4010abf0:	910073a2 	add	x2, x29, #0x1c
    4010abf4:	aa1503e0 	mov	x0, x21
    4010abf8:	5ac00901 	rev	w1, w8
    4010abfc:	97fffc9e 	bl	0x40109e74
    4010ac00:	b40002c0 	cbz	x0, 0x4010ac58
    4010ac04:	f90002c0 	str	x0, [x22]
    4010ac08:	b94016a8 	ldr	w8, [x21, #20]
    4010ac0c:	5ac00908 	rev	w8, w8
    4010ac10:	71003d1f 	cmp	w8, #0xf
    4010ac14:	54000148 	b.hi	0x4010ac3c  // b.pmore
    4010ac18:	11001288 	add	w8, w20, #0x4
    4010ac1c:	7200091f 	tst	w8, #0x7
    4010ac20:	540000e0 	b.eq	0x4010ac3c  // b.none
    4010ac24:	b94006e8 	ldr	w8, [x23, #4]
    4010ac28:	5ac00908 	rev	w8, w8
    4010ac2c:	7100211f 	cmp	w8, #0x8
    4010ac30:	54000063 	b.cc	0x4010ac3c  // b.lo, b.ul, b.last
    4010ac34:	910042e0 	add	x0, x23, #0x10
    4010ac38:	1400000c 	b	0x4010ac68
    4010ac3c:	910032e0 	add	x0, x23, #0xc
    4010ac40:	1400000a 	b	0x4010ac68
    4010ac44:	b4000113 	cbz	x19, 0x4010ac64
    4010ac48:	2a0003e8 	mov	w8, w0
    4010ac4c:	aa1f03e0 	mov	x0, xzr
    4010ac50:	b9000268 	str	w8, [x19]
    4010ac54:	14000005 	b	0x4010ac68
    4010ac58:	b4000073 	cbz	x19, 0x4010ac64
    4010ac5c:	b9401fa8 	ldr	w8, [x29, #28]
    4010ac60:	b9000268 	str	w8, [x19]
    4010ac64:	aa1f03e0 	mov	x0, xzr
    4010ac68:	a9434ff4 	ldp	x20, x19, [sp, #48]
    4010ac6c:	a94257f6 	ldp	x22, x21, [sp, #32]
    4010ac70:	f9400bf7 	ldr	x23, [sp, #16]
    4010ac74:	a8c47bfd 	ldp	x29, x30, [sp], #64
    4010ac78:	d65f03c0 	ret
    4010ac7c:	d10103ff 	sub	sp, sp, #0x40
    4010ac80:	a9017bfd 	stp	x29, x30, [sp, #16]
    4010ac84:	a90257f6 	stp	x22, x21, [sp, #32]
    4010ac88:	a9034ff4 	stp	x20, x19, [sp, #48]
    4010ac8c:	910043fd 	add	x29, sp, #0x10
    4010ac90:	aa0003f3 	mov	x19, x0
    4010ac94:	aa0203e0 	mov	x0, x2
    4010ac98:	aa0303f4 	mov	x20, x3
    4010ac9c:	aa0203f5 	mov	x21, x2
    4010aca0:	2a0103f6 	mov	w22, w1
    4010aca4:	940010f3 	bl	0x4010f070
    4010aca8:	aa0003e3 	mov	x3, x0
    4010acac:	d10013a5 	sub	x5, x29, #0x4
    4010acb0:	aa1303e0 	mov	x0, x19
    4010acb4:	2a1603e1 	mov	w1, w22
    4010acb8:	aa1503e2 	mov	x2, x21
    4010acbc:	aa1403e4 	mov	x4, x20
    4010acc0:	97ffff17 	bl	0x4010a91c
    4010acc4:	b4000200 	cbz	x0, 0x4010ad04
    4010acc8:	b9401668 	ldr	w8, [x19, #20]
    4010accc:	5ac00908 	rev	w8, w8
    4010acd0:	71003d1f 	cmp	w8, #0xf
    4010acd4:	54000168 	b.hi	0x4010ad00  // b.pmore
    4010acd8:	b85fc3a8 	ldur	w8, [x29, #-4]
    4010acdc:	11001108 	add	w8, w8, #0x4
    4010ace0:	7200091f 	tst	w8, #0x7
    4010ace4:	540000e0 	b.eq	0x4010ad00  // b.none
    4010ace8:	b9400408 	ldr	w8, [x0, #4]
    4010acec:	5ac00908 	rev	w8, w8
    4010acf0:	7100211f 	cmp	w8, #0x8
    4010acf4:	54000063 	b.cc	0x4010ad00  // b.lo, b.ul, b.last
    4010acf8:	91004000 	add	x0, x0, #0x10
    4010acfc:	14000002 	b	0x4010ad04
    4010ad00:	91003000 	add	x0, x0, #0xc
    4010ad04:	a9434ff4 	ldp	x20, x19, [sp, #48]
    4010ad08:	a94257f6 	ldp	x22, x21, [sp, #32]
    4010ad0c:	a9417bfd 	ldp	x29, x30, [sp, #16]
    4010ad10:	910103ff 	add	sp, sp, #0x40
    4010ad14:	d65f03c0 	ret
    4010ad18:	a9be7bfd 	stp	x29, x30, [sp, #-32]!
    4010ad1c:	a9014ff4 	stp	x20, x19, [sp, #16]
    4010ad20:	910003fd 	mov	x29, sp
    4010ad24:	aa0003f4 	mov	x20, x0
    4010ad28:	aa0103e0 	mov	x0, x1
    4010ad2c:	aa0103f3 	mov	x19, x1
    4010ad30:	940010d0 	bl	0x4010f070
    4010ad34:	aa0003e2 	mov	x2, x0
    4010ad38:	aa1403e0 	mov	x0, x20
    4010ad3c:	aa1303e1 	mov	x1, x19
    4010ad40:	a9414ff4 	ldp	x20, x19, [sp, #16]
    4010ad44:	a8c27bfd 	ldp	x29, x30, [sp], #32
    4010ad48:	17fffe24 	b	0x4010a5d8
    4010ad4c:	a9ba7bfd 	stp	x29, x30, [sp, #-96]!
    4010ad50:	f9000bfb 	str	x27, [sp, #16]
    4010ad54:	a90267fa 	stp	x26, x25, [sp, #32]
    4010ad58:	a9035ff8 	stp	x24, x23, [sp, #48]
    4010ad5c:	a90457f6 	stp	x22, x21, [sp, #64]
    4010ad60:	a9054ff4 	stp	x20, x19, [sp, #80]
    4010ad64:	910003fd 	mov	x29, sp
    4010ad68:	2a0303f4 	mov	w20, w3
    4010ad6c:	aa0203f3 	mov	x19, x2
    4010ad70:	2a0103f5 	mov	w21, w1
    4010ad74:	aa0003f6 	mov	x22, x0
    4010ad78:	97fff624 	bl	0x40108608
    4010ad7c:	37f800a0 	tbnz	w0, #31, 0x4010ad90
    4010ad80:	71000a9f 	cmp	w20, #0x2
    4010ad84:	540000aa 	b.ge	0x4010ad98  // b.tcont
    4010ad88:	12800048 	mov	w8, #0xfffffffd            	// #-3
    4010ad8c:	14000045 	b	0x4010aea0
    4010ad90:	2a0003e8 	mov	w8, w0
    4010ad94:	14000043 	b	0x4010aea0
    4010ad98:	b9001fbf 	str	wzr, [x29, #28]
    4010ad9c:	37f80795 	tbnz	w21, #31, 0x4010ae8c
    4010ada0:	2a1f03e8 	mov	w8, wzr
    4010ada4:	2a1f03f8 	mov	w24, wzr
    4010ada8:	2a1f03f7 	mov	w23, wzr
    4010adac:	2a1f03fa 	mov	w26, wzr
    4010adb0:	d1000a79 	sub	x25, x19, #0x2
    4010adb4:	528005fb 	mov	w27, #0x2f                  	// #47
    4010adb8:	6b08031f 	cmp	w24, w8
    4010adbc:	5400010d 	b.le	0x4010addc
    4010adc0:	8b3ac329 	add	x9, x25, w26, sxtw
    4010adc4:	385ff52a 	ldrb	w10, [x9], #-1
    4010adc8:	5100075a 	sub	w26, w26, #0x1
    4010adcc:	7100bd5f 	cmp	w10, #0x2f
    4010add0:	54ffffa1 	b.ne	0x4010adc4  // b.any
    4010add4:	51000718 	sub	w24, w24, #0x1
    4010add8:	17fffff8 	b	0x4010adb8
    4010addc:	6b08031f 	cmp	w24, w8
    4010ade0:	5400028b 	b.lt	0x4010ae30  // b.tstop
    4010ade4:	910063a2 	add	x2, x29, #0x18
    4010ade8:	aa1603e0 	mov	x0, x22
    4010adec:	2a1703e1 	mov	w1, w23
    4010adf0:	97fffe36 	bl	0x4010a6c8
    4010adf4:	b9401ba8 	ldr	w8, [x29, #24]
    4010adf8:	b4000540 	cbz	x0, 0x4010aea0
    4010adfc:	0b1a0109 	add	w9, w8, w26
    4010ae00:	6b14013f 	cmp	w9, w20
    4010ae04:	5400016a 	b.ge	0x4010ae30  // b.tcont
    4010ae08:	93407f5a 	sxtw	x26, w26
    4010ae0c:	aa0003e1 	mov	x1, x0
    4010ae10:	93407d02 	sxtw	x2, w8
    4010ae14:	8b1a0260 	add	x0, x19, x26
    4010ae18:	94001049 	bl	0x4010ef3c
    4010ae1c:	b9801ba8 	ldrsw	x8, [x29, #24]
    4010ae20:	11000718 	add	w24, w24, #0x1
    4010ae24:	8b1a0108 	add	x8, x8, x26
    4010ae28:	1100051a 	add	w26, w8, #0x1
    4010ae2c:	38286a7b 	strb	w27, [x19, x8]
    4010ae30:	6b1502ff 	cmp	w23, w21
    4010ae34:	54000160 	b.eq	0x4010ae60  // b.none
    4010ae38:	910073a2 	add	x2, x29, #0x1c
    4010ae3c:	aa1603e0 	mov	x0, x22
    4010ae40:	2a1703e1 	mov	w1, w23
    4010ae44:	97fff72d 	bl	0x40108af8
    4010ae48:	2a0003f7 	mov	w23, w0
    4010ae4c:	37f801c0 	tbnz	w0, #31, 0x4010ae84
    4010ae50:	6b1502ff 	cmp	w23, w21
    4010ae54:	5400018c 	b.gt	0x4010ae84
    4010ae58:	b9401fa8 	ldr	w8, [x29, #28]
    4010ae5c:	17ffffd7 	b	0x4010adb8
    4010ae60:	b9401fa8 	ldr	w8, [x29, #28]
    4010ae64:	6b08031f 	cmp	w24, w8
    4010ae68:	54fff90d 	b.le	0x4010ad88
    4010ae6c:	7100075f 	cmp	w26, #0x1
    4010ae70:	1a9fd7e9 	cset	w9, gt
    4010ae74:	4b090349 	sub	w9, w26, w9
    4010ae78:	2a1f03e8 	mov	w8, wzr
    4010ae7c:	3829ca7f 	strb	wzr, [x19, w9, sxtw]
    4010ae80:	14000008 	b	0x4010aea0
    4010ae84:	31000aff 	cmn	w23, #0x2
    4010ae88:	5400006d 	b.le	0x4010ae94
    4010ae8c:	12800068 	mov	w8, #0xfffffffc            	// #-4
    4010ae90:	14000004 	b	0x4010aea0
    4010ae94:	310012ff 	cmn	w23, #0x4
    4010ae98:	12800148 	mov	w8, #0xfffffff5            	// #-11
    4010ae9c:	1a970108 	csel	w8, w8, w23, eq  // eq = none
    4010aea0:	a9454ff4 	ldp	x20, x19, [sp, #80]
    4010aea4:	a94457f6 	ldp	x22, x21, [sp, #64]
    4010aea8:	a9435ff8 	ldp	x24, x23, [sp, #48]
    4010aeac:	a94267fa 	ldp	x26, x25, [sp, #32]
    4010aeb0:	f9400bfb 	ldr	x27, [sp, #16]
    4010aeb4:	2a0803e0 	mov	w0, w8
    4010aeb8:	a8c67bfd 	ldp	x29, x30, [sp], #96
    4010aebc:	d65f03c0 	ret
    4010aec0:	a9bc7bfd 	stp	x29, x30, [sp, #-64]!
    4010aec4:	f9000bf7 	str	x23, [sp, #16]
    4010aec8:	a90257f6 	stp	x22, x21, [sp, #32]
    4010aecc:	a9034ff4 	stp	x20, x19, [sp, #48]
    4010aed0:	910003fd 	mov	x29, sp
    4010aed4:	aa0303f4 	mov	x20, x3
    4010aed8:	2a0203f3 	mov	w19, w2
    4010aedc:	2a0103f5 	mov	w21, w1
    4010aee0:	aa0003f6 	mov	x22, x0
    4010aee4:	97fff5c9 	bl	0x40108608
    4010aee8:	37f80440 	tbnz	w0, #31, 0x4010af70
    4010aeec:	37f80333 	tbnz	w19, #31, 0x4010af50
    4010aef0:	b9001fbf 	str	wzr, [x29, #28]
    4010aef4:	37f803d5 	tbnz	w21, #31, 0x4010af6c
    4010aef8:	7100027f 	cmp	w19, #0x0
    4010aefc:	12800188 	mov	w8, #0xfffffff3            	// #-13
    4010af00:	1a8803f7 	csel	w23, wzr, w8, eq  // eq = none
    4010af04:	340002b5 	cbz	w21, 0x4010af58
    4010af08:	2a1f03e1 	mov	w1, wzr
    4010af0c:	910073a2 	add	x2, x29, #0x1c
    4010af10:	aa1603e0 	mov	x0, x22
    4010af14:	97fff6f9 	bl	0x40108af8
    4010af18:	2a0003e1 	mov	w1, w0
    4010af1c:	37f80240 	tbnz	w0, #31, 0x4010af64
    4010af20:	6b15003f 	cmp	w1, w21
    4010af24:	5400020c 	b.gt	0x4010af64
    4010af28:	b9401fa8 	ldr	w8, [x29, #28]
    4010af2c:	6b13011f 	cmp	w8, w19
    4010af30:	1a970037 	csel	w23, w1, w23, eq  // eq = none
    4010af34:	6b15003f 	cmp	w1, w21
    4010af38:	54fffea1 	b.ne	0x4010af0c  // b.any
    4010af3c:	b4000054 	cbz	x20, 0x4010af44
    4010af40:	b9000288 	str	w8, [x20]
    4010af44:	6b13011f 	cmp	w8, w19
    4010af48:	5a9fa2e0 	csinv	w0, w23, wzr, ge  // ge = tcont
    4010af4c:	14000009 	b	0x4010af70
    4010af50:	12800000 	mov	w0, #0xffffffff            	// #-1
    4010af54:	14000007 	b	0x4010af70
    4010af58:	2a1f03e8 	mov	w8, wzr
    4010af5c:	b5ffff34 	cbnz	x20, 0x4010af40
    4010af60:	17fffff9 	b	0x4010af44
    4010af64:	3100083f 	cmn	w1, #0x2
    4010af68:	540000ed 	b.le	0x4010af84
    4010af6c:	12800060 	mov	w0, #0xfffffffc            	// #-4
    4010af70:	a9434ff4 	ldp	x20, x19, [sp, #48]
    4010af74:	a94257f6 	ldp	x22, x21, [sp, #32]
    4010af78:	f9400bf7 	ldr	x23, [sp, #16]
    4010af7c:	a8c47bfd 	ldp	x29, x30, [sp], #64
    4010af80:	d65f03c0 	ret
    4010af84:	3100103f 	cmn	w1, #0x4
    4010af88:	12800148 	mov	w8, #0xfffffff5            	// #-11
    4010af8c:	1a810100 	csel	w0, w8, w1, eq  // eq = none
    4010af90:	17fffff8 	b	0x4010af70
    4010af94:	a9bd7bfd 	stp	x29, x30, [sp, #-48]!
    4010af98:	f9000bf5 	str	x21, [sp, #16]
    4010af9c:	a9024ff4 	stp	x20, x19, [sp, #32]
    4010afa0:	910003fd 	mov	x29, sp
    4010afa4:	2a0103f4 	mov	w20, w1
    4010afa8:	aa0003f5 	mov	x21, x0
    4010afac:	97fff597 	bl	0x40108608
    4010afb0:	37f802a0 	tbnz	w0, #31, 0x4010b004
    4010afb4:	b9001fbf 	str	wzr, [x29, #28]
    4010afb8:	37f80334 	tbnz	w20, #31, 0x4010b01c
    4010afbc:	34000294 	cbz	w20, 0x4010b00c
    4010afc0:	2a1f03f3 	mov	w19, wzr
    4010afc4:	2a1f03e1 	mov	w1, wzr
    4010afc8:	910073a2 	add	x2, x29, #0x1c
    4010afcc:	aa1503e0 	mov	x0, x21
    4010afd0:	97fff6ca 	bl	0x40108af8
    4010afd4:	2a0003e1 	mov	w1, w0
    4010afd8:	37f801e0 	tbnz	w0, #31, 0x4010b014
    4010afdc:	6b14003f 	cmp	w1, w20
    4010afe0:	540001ac 	b.gt	0x4010b014
    4010afe4:	b9401fa0 	ldr	w0, [x29, #28]
    4010afe8:	7100001f 	cmp	w0, #0x0
    4010afec:	1a930033 	csel	w19, w1, w19, eq  // eq = none
    4010aff0:	6b14003f 	cmp	w1, w20
    4010aff4:	54fffea1 	b.ne	0x4010afc8  // b.any
    4010aff8:	37f802a0 	tbnz	w0, #31, 0x4010b04c
    4010affc:	35000133 	cbnz	w19, 0x4010b020
    4010b000:	1400000b 	b	0x4010b02c
    4010b004:	2a0003f3 	mov	w19, w0
    4010b008:	14000006 	b	0x4010b020
    4010b00c:	2a1f03e0 	mov	w0, wzr
    4010b010:	14000007 	b	0x4010b02c
    4010b014:	3100083f 	cmn	w1, #0x2
    4010b018:	5400012d 	b.le	0x4010b03c
    4010b01c:	12800073 	mov	w19, #0xfffffffc            	// #-4
    4010b020:	7100027f 	cmp	w19, #0x0
    4010b024:	12800188 	mov	w8, #0xfffffff3            	// #-13
    4010b028:	1a88b260 	csel	w0, w19, w8, lt  // lt = tstop
    4010b02c:	a9424ff4 	ldp	x20, x19, [sp, #32]
    4010b030:	f9400bf5 	ldr	x21, [sp, #16]
    4010b034:	a8c37bfd 	ldp	x29, x30, [sp], #48
    4010b038:	d65f03c0 	ret
    4010b03c:	3100103f 	cmn	w1, #0x4
    4010b040:	12800148 	mov	w8, #0xfffffff5            	// #-11
    4010b044:	1a810113 	csel	w19, w8, w1, eq  // eq = none
    4010b048:	17fffff6 	b	0x4010b020
    4010b04c:	12800013 	mov	w19, #0xffffffff            	// #-1
    4010b050:	17fffff4 	b	0x4010b020
    4010b054:	d10103ff 	sub	sp, sp, #0x40
    4010b058:	a9017bfd 	stp	x29, x30, [sp, #16]
    4010b05c:	a90257f6 	stp	x22, x21, [sp, #32]
    4010b060:	a9034ff4 	stp	x20, x19, [sp, #48]
    4010b064:	910043fd 	add	x29, sp, #0x10
    4010b068:	2a0103f3 	mov	w19, w1
    4010b06c:	aa0003f4 	mov	x20, x0
    4010b070:	97fff566 	bl	0x40108608
    4010b074:	37f80600 	tbnz	w0, #31, 0x4010b134
    4010b078:	b9000bff 	str	wzr, [sp, #8]
    4010b07c:	37f80653 	tbnz	w19, #31, 0x4010b144
    4010b080:	34000293 	cbz	w19, 0x4010b0d0
    4010b084:	2a1f03f5 	mov	w21, wzr
    4010b088:	2a1f03e1 	mov	w1, wzr
    4010b08c:	910023e2 	add	x2, sp, #0x8
    4010b090:	aa1403e0 	mov	x0, x20
    4010b094:	97fff699 	bl	0x40108af8
    4010b098:	2a0003e1 	mov	w1, w0
    4010b09c:	37f80500 	tbnz	w0, #31, 0x4010b13c
    4010b0a0:	6b13003f 	cmp	w1, w19
    4010b0a4:	540004cc 	b.gt	0x4010b13c
    4010b0a8:	b9400bf6 	ldr	w22, [sp, #8]
    4010b0ac:	710002df 	cmp	w22, #0x0
    4010b0b0:	1a950035 	csel	w21, w1, w21, eq  // eq = none
    4010b0b4:	6b13003f 	cmp	w1, w19
    4010b0b8:	54fffea1 	b.ne	0x4010b08c  // b.any
    4010b0bc:	37f80496 	tbnz	w22, #31, 0x4010b14c
    4010b0c0:	340000b5 	cbz	w21, 0x4010b0d4
    4010b0c4:	37f80575 	tbnz	w21, #31, 0x4010b170
    4010b0c8:	12800195 	mov	w21, #0xfffffff3            	// #-13
    4010b0cc:	14000029 	b	0x4010b170
    4010b0d0:	2a1f03f6 	mov	w22, wzr
    4010b0d4:	aa1403e0 	mov	x0, x20
    4010b0d8:	97fff54c 	bl	0x40108608
    4010b0dc:	37f802c0 	tbnz	w0, #31, 0x4010b134
    4010b0e0:	710006df 	cmp	w22, #0x1
    4010b0e4:	5400034b 	b.lt	0x4010b14c  // b.tstop
    4010b0e8:	710006d5 	subs	w21, w22, #0x1
    4010b0ec:	12800188 	mov	w8, #0xfffffff3            	// #-13
    4010b0f0:	1a8803f6 	csel	w22, wzr, w8, eq  // eq = none
    4010b0f4:	b81fc3bf 	stur	wzr, [x29, #-4]
    4010b0f8:	34000373 	cbz	w19, 0x4010b164
    4010b0fc:	2a1f03e1 	mov	w1, wzr
    4010b100:	d10013a2 	sub	x2, x29, #0x4
    4010b104:	aa1403e0 	mov	x0, x20
    4010b108:	97fff67c 	bl	0x40108af8
    4010b10c:	2a0003e1 	mov	w1, w0
    4010b110:	37f80160 	tbnz	w0, #31, 0x4010b13c
    4010b114:	6b13003f 	cmp	w1, w19
    4010b118:	5400012c 	b.gt	0x4010b13c
    4010b11c:	b85fc3a8 	ldur	w8, [x29, #-4]
    4010b120:	6b15011f 	cmp	w8, w21
    4010b124:	1a960036 	csel	w22, w1, w22, eq  // eq = none
    4010b128:	6b13003f 	cmp	w1, w19
    4010b12c:	54fffea1 	b.ne	0x4010b100  // b.any
    4010b130:	1400000e 	b	0x4010b168
    4010b134:	2a0003f5 	mov	w21, w0
    4010b138:	1400000e 	b	0x4010b170
    4010b13c:	3100083f 	cmn	w1, #0x2
    4010b140:	540000ad 	b.le	0x4010b154
    4010b144:	12800075 	mov	w21, #0xfffffffc            	// #-4
    4010b148:	1400000a 	b	0x4010b170
    4010b14c:	12800015 	mov	w21, #0xffffffff            	// #-1
    4010b150:	14000008 	b	0x4010b170
    4010b154:	3100103f 	cmn	w1, #0x4
    4010b158:	12800148 	mov	w8, #0xfffffff5            	// #-11
    4010b15c:	1a810115 	csel	w21, w8, w1, eq  // eq = none
    4010b160:	14000004 	b	0x4010b170
    4010b164:	2a1f03e8 	mov	w8, wzr
    4010b168:	6b15011f 	cmp	w8, w21
    4010b16c:	5a9fa2d5 	csinv	w21, w22, wzr, ge  // ge = tcont
    4010b170:	2a1503e0 	mov	w0, w21
    4010b174:	a9434ff4 	ldp	x20, x19, [sp, #48]
    4010b178:	a94257f6 	ldp	x22, x21, [sp, #32]
    4010b17c:	a9417bfd 	ldp	x29, x30, [sp, #16]
    4010b180:	910103ff 	add	sp, sp, #0x40
    4010b184:	d65f03c0 	ret
    4010b188:	d10143ff 	sub	sp, sp, #0x50
    4010b18c:	a9017bfd 	stp	x29, x30, [sp, #16]
    4010b190:	a9025ff8 	stp	x24, x23, [sp, #32]
    4010b194:	a90357f6 	stp	x22, x21, [sp, #48]
    4010b198:	a9044ff4 	stp	x20, x19, [sp, #64]
    4010b19c:	910043fd 	add	x29, sp, #0x10
    4010b1a0:	2a0403f3 	mov	w19, w4
    4010b1a4:	aa0303f4 	mov	x20, x3
    4010b1a8:	aa0203f5 	mov	x21, x2
    4010b1ac:	2a0103f8 	mov	w24, w1
    4010b1b0:	aa0003f6 	mov	x22, x0
    4010b1b4:	97fff515 	bl	0x40108608
    4010b1b8:	37f80600 	tbnz	w0, #31, 0x4010b278
    4010b1bc:	aa1603e0 	mov	x0, x22
    4010b1c0:	2a1803e1 	mov	w1, w24
    4010b1c4:	aa1f03e2 	mov	x2, xzr
    4010b1c8:	97fff64c 	bl	0x40108af8
    4010b1cc:	2a0003f7 	mov	w23, w0
    4010b1d0:	37f80560 	tbnz	w0, #31, 0x4010b27c
    4010b1d4:	93407e78 	sxtw	x24, w19
    4010b1d8:	14000007 	b	0x4010b1f4
    4010b1dc:	aa1603e0 	mov	x0, x22
    4010b1e0:	2a1703e1 	mov	w1, w23
    4010b1e4:	aa1f03e2 	mov	x2, xzr
    4010b1e8:	97fff644 	bl	0x40108af8
    4010b1ec:	2a0003f7 	mov	w23, w0
    4010b1f0:	37f80460 	tbnz	w0, #31, 0x4010b27c
    4010b1f4:	aa1503e0 	mov	x0, x21
    4010b1f8:	94000f9e 	bl	0x4010f070
    4010b1fc:	aa0003e3 	mov	x3, x0
    4010b200:	910023e4 	add	x4, sp, #0x8
    4010b204:	d10013a5 	sub	x5, x29, #0x4
    4010b208:	aa1603e0 	mov	x0, x22
    4010b20c:	2a1703e1 	mov	w1, w23
    4010b210:	aa1503e2 	mov	x2, x21
    4010b214:	97fffdc2 	bl	0x4010a91c
    4010b218:	b4fffe20 	cbz	x0, 0x4010b1dc
    4010b21c:	b94016c8 	ldr	w8, [x22, #20]
    4010b220:	5ac00908 	rev	w8, w8
    4010b224:	71003d1f 	cmp	w8, #0xf
    4010b228:	54000168 	b.hi	0x4010b254  // b.pmore
    4010b22c:	b85fc3a8 	ldur	w8, [x29, #-4]
    4010b230:	11001108 	add	w8, w8, #0x4
    4010b234:	7200091f 	tst	w8, #0x7
    4010b238:	540000e0 	b.eq	0x4010b254  // b.none
    4010b23c:	b9400408 	ldr	w8, [x0, #4]
    4010b240:	5ac00908 	rev	w8, w8
    4010b244:	7100211f 	cmp	w8, #0x8
    4010b248:	54000063 	b.cc	0x4010b254  // b.lo, b.ul, b.last
    4010b24c:	91004000 	add	x0, x0, #0x10
    4010b250:	14000002 	b	0x4010b258
    4010b254:	91003000 	add	x0, x0, #0xc
    4010b258:	b9400be8 	ldr	w8, [sp, #8]
    4010b25c:	6b13011f 	cmp	w8, w19
    4010b260:	54fffbe1 	b.ne	0x4010b1dc  // b.any
    4010b264:	aa1403e1 	mov	x1, x20
    4010b268:	aa1803e2 	mov	x2, x24
    4010b26c:	94000f75 	bl	0x4010f040
    4010b270:	35fffb60 	cbnz	w0, 0x4010b1dc
    4010b274:	14000002 	b	0x4010b27c
    4010b278:	2a0003f7 	mov	w23, w0
    4010b27c:	2a1703e0 	mov	w0, w23
    4010b280:	a9444ff4 	ldp	x20, x19, [sp, #64]
    4010b284:	a94357f6 	ldp	x22, x21, [sp, #48]
    4010b288:	a9425ff8 	ldp	x24, x23, [sp, #32]
    4010b28c:	a9417bfd 	ldp	x29, x30, [sp, #16]
    4010b290:	910143ff 	add	sp, sp, #0x50
    4010b294:	d65f03c0 	ret
    4010b298:	a9bd7bfd 	stp	x29, x30, [sp, #-48]!
    4010b29c:	f9000bf5 	str	x21, [sp, #16]
    4010b2a0:	a9024ff4 	stp	x20, x19, [sp, #32]
    4010b2a4:	910003fd 	mov	x29, sp
    4010b2a8:	11000428 	add	w8, w1, #0x1
    4010b2ac:	7100091f 	cmp	w8, #0x2
    4010b2b0:	54000062 	b.cs	0x4010b2bc  // b.hs, b.nlast
    4010b2b4:	128000b5 	mov	w21, #0xfffffffa            	// #-6
    4010b2b8:	14000014 	b	0x4010b308
    4010b2bc:	2a0103f3 	mov	w19, w1
    4010b2c0:	aa0003f4 	mov	x20, x0
    4010b2c4:	97fff4d1 	bl	0x40108608
    4010b2c8:	37f801e0 	tbnz	w0, #31, 0x4010b304
    4010b2cc:	12800001 	mov	w1, #0xffffffff            	// #-1
    4010b2d0:	aa1403e0 	mov	x0, x20
    4010b2d4:	aa1f03e2 	mov	x2, xzr
    4010b2d8:	97fff608 	bl	0x40108af8
    4010b2dc:	2a0003f5 	mov	w21, w0
    4010b2e0:	37f80140 	tbnz	w0, #31, 0x4010b308
    4010b2e4:	aa1403e0 	mov	x0, x20
    4010b2e8:	2a1503e1 	mov	w1, w21
    4010b2ec:	97fffb48 	bl	0x4010a00c
    4010b2f0:	6b13001f 	cmp	w0, w19
    4010b2f4:	540000a0 	b.eq	0x4010b308  // b.none
    4010b2f8:	aa1403e0 	mov	x0, x20
    4010b2fc:	2a1503e1 	mov	w1, w21
    4010b300:	17fffff5 	b	0x4010b2d4
    4010b304:	2a0003f5 	mov	w21, w0
    4010b308:	2a1503e0 	mov	w0, w21
    4010b30c:	a9424ff4 	ldp	x20, x19, [sp, #32]
    4010b310:	f9400bf5 	ldr	x21, [sp, #16]
    4010b314:	a8c37bfd 	ldp	x29, x30, [sp], #48
    4010b318:	d65f03c0 	ret
    4010b31c:	a9bc7bfd 	stp	x29, x30, [sp, #-64]!
    4010b320:	f9000bf7 	str	x23, [sp, #16]
    4010b324:	a90257f6 	stp	x22, x21, [sp, #32]
    4010b328:	a9034ff4 	stp	x20, x19, [sp, #48]
    4010b32c:	910003fd 	mov	x29, sp
    4010b330:	aa0003f6 	mov	x22, x0
    4010b334:	aa0203e0 	mov	x0, x2
    4010b338:	aa0203f3 	mov	x19, x2
    4010b33c:	2a0103f4 	mov	w20, w1
    4010b340:	94000f4c 	bl	0x4010f070
    4010b344:	aa0003f5 	mov	x21, x0
    4010b348:	6b1402bf 	cmp	w21, w20
    4010b34c:	5400026c 	b.gt	0x4010b398
    4010b350:	110006a8 	add	w8, w21, #0x1
    4010b354:	93407d17 	sxtw	x23, w8
    4010b358:	aa1303e0 	mov	x0, x19
    4010b35c:	aa1603e1 	mov	x1, x22
    4010b360:	aa1703e2 	mov	x2, x23
    4010b364:	94000f37 	bl	0x4010f040
    4010b368:	340001c0 	cbz	w0, 0x4010b3a0
    4010b36c:	93407e82 	sxtw	x2, w20
    4010b370:	aa1603e0 	mov	x0, x22
    4010b374:	2a1f03e1 	mov	w1, wzr
    4010b378:	94000f0d 	bl	0x4010efac
    4010b37c:	b4000140 	cbz	x0, 0x4010b3a4
    4010b380:	2a2003e8 	mvn	w8, w0
    4010b384:	0b160108 	add	w8, w8, w22
    4010b388:	0b080294 	add	w20, w20, w8
    4010b38c:	6b15029f 	cmp	w20, w21
    4010b390:	91000416 	add	x22, x0, #0x1
    4010b394:	54fffe2a 	b.ge	0x4010b358  // b.tcont
    4010b398:	2a1f03e0 	mov	w0, wzr
    4010b39c:	14000002 	b	0x4010b3a4
    4010b3a0:	52800020 	mov	w0, #0x1                   	// #1
    4010b3a4:	a9434ff4 	ldp	x20, x19, [sp, #48]
    4010b3a8:	a94257f6 	ldp	x22, x21, [sp, #32]
    4010b3ac:	f9400bf7 	ldr	x23, [sp, #16]
    4010b3b0:	a8c47bfd 	ldp	x29, x30, [sp], #64
    4010b3b4:	d65f03c0 	ret
    4010b3b8:	a9bd7bfd 	stp	x29, x30, [sp, #-48]!
    4010b3bc:	f9000bf5 	str	x21, [sp, #16]
    4010b3c0:	a9024ff4 	stp	x20, x19, [sp, #32]
    4010b3c4:	910003fd 	mov	x29, sp
    4010b3c8:	aa0003f3 	mov	x19, x0
    4010b3cc:	aa0203e0 	mov	x0, x2
    4010b3d0:	aa0203f4 	mov	x20, x2
    4010b3d4:	2a0103f5 	mov	w21, w1
    4010b3d8:	94000f26 	bl	0x4010f070
    4010b3dc:	aa0003e3 	mov	x3, x0
    4010b3e0:	910063a4 	add	x4, x29, #0x18
    4010b3e4:	910073a5 	add	x5, x29, #0x1c
    4010b3e8:	aa1303e0 	mov	x0, x19
    4010b3ec:	2a1503e1 	mov	w1, w21
    4010b3f0:	aa1403e2 	mov	x2, x20
    4010b3f4:	97fffd4a 	bl	0x4010a91c
    4010b3f8:	b4000400 	cbz	x0, 0x4010b478
    4010b3fc:	b9401668 	ldr	w8, [x19, #20]
    4010b400:	5ac00908 	rev	w8, w8
    4010b404:	71003d1f 	cmp	w8, #0xf
    4010b408:	54000168 	b.hi	0x4010b434  // b.pmore
    4010b40c:	b9401fa8 	ldr	w8, [x29, #28]
    4010b410:	11001108 	add	w8, w8, #0x4
    4010b414:	7200091f 	tst	w8, #0x7
    4010b418:	540000e0 	b.eq	0x4010b434  // b.none
    4010b41c:	b9400408 	ldr	w8, [x0, #4]
    4010b420:	5ac00908 	rev	w8, w8
    4010b424:	7100211f 	cmp	w8, #0x8
    4010b428:	54000063 	b.cc	0x4010b434  // b.lo, b.ul, b.last
    4010b42c:	91004013 	add	x19, x0, #0x10
    4010b430:	14000002 	b	0x4010b438
    4010b434:	91003013 	add	x19, x0, #0xc
    4010b438:	b9801ba8 	ldrsw	x8, [x29, #24]
    4010b43c:	7100051f 	cmp	w8, #0x1
    4010b440:	5400020b 	b.lt	0x4010b480  // b.tstop
    4010b444:	2a1f03f4 	mov	w20, wzr
    4010b448:	8b080275 	add	x21, x19, x8
    4010b44c:	cb1302a1 	sub	x1, x21, x19
    4010b450:	aa1303e0 	mov	x0, x19
    4010b454:	94000f14 	bl	0x4010f0a4
    4010b458:	11000408 	add	w8, w0, #0x1
    4010b45c:	8b28c273 	add	x19, x19, w8, sxtw
    4010b460:	eb15027f 	cmp	x19, x21
    4010b464:	b9001ba8 	str	w8, [x29, #24]
    4010b468:	54000108 	b.hi	0x4010b488  // b.pmore
    4010b46c:	11000694 	add	w20, w20, #0x1
    4010b470:	54fffee3 	b.cc	0x4010b44c  // b.lo, b.ul, b.last
    4010b474:	14000006 	b	0x4010b48c
    4010b478:	b9401bb4 	ldr	w20, [x29, #24]
    4010b47c:	14000004 	b	0x4010b48c
    4010b480:	2a1f03f4 	mov	w20, wzr
    4010b484:	14000002 	b	0x4010b48c
    4010b488:	128001d4 	mov	w20, #0xfffffff1            	// #-15
    4010b48c:	2a1403e0 	mov	w0, w20
    4010b490:	a9424ff4 	ldp	x20, x19, [sp, #32]
    4010b494:	f9400bf5 	ldr	x21, [sp, #16]
    4010b498:	a8c37bfd 	ldp	x29, x30, [sp], #48
    4010b49c:	d65f03c0 	ret
    4010b4a0:	a9bc7bfd 	stp	x29, x30, [sp, #-64]!
    4010b4a4:	f9000bf7 	str	x23, [sp, #16]
    4010b4a8:	a90257f6 	stp	x22, x21, [sp, #32]
    4010b4ac:	a9034ff4 	stp	x20, x19, [sp, #48]
    4010b4b0:	910003fd 	mov	x29, sp
    4010b4b4:	aa0003f4 	mov	x20, x0
    4010b4b8:	aa0203e0 	mov	x0, x2
    4010b4bc:	aa0303f3 	mov	x19, x3
    4010b4c0:	aa0203f5 	mov	x21, x2
    4010b4c4:	2a0103f6 	mov	w22, w1
    4010b4c8:	94000eea 	bl	0x4010f070
    4010b4cc:	aa0003e3 	mov	x3, x0
    4010b4d0:	910063a4 	add	x4, x29, #0x18
    4010b4d4:	910073a5 	add	x5, x29, #0x1c
    4010b4d8:	aa1403e0 	mov	x0, x20
    4010b4dc:	2a1603e1 	mov	w1, w22
    4010b4e0:	aa1503e2 	mov	x2, x21
    4010b4e4:	97fffd0e 	bl	0x4010a91c
    4010b4e8:	b4000600 	cbz	x0, 0x4010b5a8
    4010b4ec:	b9401688 	ldr	w8, [x20, #20]
    4010b4f0:	5ac00908 	rev	w8, w8
    4010b4f4:	71003d1f 	cmp	w8, #0xf
    4010b4f8:	54000168 	b.hi	0x4010b524  // b.pmore
    4010b4fc:	b9401fa8 	ldr	w8, [x29, #28]
    4010b500:	11001108 	add	w8, w8, #0x4
    4010b504:	7200091f 	tst	w8, #0x7
    4010b508:	540000e0 	b.eq	0x4010b524  // b.none
    4010b50c:	b9400408 	ldr	w8, [x0, #4]
    4010b510:	5ac00908 	rev	w8, w8
    4010b514:	7100211f 	cmp	w8, #0x8
    4010b518:	54000063 	b.cc	0x4010b524  // b.lo, b.ul, b.last
    4010b51c:	91004015 	add	x21, x0, #0x10
    4010b520:	14000002 	b	0x4010b528
    4010b524:	91003015 	add	x21, x0, #0xc
    4010b528:	aa1303e0 	mov	x0, x19
    4010b52c:	94000ed1 	bl	0x4010f070
    4010b530:	b9801ba8 	ldrsw	x8, [x29, #24]
    4010b534:	7100051f 	cmp	w8, #0x1
    4010b538:	5400034b 	b.lt	0x4010b5a0  // b.tstop
    4010b53c:	aa0003f6 	mov	x22, x0
    4010b540:	2a1f03f4 	mov	w20, wzr
    4010b544:	8b0802b7 	add	x23, x21, x8
    4010b548:	14000006 	b	0x4010b560
    4010b54c:	b9801ba2 	ldrsw	x2, [x29, #24]
    4010b550:	8b0202b5 	add	x21, x21, x2
    4010b554:	eb1702bf 	cmp	x21, x23
    4010b558:	11000694 	add	w20, w20, #0x1
    4010b55c:	54000222 	b.cs	0x4010b5a0  // b.hs, b.nlast
    4010b560:	cb1502e1 	sub	x1, x23, x21
    4010b564:	aa1503e0 	mov	x0, x21
    4010b568:	94000ecf 	bl	0x4010f0a4
    4010b56c:	11000408 	add	w8, w0, #0x1
    4010b570:	93407d02 	sxtw	x2, w8
    4010b574:	8b0202a9 	add	x9, x21, x2
    4010b578:	eb17013f 	cmp	x9, x23
    4010b57c:	b9001ba8 	str	w8, [x29, #24]
    4010b580:	54000188 	b.hi	0x4010b5b0  // b.pmore
    4010b584:	6b16001f 	cmp	w0, w22
    4010b588:	54fffe41 	b.ne	0x4010b550  // b.any
    4010b58c:	aa1503e0 	mov	x0, x21
    4010b590:	aa1303e1 	mov	x1, x19
    4010b594:	94000eab 	bl	0x4010f040
    4010b598:	35fffda0 	cbnz	w0, 0x4010b54c
    4010b59c:	14000006 	b	0x4010b5b4
    4010b5a0:	12800014 	mov	w20, #0xffffffff            	// #-1
    4010b5a4:	14000004 	b	0x4010b5b4
    4010b5a8:	b9401bb4 	ldr	w20, [x29, #24]
    4010b5ac:	14000002 	b	0x4010b5b4
    4010b5b0:	128001d4 	mov	w20, #0xfffffff1            	// #-15
    4010b5b4:	2a1403e0 	mov	w0, w20
    4010b5b8:	a9434ff4 	ldp	x20, x19, [sp, #48]
    4010b5bc:	a94257f6 	ldp	x22, x21, [sp, #32]
    4010b5c0:	f9400bf7 	ldr	x23, [sp, #16]
    4010b5c4:	a8c47bfd 	ldp	x29, x30, [sp], #64
    4010b5c8:	d65f03c0 	ret
    4010b5cc:	a9bc7bfd 	stp	x29, x30, [sp, #-64]!
    4010b5d0:	f9000bf7 	str	x23, [sp, #16]
    4010b5d4:	a90257f6 	stp	x22, x21, [sp, #32]
    4010b5d8:	a9034ff4 	stp	x20, x19, [sp, #48]
    4010b5dc:	910003fd 	mov	x29, sp
    4010b5e0:	aa0003f4 	mov	x20, x0
    4010b5e4:	aa0203e0 	mov	x0, x2
    4010b5e8:	aa0403f3 	mov	x19, x4
    4010b5ec:	2a0303f5 	mov	w21, w3
    4010b5f0:	aa0203f6 	mov	x22, x2
    4010b5f4:	2a0103f7 	mov	w23, w1
    4010b5f8:	94000e9e 	bl	0x4010f070
    4010b5fc:	aa0003e3 	mov	x3, x0
    4010b600:	910063a4 	add	x4, x29, #0x18
    4010b604:	910073a5 	add	x5, x29, #0x1c
    4010b608:	aa1403e0 	mov	x0, x20
    4010b60c:	2a1703e1 	mov	w1, w23
    4010b610:	aa1603e2 	mov	x2, x22
    4010b614:	97fffcc2 	bl	0x4010a91c
    4010b618:	b40004c0 	cbz	x0, 0x4010b6b0
    4010b61c:	b9401688 	ldr	w8, [x20, #20]
    4010b620:	5ac00908 	rev	w8, w8
    4010b624:	71003d1f 	cmp	w8, #0xf
    4010b628:	54000168 	b.hi	0x4010b654  // b.pmore
    4010b62c:	b9401fa8 	ldr	w8, [x29, #28]
    4010b630:	11001108 	add	w8, w8, #0x4
    4010b634:	7200091f 	tst	w8, #0x7
    4010b638:	540000e0 	b.eq	0x4010b654  // b.none
    4010b63c:	b9400408 	ldr	w8, [x0, #4]
    4010b640:	5ac00908 	rev	w8, w8
    4010b644:	7100211f 	cmp	w8, #0x8
    4010b648:	54000063 	b.cc	0x4010b654  // b.lo, b.ul, b.last
    4010b64c:	91004014 	add	x20, x0, #0x10
    4010b650:	14000002 	b	0x4010b658
    4010b654:	91003014 	add	x20, x0, #0xc
    4010b658:	b9801ba8 	ldrsw	x8, [x29, #24]
    4010b65c:	7100051f 	cmp	w8, #0x1
    4010b660:	5400020b 	b.lt	0x4010b6a0  // b.tstop
    4010b664:	8b080296 	add	x22, x20, x8
    4010b668:	110006b5 	add	w21, w21, #0x1
    4010b66c:	cb1402c1 	sub	x1, x22, x20
    4010b670:	aa1403e0 	mov	x0, x20
    4010b674:	94000e8c 	bl	0x4010f0a4
    4010b678:	11000409 	add	w9, w0, #0x1
    4010b67c:	8b29c288 	add	x8, x20, w9, sxtw
    4010b680:	eb16011f 	cmp	x8, x22
    4010b684:	b9001ba9 	str	w9, [x29, #24]
    4010b688:	540001c8 	b.hi	0x4010b6c0  // b.pmore
    4010b68c:	710006b5 	subs	w21, w21, #0x1
    4010b690:	540002c0 	b.eq	0x4010b6e8  // b.none
    4010b694:	eb16011f 	cmp	x8, x22
    4010b698:	aa0803f4 	mov	x20, x8
    4010b69c:	54fffe83 	b.cc	0x4010b66c  // b.lo, b.ul, b.last
    4010b6a0:	aa1f03f4 	mov	x20, xzr
    4010b6a4:	b4000173 	cbz	x19, 0x4010b6d0
    4010b6a8:	12800008 	mov	w8, #0xffffffff            	// #-1
    4010b6ac:	14000008 	b	0x4010b6cc
    4010b6b0:	aa1f03f4 	mov	x20, xzr
    4010b6b4:	b40000f3 	cbz	x19, 0x4010b6d0
    4010b6b8:	b9401ba8 	ldr	w8, [x29, #24]
    4010b6bc:	14000004 	b	0x4010b6cc
    4010b6c0:	aa1f03f4 	mov	x20, xzr
    4010b6c4:	b4000073 	cbz	x19, 0x4010b6d0
    4010b6c8:	128001c8 	mov	w8, #0xfffffff1            	// #-15
    4010b6cc:	b9000268 	str	w8, [x19]
    4010b6d0:	aa1403e0 	mov	x0, x20
    4010b6d4:	a9434ff4 	ldp	x20, x19, [sp, #48]
    4010b6d8:	a94257f6 	ldp	x22, x21, [sp, #32]
    4010b6dc:	f9400bf7 	ldr	x23, [sp, #16]
    4010b6e0:	a8c47bfd 	ldp	x29, x30, [sp], #64
    4010b6e4:	d65f03c0 	ret
    4010b6e8:	b4ffff53 	cbz	x19, 0x4010b6d0
    4010b6ec:	b9000260 	str	w0, [x19]
    4010b6f0:	17fffff8 	b	0x4010b6d0
    4010b6f4:	a9bc7bfd 	stp	x29, x30, [sp, #-64]!
    4010b6f8:	f9000bf7 	str	x23, [sp, #16]
    4010b6fc:	a90257f6 	stp	x22, x21, [sp, #32]
    4010b700:	a9034ff4 	stp	x20, x19, [sp, #48]
    4010b704:	910003fd 	mov	x29, sp
    4010b708:	d0000076 	adrp	x22, 0x40119000
    4010b70c:	9126ded6 	add	x22, x22, #0x9b7
    4010b710:	aa0003f4 	mov	x20, x0
    4010b714:	aa1603e0 	mov	x0, x22
    4010b718:	aa0203f3 	mov	x19, x2
    4010b71c:	2a0103f5 	mov	w21, w1
    4010b720:	94000e54 	bl	0x4010f070
    4010b724:	aa0003e3 	mov	x3, x0
    4010b728:	910063a4 	add	x4, x29, #0x18
    4010b72c:	910073a5 	add	x5, x29, #0x1c
    4010b730:	aa1403e0 	mov	x0, x20
    4010b734:	2a1503e1 	mov	w1, w21
    4010b738:	aa1603e2 	mov	x2, x22
    4010b73c:	97fffc78 	bl	0x4010a91c
    4010b740:	b4000540 	cbz	x0, 0x4010b7e8
    4010b744:	b9401688 	ldr	w8, [x20, #20]
    4010b748:	5ac00908 	rev	w8, w8
    4010b74c:	71003d1f 	cmp	w8, #0xf
    4010b750:	54000168 	b.hi	0x4010b77c  // b.pmore
    4010b754:	b9401fa8 	ldr	w8, [x29, #28]
    4010b758:	11001108 	add	w8, w8, #0x4
    4010b75c:	7200091f 	tst	w8, #0x7
    4010b760:	540000e0 	b.eq	0x4010b77c  // b.none
    4010b764:	b9400408 	ldr	w8, [x0, #4]
    4010b768:	5ac00908 	rev	w8, w8
    4010b76c:	7100211f 	cmp	w8, #0x8
    4010b770:	54000063 	b.cc	0x4010b77c  // b.lo, b.ul, b.last
    4010b774:	91004014 	add	x20, x0, #0x10
    4010b778:	14000002 	b	0x4010b780
    4010b77c:	91003014 	add	x20, x0, #0xc
    4010b780:	b9401bb7 	ldr	w23, [x29, #24]
    4010b784:	aa1303e0 	mov	x0, x19
    4010b788:	94000e3a 	bl	0x4010f070
    4010b78c:	aa0003f5 	mov	x21, x0
    4010b790:	6b1502ff 	cmp	w23, w21
    4010b794:	5400026b 	b.lt	0x4010b7e0  // b.tstop
    4010b798:	110006a8 	add	w8, w21, #0x1
    4010b79c:	93407d16 	sxtw	x22, w8
    4010b7a0:	aa1303e0 	mov	x0, x19
    4010b7a4:	aa1403e1 	mov	x1, x20
    4010b7a8:	aa1603e2 	mov	x2, x22
    4010b7ac:	94000e25 	bl	0x4010f040
    4010b7b0:	340001e0 	cbz	w0, 0x4010b7ec
    4010b7b4:	93407ee2 	sxtw	x2, w23
    4010b7b8:	aa1403e0 	mov	x0, x20
    4010b7bc:	2a1f03e1 	mov	w1, wzr
    4010b7c0:	94000dfb 	bl	0x4010efac
    4010b7c4:	b40000e0 	cbz	x0, 0x4010b7e0
    4010b7c8:	2a2003e8 	mvn	w8, w0
    4010b7cc:	0b140108 	add	w8, w8, w20
    4010b7d0:	0b0802f7 	add	w23, w23, w8
    4010b7d4:	6b1502ff 	cmp	w23, w21
    4010b7d8:	91000414 	add	x20, x0, #0x1
    4010b7dc:	54fffe2a 	b.ge	0x4010b7a0  // b.tcont
    4010b7e0:	52800020 	mov	w0, #0x1                   	// #1
    4010b7e4:	14000002 	b	0x4010b7ec
    4010b7e8:	b9401ba0 	ldr	w0, [x29, #24]
    4010b7ec:	a9434ff4 	ldp	x20, x19, [sp, #48]
    4010b7f0:	a94257f6 	ldp	x22, x21, [sp, #32]
    4010b7f4:	f9400bf7 	ldr	x23, [sp, #16]
    4010b7f8:	a8c47bfd 	ldp	x29, x30, [sp], #64
    4010b7fc:	d65f03c0 	ret
    4010b800:	a9bd7bfd 	stp	x29, x30, [sp, #-48]!
    4010b804:	a90157f6 	stp	x22, x21, [sp, #16]
    4010b808:	a9024ff4 	stp	x20, x19, [sp, #32]
    4010b80c:	910003fd 	mov	x29, sp
    4010b810:	aa0203f3 	mov	x19, x2
    4010b814:	2a0103f6 	mov	w22, w1
    4010b818:	aa0003f4 	mov	x20, x0
    4010b81c:	97fff37b 	bl	0x40108608
    4010b820:	37f80220 	tbnz	w0, #31, 0x4010b864
    4010b824:	aa1403e0 	mov	x0, x20
    4010b828:	2a1603e1 	mov	w1, w22
    4010b82c:	aa1f03e2 	mov	x2, xzr
    4010b830:	97fff4b2 	bl	0x40108af8
    4010b834:	2a0003f5 	mov	w21, w0
    4010b838:	37f80180 	tbnz	w0, #31, 0x4010b868
    4010b83c:	aa1403e0 	mov	x0, x20
    4010b840:	2a1503e1 	mov	w1, w21
    4010b844:	aa1303e2 	mov	x2, x19
    4010b848:	97ffffab 	bl	0x4010b6f4
    4010b84c:	3100041f 	cmn	w0, #0x1
    4010b850:	540000ab 	b.lt	0x4010b864  // b.tstop
    4010b854:	340000a0 	cbz	w0, 0x4010b868
    4010b858:	aa1403e0 	mov	x0, x20
    4010b85c:	2a1503e1 	mov	w1, w21
    4010b860:	17fffff3 	b	0x4010b82c
    4010b864:	2a0003f5 	mov	w21, w0
    4010b868:	2a1503e0 	mov	w0, w21
    4010b86c:	a9424ff4 	ldp	x20, x19, [sp, #32]
    4010b870:	a94157f6 	ldp	x22, x21, [sp, #16]
    4010b874:	a8c37bfd 	ldp	x29, x30, [sp], #48
    4010b878:	d65f03c0 	ret
    4010b87c:	a9bc7bfd 	stp	x29, x30, [sp, #-64]!
    4010b880:	a9015ff8 	stp	x24, x23, [sp, #16]
    4010b884:	a90257f6 	stp	x22, x21, [sp, #32]
    4010b888:	a9034ff4 	stp	x20, x19, [sp, #48]
    4010b88c:	910003fd 	mov	x29, sp
    4010b890:	aa0203f4 	mov	x20, x2
    4010b894:	aa0103f5 	mov	x21, x1
    4010b898:	aa0003f3 	mov	x19, x0
    4010b89c:	97fff35b 	bl	0x40108608
    4010b8a0:	37f801c0 	tbnz	w0, #31, 0x4010b8d8
    4010b8a4:	b9401668 	ldr	w8, [x19, #20]
    4010b8a8:	5ac00916 	rev	w22, w8
    4010b8ac:	710046df 	cmp	w22, #0x11
    4010b8b0:	54000062 	b.cs	0x4010b8bc  // b.hs, b.nlast
    4010b8b4:	12800120 	mov	w0, #0xfffffff6            	// #-10
    4010b8b8:	14000008 	b	0x4010b8d8
    4010b8bc:	b9402668 	ldr	w8, [x19, #36]
    4010b8c0:	52800201 	mov	w1, #0x10                  	// #16
    4010b8c4:	aa1303e0 	mov	x0, x19
    4010b8c8:	5ac00902 	rev	w2, w8
    4010b8cc:	94000418 	bl	0x4010c92c
    4010b8d0:	340000e0 	cbz	w0, 0x4010b8ec
    4010b8d4:	12800160 	mov	w0, #0xfffffff4            	// #-12
    4010b8d8:	a9434ff4 	ldp	x20, x19, [sp, #48]
    4010b8dc:	a94257f6 	ldp	x22, x21, [sp, #32]
    4010b8e0:	a9415ff8 	ldp	x24, x23, [sp, #16]
    4010b8e4:	a8c47bfd 	ldp	x29, x30, [sp], #64
    4010b8e8:	d65f03c0 	ret
    4010b8ec:	71004adf 	cmp	w22, #0x12
    4010b8f0:	54000063 	b.cc	0x4010b8fc  // b.lo, b.ul, b.last
    4010b8f4:	52a22008 	mov	w8, #0x11000000            	// #285212672
    4010b8f8:	b9001668 	str	w8, [x19, #20]
    4010b8fc:	aa1303e0 	mov	x0, x19
    4010b900:	97fffa63 	bl	0x4010a28c
    4010b904:	b9401269 	ldr	w9, [x19, #16]
    4010b908:	2a0003e8 	mov	w8, w0
    4010b90c:	d3607d29 	lsl	x9, x9, #32
    4010b910:	dac00d29 	rev	x9, x9
    4010b914:	8b090277 	add	x23, x19, x9
    4010b918:	8b20d2f6 	add	x22, x23, w0, sxtw #4
    4010b91c:	eb1302ca 	subs	x10, x22, x19
    4010b920:	12800060 	mov	w0, #0xfffffffc            	// #-4
    4010b924:	54fffda3 	b.cc	0x4010b8d8  // b.lo, b.ul, b.last
    4010b928:	b9400e69 	ldr	w9, [x19, #12]
    4010b92c:	b940226b 	ldr	w11, [x19, #32]
    4010b930:	5ac00929 	rev	w9, w9
    4010b934:	5ac0096b 	rev	w11, w11
    4010b938:	0b090169 	add	w9, w11, w9
    4010b93c:	eb09015f 	cmp	x10, x9
    4010b940:	54fffcc8 	b.hi	0x4010b8d8  // b.pmore
    4010b944:	b940066a 	ldr	w10, [x19, #4]
    4010b948:	1100412b 	add	w11, w9, #0x10
    4010b94c:	5ac0094a 	rev	w10, w10
    4010b950:	6b0a017f 	cmp	w11, w10
    4010b954:	54000069 	b.ls	0x4010b960  // b.plast
    4010b958:	12800040 	mov	w0, #0xfffffffd            	// #-3
    4010b95c:	17ffffdf 	b	0x4010b8d8
    4010b960:	93407d18 	sxtw	x24, w8
    4010b964:	8b090268 	add	x8, x19, x9
    4010b968:	910042c0 	add	x0, x22, #0x10
    4010b96c:	cb160102 	sub	x2, x8, x22
    4010b970:	aa1603e1 	mov	x1, x22
    4010b974:	94000da2 	bl	0x4010effc
    4010b978:	29412a68 	ldp	w8, w10, [x19, #8]
    4010b97c:	2a1f03e0 	mov	w0, wzr
    4010b980:	8b1812e9 	add	x9, x23, x24, lsl #4
    4010b984:	dac00e8b 	rev	x11, x20
    4010b988:	5ac00908 	rev	w8, w8
    4010b98c:	11004108 	add	w8, w8, #0x10
    4010b990:	5ac0094a 	rev	w10, w10
    4010b994:	5ac00908 	rev	w8, w8
    4010b998:	1100414a 	add	w10, w10, #0x10
    4010b99c:	b9000a68 	str	w8, [x19, #8]
    4010b9a0:	dac00ea8 	rev	x8, x21
    4010b9a4:	5ac0094a 	rev	w10, w10
    4010b9a8:	b9000e6a 	str	w10, [x19, #12]
    4010b9ac:	f90002c8 	str	x8, [x22]
    4010b9b0:	f900052b 	str	x11, [x9, #8]
    4010b9b4:	17ffffc9 	b	0x4010b8d8
    4010b9b8:	a9bd7bfd 	stp	x29, x30, [sp, #-48]!
    4010b9bc:	a90157f6 	stp	x22, x21, [sp, #16]
    4010b9c0:	a9024ff4 	stp	x20, x19, [sp, #32]
    4010b9c4:	910003fd 	mov	x29, sp
    4010b9c8:	b9401015 	ldr	w21, [x0, #16]
    4010b9cc:	aa0003f3 	mov	x19, x0
    4010b9d0:	2a0103f4 	mov	w20, w1
    4010b9d4:	97fff30d 	bl	0x40108608
    4010b9d8:	37f80540 	tbnz	w0, #31, 0x4010ba80
    4010b9dc:	b9401668 	ldr	w8, [x19, #20]
    4010b9e0:	5ac00916 	rev	w22, w8
    4010b9e4:	710046df 	cmp	w22, #0x11
    4010b9e8:	54000062 	b.cs	0x4010b9f4  // b.hs, b.nlast
    4010b9ec:	12800120 	mov	w0, #0xfffffff6            	// #-10
    4010b9f0:	14000024 	b	0x4010ba80
    4010b9f4:	b9402668 	ldr	w8, [x19, #36]
    4010b9f8:	52800201 	mov	w1, #0x10                  	// #16
    4010b9fc:	aa1303e0 	mov	x0, x19
    4010ba00:	5ac00902 	rev	w2, w8
    4010ba04:	940003ca 	bl	0x4010c92c
    4010ba08:	34000060 	cbz	w0, 0x4010ba14
    4010ba0c:	12800160 	mov	w0, #0xfffffff4            	// #-12
    4010ba10:	1400001c 	b	0x4010ba80
    4010ba14:	71004adf 	cmp	w22, #0x12
    4010ba18:	54000063 	b.cc	0x4010ba24  // b.lo, b.ul, b.last
    4010ba1c:	52a22008 	mov	w8, #0x11000000            	// #285212672
    4010ba20:	b9001668 	str	w8, [x19, #20]
    4010ba24:	aa1303e0 	mov	x0, x19
    4010ba28:	97fffa19 	bl	0x4010a28c
    4010ba2c:	6b14001f 	cmp	w0, w20
    4010ba30:	5400026d 	b.le	0x4010ba7c
    4010ba34:	d3607ea8 	lsl	x8, x21, #32
    4010ba38:	dac00d08 	rev	x8, x8
    4010ba3c:	8b080268 	add	x8, x19, x8
    4010ba40:	8b34d108 	add	x8, x8, w20, sxtw #4
    4010ba44:	cb130109 	sub	x9, x8, x19
    4010ba48:	b100453f 	cmn	x9, #0x11
    4010ba4c:	54000148 	b.hi	0x4010ba74  // b.pmore
    4010ba50:	b9400e6a 	ldr	w10, [x19, #12]
    4010ba54:	b940226b 	ldr	w11, [x19, #32]
    4010ba58:	5ac0094a 	rev	w10, w10
    4010ba5c:	5ac0096b 	rev	w11, w11
    4010ba60:	0b0a016a 	add	w10, w11, w10
    4010ba64:	9100412b 	add	x11, x9, #0x10
    4010ba68:	2a0a03e9 	mov	w9, w10
    4010ba6c:	eb09017f 	cmp	x11, x9
    4010ba70:	54000109 	b.ls	0x4010ba90  // b.plast
    4010ba74:	12800060 	mov	w0, #0xfffffffc            	// #-4
    4010ba78:	14000002 	b	0x4010ba80
    4010ba7c:	12800000 	mov	w0, #0xffffffff            	// #-1
    4010ba80:	a9424ff4 	ldp	x20, x19, [sp, #32]
    4010ba84:	a94157f6 	ldp	x22, x21, [sp, #16]
    4010ba88:	a8c37bfd 	ldp	x29, x30, [sp], #48
    4010ba8c:	d65f03c0 	ret
    4010ba90:	eb13011f 	cmp	x8, x19
    4010ba94:	12800060 	mov	w0, #0xfffffffc            	// #-4
    4010ba98:	54ffff43 	b.cc	0x4010ba80  // b.lo, b.ul, b.last
    4010ba9c:	7100414a 	subs	w10, w10, #0x10
    4010baa0:	54ffff03 	b.cc	0x4010ba80  // b.lo, b.ul, b.last
    4010baa4:	b940066b 	ldr	w11, [x19, #4]
    4010baa8:	5ac0096b 	rev	w11, w11
    4010baac:	6b0b015f 	cmp	w10, w11
    4010bab0:	54000069 	b.ls	0x4010babc  // b.plast
    4010bab4:	12800040 	mov	w0, #0xfffffffd            	// #-3
    4010bab8:	17fffff2 	b	0x4010ba80
    4010babc:	91004101 	add	x1, x8, #0x10
    4010bac0:	8b090269 	add	x9, x19, x9
    4010bac4:	cb010122 	sub	x2, x9, x1
    4010bac8:	aa0803e0 	mov	x0, x8
    4010bacc:	94000d4c 	bl	0x4010effc
    4010bad0:	29412668 	ldp	w8, w9, [x19, #8]
    4010bad4:	2a1f03e0 	mov	w0, wzr
    4010bad8:	5ac00908 	rev	w8, w8
    4010badc:	5ac00929 	rev	w9, w9
    4010bae0:	51004108 	sub	w8, w8, #0x10
    4010bae4:	51004129 	sub	w9, w9, #0x10
    4010bae8:	5ac00908 	rev	w8, w8
    4010baec:	5ac00929 	rev	w9, w9
    4010baf0:	29012668 	stp	w8, w9, [x19, #8]
    4010baf4:	17ffffe3 	b	0x4010ba80
    4010baf8:	a9bc7bfd 	stp	x29, x30, [sp, #-64]!
    4010bafc:	f9000bf7 	str	x23, [sp, #16]
    4010bb00:	a90257f6 	stp	x22, x21, [sp, #32]
    4010bb04:	a9034ff4 	stp	x20, x19, [sp, #48]
    4010bb08:	910003fd 	mov	x29, sp
    4010bb0c:	aa0203f3 	mov	x19, x2
    4010bb10:	2a0103f5 	mov	w21, w1
    4010bb14:	aa0003f4 	mov	x20, x0
    4010bb18:	97fff2bc 	bl	0x40108608
    4010bb1c:	37f805e0 	tbnz	w0, #31, 0x4010bbd8
    4010bb20:	b9401688 	ldr	w8, [x20, #20]
    4010bb24:	5ac00916 	rev	w22, w8
    4010bb28:	710046df 	cmp	w22, #0x11
    4010bb2c:	54000062 	b.cs	0x4010bb38  // b.hs, b.nlast
    4010bb30:	12800120 	mov	w0, #0xfffffff6            	// #-10
    4010bb34:	14000029 	b	0x4010bbd8
    4010bb38:	b9402688 	ldr	w8, [x20, #36]
    4010bb3c:	52800201 	mov	w1, #0x10                  	// #16
    4010bb40:	aa1403e0 	mov	x0, x20
    4010bb44:	5ac00902 	rev	w2, w8
    4010bb48:	94000379 	bl	0x4010c92c
    4010bb4c:	34000060 	cbz	w0, 0x4010bb58
    4010bb50:	12800160 	mov	w0, #0xfffffff4            	// #-12
    4010bb54:	14000021 	b	0x4010bbd8
    4010bb58:	71004adf 	cmp	w22, #0x12
    4010bb5c:	54000063 	b.cc	0x4010bb68  // b.lo, b.ul, b.last
    4010bb60:	52a22008 	mov	w8, #0x11000000            	// #285212672
    4010bb64:	b9001688 	str	w8, [x20, #20]
    4010bb68:	910073a2 	add	x2, x29, #0x1c
    4010bb6c:	aa1403e0 	mov	x0, x20
    4010bb70:	2a1503e1 	mov	w1, w21
    4010bb74:	97fffad5 	bl	0x4010a6c8
    4010bb78:	b40002e0 	cbz	x0, 0x4010bbd4
    4010bb7c:	aa0003f5 	mov	x21, x0
    4010bb80:	aa1303e0 	mov	x0, x19
    4010bb84:	94000d3b 	bl	0x4010f070
    4010bb88:	b9401fa8 	ldr	w8, [x29, #28]
    4010bb8c:	11001109 	add	w9, w8, #0x4
    4010bb90:	721e753f 	tst	w9, #0xfffffffc
    4010bb94:	540001cb 	b.lt	0x4010bbcc  // b.tstop
    4010bb98:	121e752a 	and	w10, w9, #0xfffffffc
    4010bb9c:	cb1402ab 	sub	x11, x21, x20
    4010bba0:	2a0a03e9 	mov	w9, w10
    4010bba4:	ab09016d 	adds	x13, x11, x9
    4010bba8:	54000122 	b.cs	0x4010bbcc  // b.hs, b.nlast
    4010bbac:	b9400e8b 	ldr	w11, [x20, #12]
    4010bbb0:	b940228c 	ldr	w12, [x20, #32]
    4010bbb4:	5ac0096b 	rev	w11, w11
    4010bbb8:	5ac0098c 	rev	w12, w12
    4010bbbc:	0b0b018c 	add	w12, w12, w11
    4010bbc0:	2a0c03eb 	mov	w11, w12
    4010bbc4:	eb0b01bf 	cmp	x13, x11
    4010bbc8:	54000129 	b.ls	0x4010bbec  // b.plast
    4010bbcc:	12800060 	mov	w0, #0xfffffffc            	// #-4
    4010bbd0:	14000002 	b	0x4010bbd8
    4010bbd4:	b9401fa0 	ldr	w0, [x29, #28]
    4010bbd8:	a9434ff4 	ldp	x20, x19, [sp, #48]
    4010bbdc:	a94257f6 	ldp	x22, x21, [sp, #32]
    4010bbe0:	f9400bf7 	ldr	x23, [sp, #16]
    4010bbe4:	a8c47bfd 	ldp	x29, x30, [sp], #64
    4010bbe8:	d65f03c0 	ret
    4010bbec:	aa0003e8 	mov	x8, x0
    4010bbf0:	eb1402bf 	cmp	x21, x20
    4010bbf4:	12800060 	mov	w0, #0xfffffffc            	// #-4
    4010bbf8:	54ffff03 	b.cc	0x4010bbd8  // b.lo, b.ul, b.last
    4010bbfc:	1100110d 	add	w13, w8, #0x4
    4010bc00:	121e75ad 	and	w13, w13, #0xfffffffc
    4010bc04:	0b0d018e 	add	w14, w12, w13
    4010bc08:	6b0a01df 	cmp	w14, w10
    4010bc0c:	54fffe63 	b.cc	0x4010bbd8  // b.lo, b.ul, b.last
    4010bc10:	b940068e 	ldr	w14, [x20, #4]
    4010bc14:	4b0a01b7 	sub	w23, w13, w10
    4010bc18:	0b17018a 	add	w10, w12, w23
    4010bc1c:	5ac009cc 	rev	w12, w14
    4010bc20:	6b0c015f 	cmp	w10, w12
    4010bc24:	54000069 	b.ls	0x4010bc30  // b.plast
    4010bc28:	12800040 	mov	w0, #0xfffffffd            	// #-3
    4010bc2c:	17ffffeb 	b	0x4010bbd8
    4010bc30:	8b0902a1 	add	x1, x21, x9
    4010bc34:	8b0b0289 	add	x9, x20, x11
    4010bc38:	11000508 	add	w8, w8, #0x1
    4010bc3c:	8b2dc2a0 	add	x0, x21, w13, sxtw
    4010bc40:	cb010122 	sub	x2, x9, x1
    4010bc44:	93407d16 	sxtw	x22, w8
    4010bc48:	94000ced 	bl	0x4010effc
    4010bc4c:	b9402688 	ldr	w8, [x20, #36]
    4010bc50:	b9400e89 	ldr	w9, [x20, #12]
    4010bc54:	aa1503e0 	mov	x0, x21
    4010bc58:	aa1303e1 	mov	x1, x19
    4010bc5c:	5ac00908 	rev	w8, w8
    4010bc60:	5ac00929 	rev	w9, w9
    4010bc64:	0b170108 	add	w8, w8, w23
    4010bc68:	0b170129 	add	w9, w9, w23
    4010bc6c:	5ac00908 	rev	w8, w8
    4010bc70:	5ac00929 	rev	w9, w9
    4010bc74:	aa1603e2 	mov	x2, x22
    4010bc78:	b9002688 	str	w8, [x20, #36]
    4010bc7c:	b9000e89 	str	w9, [x20, #12]
    4010bc80:	94000caf 	bl	0x4010ef3c
    4010bc84:	2a1f03e0 	mov	w0, wzr
    4010bc88:	17ffffd4 	b	0x4010bbd8
    4010bc8c:	d10143ff 	sub	sp, sp, #0x50
    4010bc90:	a9017bfd 	stp	x29, x30, [sp, #16]
    4010bc94:	a9025ff8 	stp	x24, x23, [sp, #32]
    4010bc98:	a90357f6 	stp	x22, x21, [sp, #48]
    4010bc9c:	a9044ff4 	stp	x20, x19, [sp, #64]
    4010bca0:	910043fd 	add	x29, sp, #0x10
    4010bca4:	aa0403f3 	mov	x19, x4
    4010bca8:	2a0303f4 	mov	w20, w3
    4010bcac:	aa0203f7 	mov	x23, x2
    4010bcb0:	2a0103f8 	mov	w24, w1
    4010bcb4:	aa0003f5 	mov	x21, x0
    4010bcb8:	97fff254 	bl	0x40108608
    4010bcbc:	37f80780 	tbnz	w0, #31, 0x4010bdac
    4010bcc0:	b94016a8 	ldr	w8, [x21, #20]
    4010bcc4:	5ac00916 	rev	w22, w8
    4010bcc8:	710046df 	cmp	w22, #0x11
    4010bccc:	54000062 	b.cs	0x4010bcd8  // b.hs, b.nlast
    4010bcd0:	12800120 	mov	w0, #0xfffffff6            	// #-10
    4010bcd4:	14000036 	b	0x4010bdac
    4010bcd8:	b94026a8 	ldr	w8, [x21, #36]
    4010bcdc:	52800201 	mov	w1, #0x10                  	// #16
    4010bce0:	aa1503e0 	mov	x0, x21
    4010bce4:	5ac00902 	rev	w2, w8
    4010bce8:	94000311 	bl	0x4010c92c
    4010bcec:	34000060 	cbz	w0, 0x4010bcf8
    4010bcf0:	12800160 	mov	w0, #0xfffffff4            	// #-12
    4010bcf4:	1400002e 	b	0x4010bdac
    4010bcf8:	71004adf 	cmp	w22, #0x12
    4010bcfc:	54000063 	b.cc	0x4010bd08  // b.lo, b.ul, b.last
    4010bd00:	52a22008 	mov	w8, #0x11000000            	// #285212672
    4010bd04:	b90016a8 	str	w8, [x21, #20]
    4010bd08:	d10013a3 	sub	x3, x29, #0x4
    4010bd0c:	aa1503e0 	mov	x0, x21
    4010bd10:	2a1803e1 	mov	w1, w24
    4010bd14:	aa1703e2 	mov	x2, x23
    4010bd18:	97fffb67 	bl	0x4010aab4
    4010bd1c:	f90003e0 	str	x0, [sp]
    4010bd20:	b40002c0 	cbz	x0, 0x4010bd78
    4010bd24:	b85fc3a8 	ldur	w8, [x29, #-4]
    4010bd28:	11000d08 	add	w8, w8, #0x3
    4010bd2c:	721e751f 	tst	w8, #0xfffffffc
    4010bd30:	5400020b 	b.lt	0x4010bd70  // b.tstop
    4010bd34:	9100300c 	add	x12, x0, #0xc
    4010bd38:	121e7509 	and	w9, w8, #0xfffffffc
    4010bd3c:	cb15018a 	sub	x10, x12, x21
    4010bd40:	2a0903e8 	mov	w8, w9
    4010bd44:	aa0003f6 	mov	x22, x0
    4010bd48:	ab08014d 	adds	x13, x10, x8
    4010bd4c:	54000122 	b.cs	0x4010bd70  // b.hs, b.nlast
    4010bd50:	b9400eaa 	ldr	w10, [x21, #12]
    4010bd54:	b94022ab 	ldr	w11, [x21, #32]
    4010bd58:	5ac0094a 	rev	w10, w10
    4010bd5c:	5ac0096b 	rev	w11, w11
    4010bd60:	0b0a016b 	add	w11, w11, w10
    4010bd64:	2a0b03ea 	mov	w10, w11
    4010bd68:	eb0a01bf 	cmp	x13, x10
    4010bd6c:	540002c9 	b.ls	0x4010bdc4  // b.plast
    4010bd70:	12800060 	mov	w0, #0xfffffffc            	// #-4
    4010bd74:	1400000a 	b	0x4010bd9c
    4010bd78:	b85fc3a0 	ldur	w0, [x29, #-4]
    4010bd7c:	3100041f 	cmn	w0, #0x1
    4010bd80:	540000e1 	b.ne	0x4010bd9c  // b.any
    4010bd84:	910003e4 	mov	x4, sp
    4010bd88:	aa1503e0 	mov	x0, x21
    4010bd8c:	2a1803e1 	mov	w1, w24
    4010bd90:	aa1703e2 	mov	x2, x23
    4010bd94:	2a1403e3 	mov	w3, w20
    4010bd98:	94000030 	bl	0x4010be58
    4010bd9c:	35000080 	cbnz	w0, 0x4010bdac
    4010bda0:	f94003e8 	ldr	x8, [sp]
    4010bda4:	91003108 	add	x8, x8, #0xc
    4010bda8:	f9000268 	str	x8, [x19]
    4010bdac:	a9444ff4 	ldp	x20, x19, [sp, #64]
    4010bdb0:	a94357f6 	ldp	x22, x21, [sp, #48]
    4010bdb4:	a9425ff8 	ldp	x24, x23, [sp, #32]
    4010bdb8:	a9417bfd 	ldp	x29, x30, [sp, #16]
    4010bdbc:	910143ff 	add	sp, sp, #0x50
    4010bdc0:	d65f03c0 	ret
    4010bdc4:	eb15019f 	cmp	x12, x21
    4010bdc8:	12800060 	mov	w0, #0xfffffffc            	// #-4
    4010bdcc:	54fffe83 	b.cc	0x4010bd9c  // b.lo, b.ul, b.last
    4010bdd0:	11000e8c 	add	w12, w20, #0x3
    4010bdd4:	93407d8c 	sxtw	x12, w12
    4010bdd8:	927ef58c 	and	x12, x12, #0xfffffffffffffffc
    4010bddc:	0b0c016d 	add	w13, w11, w12
    4010bde0:	6b0901bf 	cmp	w13, w9
    4010bde4:	54fffdc3 	b.cc	0x4010bd9c  // b.lo, b.ul, b.last
    4010bde8:	b94006ad 	ldr	w13, [x21, #4]
    4010bdec:	4b090197 	sub	w23, w12, w9
    4010bdf0:	0b170169 	add	w9, w11, w23
    4010bdf4:	5ac009ab 	rev	w11, w13
    4010bdf8:	6b0b013f 	cmp	w9, w11
    4010bdfc:	54000069 	b.ls	0x4010be08  // b.plast
    4010be00:	12800040 	mov	w0, #0xfffffffd            	// #-3
    4010be04:	17ffffe6 	b	0x4010bd9c
    4010be08:	910032c9 	add	x9, x22, #0xc
    4010be0c:	8b080121 	add	x1, x9, x8
    4010be10:	8b0a02a8 	add	x8, x21, x10
    4010be14:	8b0c0120 	add	x0, x9, x12
    4010be18:	cb010102 	sub	x2, x8, x1
    4010be1c:	94000c78 	bl	0x4010effc
    4010be20:	b94026a8 	ldr	w8, [x21, #36]
    4010be24:	b9400ea9 	ldr	w9, [x21, #12]
    4010be28:	5ac00a8a 	rev	w10, w20
    4010be2c:	2a1f03e0 	mov	w0, wzr
    4010be30:	5ac00908 	rev	w8, w8
    4010be34:	5ac00929 	rev	w9, w9
    4010be38:	0b170108 	add	w8, w8, w23
    4010be3c:	0b170129 	add	w9, w9, w23
    4010be40:	5ac00908 	rev	w8, w8
    4010be44:	5ac00929 	rev	w9, w9
    4010be48:	b90026a8 	str	w8, [x21, #36]
    4010be4c:	b9000ea9 	str	w9, [x21, #12]
    4010be50:	b90006ca 	str	w10, [x22, #4]
    4010be54:	17ffffd2 	b	0x4010bd9c
    4010be58:	a9ba7bfd 	stp	x29, x30, [sp, #-96]!
    4010be5c:	f9000bfb 	str	x27, [sp, #16]
    4010be60:	a90267fa 	stp	x26, x25, [sp, #32]
    4010be64:	a9035ff8 	stp	x24, x23, [sp, #48]
    4010be68:	a90457f6 	stp	x22, x21, [sp, #64]
    4010be6c:	a9054ff4 	stp	x20, x19, [sp, #80]
    4010be70:	910003fd 	mov	x29, sp
    4010be74:	aa0403f5 	mov	x21, x4
    4010be78:	2a0303f4 	mov	w20, w3
    4010be7c:	aa0203f6 	mov	x22, x2
    4010be80:	aa0003f3 	mov	x19, x0
    4010be84:	97fff2fb 	bl	0x40108a70
    4010be88:	2a0003f7 	mov	w23, w0
    4010be8c:	37f80660 	tbnz	w0, #31, 0x4010bf58
    4010be90:	b9400e68 	ldr	w8, [x19, #12]
    4010be94:	aa1603e0 	mov	x0, x22
    4010be98:	d3607d08 	lsl	x8, x8, #32
    4010be9c:	dac00d08 	rev	x8, x8
    4010bea0:	8b080279 	add	x25, x19, x8
    4010bea4:	94000c73 	bl	0x4010f070
    4010bea8:	b9402268 	ldr	w8, [x19, #32]
    4010beac:	aa0003fa 	mov	x26, x0
    4010beb0:	aa1903e0 	mov	x0, x25
    4010beb4:	aa1603e2 	mov	x2, x22
    4010beb8:	5ac00901 	rev	w1, w8
    4010bebc:	97fff3ba 	bl	0x40108da4
    4010bec0:	b4000500 	cbz	x0, 0x4010bf60
    4010bec4:	2a1f03e8 	mov	w8, wzr
    4010bec8:	4b19001b 	sub	w27, w0, w25
    4010becc:	37f80c5b 	tbnz	w27, #31, 0x4010c054
    4010bed0:	b9400a69 	ldr	w9, [x19, #8]
    4010bed4:	12800078 	mov	w24, #0xfffffffc            	// #-4
    4010bed8:	d3607d29 	lsl	x9, x9, #32
    4010bedc:	dac00d29 	rev	x9, x9
    4010bee0:	8b090269 	add	x9, x19, x9
    4010bee4:	8b374121 	add	x1, x9, w23, uxtw
    4010bee8:	eb13002a 	subs	x10, x1, x19
    4010beec:	f90002a1 	str	x1, [x21]
    4010bef0:	54000203 	b.cc	0x4010bf30  // b.lo, b.ul, b.last
    4010bef4:	b9400e69 	ldr	w9, [x19, #12]
    4010bef8:	b940226b 	ldr	w11, [x19, #32]
    4010befc:	5ac00929 	rev	w9, w9
    4010bf00:	5ac0096b 	rev	w11, w11
    4010bf04:	0b090169 	add	w9, w11, w9
    4010bf08:	eb09015f 	cmp	x10, x9
    4010bf0c:	54000128 	b.hi	0x4010bf30  // b.pmore
    4010bf10:	b940066a 	ldr	w10, [x19, #4]
    4010bf14:	11003e8b 	add	w11, w20, #0xf
    4010bf18:	121e7577 	and	w23, w11, #0xfffffffc
    4010bf1c:	0b17012b 	add	w11, w9, w23
    4010bf20:	5ac0094a 	rev	w10, w10
    4010bf24:	6b0a017f 	cmp	w11, w10
    4010bf28:	54000489 	b.ls	0x4010bfb8  // b.plast
    4010bf2c:	12800058 	mov	w24, #0xfffffffd            	// #-3
    4010bf30:	34000948 	cbz	w8, 0x4010c058
    4010bf34:	aa1603e0 	mov	x0, x22
    4010bf38:	94000c4e 	bl	0x4010f070
    4010bf3c:	b9402268 	ldr	w8, [x19, #32]
    4010bf40:	2a2003e9 	mvn	w9, w0
    4010bf44:	5ac00908 	rev	w8, w8
    4010bf48:	0b090108 	add	w8, w8, w9
    4010bf4c:	5ac00908 	rev	w8, w8
    4010bf50:	b9002268 	str	w8, [x19, #32]
    4010bf54:	14000041 	b	0x4010c058
    4010bf58:	2a1703f8 	mov	w24, w23
    4010bf5c:	1400003f 	b	0x4010c058
    4010bf60:	b9402268 	ldr	w8, [x19, #32]
    4010bf64:	b9400e69 	ldr	w9, [x19, #12]
    4010bf68:	12800078 	mov	w24, #0xfffffffc            	// #-4
    4010bf6c:	d3607d08 	lsl	x8, x8, #32
    4010bf70:	d3607d29 	lsl	x9, x9, #32
    4010bf74:	dac00d1b 	rev	x27, x8
    4010bf78:	dac00d28 	rev	x8, x9
    4010bf7c:	8b080269 	add	x9, x19, x8
    4010bf80:	8b1b0121 	add	x1, x9, x27
    4010bf84:	eb130029 	subs	x9, x1, x19
    4010bf88:	54000683 	b.cc	0x4010c058  // b.lo, b.ul, b.last
    4010bf8c:	0b1b0108 	add	w8, w8, w27
    4010bf90:	eb08013f 	cmp	x9, x8
    4010bf94:	54000628 	b.hi	0x4010c058  // b.pmore
    4010bf98:	b9400669 	ldr	w9, [x19, #4]
    4010bf9c:	1100075a 	add	w26, w26, #0x1
    4010bfa0:	0b1a010a 	add	w10, w8, w26
    4010bfa4:	5ac00929 	rev	w9, w9
    4010bfa8:	6b09015f 	cmp	w10, w9
    4010bfac:	54000329 	b.ls	0x4010c010  // b.plast
    4010bfb0:	12800058 	mov	w24, #0xfffffffd            	// #-3
    4010bfb4:	14000029 	b	0x4010c058
    4010bfb8:	8b090268 	add	x8, x19, x9
    4010bfbc:	8b37c020 	add	x0, x1, w23, sxtw
    4010bfc0:	cb010102 	sub	x2, x8, x1
    4010bfc4:	94000c0e 	bl	0x4010effc
    4010bfc8:	b9402668 	ldr	w8, [x19, #36]
    4010bfcc:	b9400e69 	ldr	w9, [x19, #12]
    4010bfd0:	2a1f03f8 	mov	w24, wzr
    4010bfd4:	5ac00b6a 	rev	w10, w27
    4010bfd8:	5ac00908 	rev	w8, w8
    4010bfdc:	5ac00929 	rev	w9, w9
    4010bfe0:	0b170108 	add	w8, w8, w23
    4010bfe4:	0b170129 	add	w9, w9, w23
    4010bfe8:	5ac00908 	rev	w8, w8
    4010bfec:	b9002668 	str	w8, [x19, #36]
    4010bff0:	5ac00928 	rev	w8, w9
    4010bff4:	b9000e68 	str	w8, [x19, #12]
    4010bff8:	f94002a8 	ldr	x8, [x21]
    4010bffc:	52a06009 	mov	w9, #0x3000000             	// #50331648
    4010c000:	5ac00a8b 	rev	w11, w20
    4010c004:	2900a90b 	stp	w11, w10, [x8, #4]
    4010c008:	b9000109 	str	w9, [x8]
    4010c00c:	14000013 	b	0x4010c058
    4010c010:	8b1b0338 	add	x24, x25, x27
    4010c014:	93407f59 	sxtw	x25, w26
    4010c018:	8b080268 	add	x8, x19, x8
    4010c01c:	8b190020 	add	x0, x1, x25
    4010c020:	cb010102 	sub	x2, x8, x1
    4010c024:	94000bf6 	bl	0x4010effc
    4010c028:	b9402268 	ldr	w8, [x19, #32]
    4010c02c:	aa1803e0 	mov	x0, x24
    4010c030:	aa1603e1 	mov	x1, x22
    4010c034:	aa1903e2 	mov	x2, x25
    4010c038:	5ac00908 	rev	w8, w8
    4010c03c:	0b1a0108 	add	w8, w8, w26
    4010c040:	5ac00908 	rev	w8, w8
    4010c044:	b9002268 	str	w8, [x19, #32]
    4010c048:	94000bbd 	bl	0x4010ef3c
    4010c04c:	52800028 	mov	w8, #0x1                   	// #1
    4010c050:	36fff41b 	tbz	w27, #31, 0x4010bed0
    4010c054:	2a1b03f8 	mov	w24, w27
    4010c058:	2a1803e0 	mov	w0, w24
    4010c05c:	a9454ff4 	ldp	x20, x19, [sp, #80]
    4010c060:	a94457f6 	ldp	x22, x21, [sp, #64]
    4010c064:	a9435ff8 	ldp	x24, x23, [sp, #48]
    4010c068:	a94267fa 	ldp	x26, x25, [sp, #32]
    4010c06c:	f9400bfb 	ldr	x27, [sp, #16]
    4010c070:	a8c67bfd 	ldp	x29, x30, [sp], #96
    4010c074:	d65f03c0 	ret
    4010c078:	a9bd7bfd 	stp	x29, x30, [sp, #-48]!
    4010c07c:	f9000bf5 	str	x21, [sp, #16]
    4010c080:	a9024ff4 	stp	x20, x19, [sp, #32]
    4010c084:	910003fd 	mov	x29, sp
    4010c088:	2a0403f4 	mov	w20, w4
    4010c08c:	aa0303f3 	mov	x19, x3
    4010c090:	910063a4 	add	x4, x29, #0x18
    4010c094:	2a1403e3 	mov	w3, w20
    4010c098:	97fffefd 	bl	0x4010bc8c
    4010c09c:	2a0003f5 	mov	w21, w0
    4010c0a0:	340000d4 	cbz	w20, 0x4010c0b8
    4010c0a4:	350000b5 	cbnz	w21, 0x4010c0b8
    4010c0a8:	f9400fa0 	ldr	x0, [x29, #24]
    4010c0ac:	93407e82 	sxtw	x2, w20
    4010c0b0:	aa1303e1 	mov	x1, x19
    4010c0b4:	94000ba2 	bl	0x4010ef3c
    4010c0b8:	2a1503e0 	mov	w0, w21
    4010c0bc:	a9424ff4 	ldp	x20, x19, [sp, #32]
    4010c0c0:	f9400bf5 	ldr	x21, [sp, #16]
    4010c0c4:	a8c37bfd 	ldp	x29, x30, [sp], #48
    4010c0c8:	d65f03c0 	ret
    4010c0cc:	d10183ff 	sub	sp, sp, #0x60
    4010c0d0:	a9017bfd 	stp	x29, x30, [sp, #16]
    4010c0d4:	f90013f9 	str	x25, [sp, #32]
    4010c0d8:	a9035ff8 	stp	x24, x23, [sp, #48]
    4010c0dc:	a90457f6 	stp	x22, x21, [sp, #64]
    4010c0e0:	a9054ff4 	stp	x20, x19, [sp, #80]
    4010c0e4:	910043fd 	add	x29, sp, #0x10
    4010c0e8:	2a0403f4 	mov	w20, w4
    4010c0ec:	aa0303f3 	mov	x19, x3
    4010c0f0:	aa0203f7 	mov	x23, x2
    4010c0f4:	2a0103f8 	mov	w24, w1
    4010c0f8:	aa0003f5 	mov	x21, x0
    4010c0fc:	97fff143 	bl	0x40108608
    4010c100:	37f80780 	tbnz	w0, #31, 0x4010c1f0
    4010c104:	b94016a8 	ldr	w8, [x21, #20]
    4010c108:	5ac00916 	rev	w22, w8
    4010c10c:	710046df 	cmp	w22, #0x11
    4010c110:	54000062 	b.cs	0x4010c11c  // b.hs, b.nlast
    4010c114:	12800120 	mov	w0, #0xfffffff6            	// #-10
    4010c118:	14000036 	b	0x4010c1f0
    4010c11c:	b94026a8 	ldr	w8, [x21, #36]
    4010c120:	52800201 	mov	w1, #0x10                  	// #16
    4010c124:	aa1503e0 	mov	x0, x21
    4010c128:	5ac00902 	rev	w2, w8
    4010c12c:	94000200 	bl	0x4010c92c
    4010c130:	34000060 	cbz	w0, 0x4010c13c
    4010c134:	12800160 	mov	w0, #0xfffffff4            	// #-12
    4010c138:	1400002e 	b	0x4010c1f0
    4010c13c:	71004adf 	cmp	w22, #0x12
    4010c140:	54000063 	b.cc	0x4010c14c  // b.lo, b.ul, b.last
    4010c144:	52a22008 	mov	w8, #0x11000000            	// #285212672
    4010c148:	b90016a8 	str	w8, [x21, #20]
    4010c14c:	d10013a3 	sub	x3, x29, #0x4
    4010c150:	aa1503e0 	mov	x0, x21
    4010c154:	2a1803e1 	mov	w1, w24
    4010c158:	aa1703e2 	mov	x2, x23
    4010c15c:	97fffa56 	bl	0x4010aab4
    4010c160:	f9000fa0 	str	x0, [x29, #24]
    4010c164:	b40002c0 	cbz	x0, 0x4010c1bc
    4010c168:	b85fc3ab 	ldur	w11, [x29, #-4]
    4010c16c:	11000d68 	add	w8, w11, #0x3
    4010c170:	721e751f 	tst	w8, #0xfffffffc
    4010c174:	5400020b 	b.lt	0x4010c1b4  // b.tstop
    4010c178:	9100300d 	add	x13, x0, #0xc
    4010c17c:	121e7509 	and	w9, w8, #0xfffffffc
    4010c180:	cb1501aa 	sub	x10, x13, x21
    4010c184:	2a0903e8 	mov	w8, w9
    4010c188:	aa0003f6 	mov	x22, x0
    4010c18c:	ab08014e 	adds	x14, x10, x8
    4010c190:	54000122 	b.cs	0x4010c1b4  // b.hs, b.nlast
    4010c194:	b9400eaa 	ldr	w10, [x21, #12]
    4010c198:	b94022ac 	ldr	w12, [x21, #32]
    4010c19c:	5ac0094a 	rev	w10, w10
    4010c1a0:	5ac0098c 	rev	w12, w12
    4010c1a4:	0b0a018c 	add	w12, w12, w10
    4010c1a8:	2a0c03ea 	mov	w10, w12
    4010c1ac:	eb0a01df 	cmp	x14, x10
    4010c1b0:	540002e9 	b.ls	0x4010c20c  // b.plast
    4010c1b4:	12800060 	mov	w0, #0xfffffffc            	// #-4
    4010c1b8:	1400000e 	b	0x4010c1f0
    4010c1bc:	910063a4 	add	x4, x29, #0x18
    4010c1c0:	aa1503e0 	mov	x0, x21
    4010c1c4:	2a1803e1 	mov	w1, w24
    4010c1c8:	aa1703e2 	mov	x2, x23
    4010c1cc:	2a1403e3 	mov	w3, w20
    4010c1d0:	97ffff22 	bl	0x4010be58
    4010c1d4:	350000e0 	cbnz	w0, 0x4010c1f0
    4010c1d8:	f9400fa8 	ldr	x8, [x29, #24]
    4010c1dc:	91003100 	add	x0, x8, #0xc
    4010c1e0:	93407e82 	sxtw	x2, w20
    4010c1e4:	aa1303e1 	mov	x1, x19
    4010c1e8:	94000b55 	bl	0x4010ef3c
    4010c1ec:	2a1f03e0 	mov	w0, wzr
    4010c1f0:	a9454ff4 	ldp	x20, x19, [sp, #80]
    4010c1f4:	a94457f6 	ldp	x22, x21, [sp, #64]
    4010c1f8:	a9435ff8 	ldp	x24, x23, [sp, #48]
    4010c1fc:	f94013f9 	ldr	x25, [sp, #32]
    4010c200:	a9417bfd 	ldp	x29, x30, [sp, #16]
    4010c204:	910183ff 	add	sp, sp, #0x60
    4010c208:	d65f03c0 	ret
    4010c20c:	eb1501bf 	cmp	x13, x21
    4010c210:	12800060 	mov	w0, #0xfffffffc            	// #-4
    4010c214:	54fffee3 	b.cc	0x4010c1f0  // b.lo, b.ul, b.last
    4010c218:	0b140177 	add	w23, w11, w20
    4010c21c:	11000eeb 	add	w11, w23, #0x3
    4010c220:	93407d6b 	sxtw	x11, w11
    4010c224:	927ef56b 	and	x11, x11, #0xfffffffffffffffc
    4010c228:	0b0b018d 	add	w13, w12, w11
    4010c22c:	6b0901bf 	cmp	w13, w9
    4010c230:	54fffe03 	b.cc	0x4010c1f0  // b.lo, b.ul, b.last
    4010c234:	b94006ad 	ldr	w13, [x21, #4]
    4010c238:	4b090178 	sub	w24, w11, w9
    4010c23c:	0b180189 	add	w9, w12, w24
    4010c240:	5ac009ac 	rev	w12, w13
    4010c244:	6b0c013f 	cmp	w9, w12
    4010c248:	54000069 	b.ls	0x4010c254  // b.plast
    4010c24c:	12800040 	mov	w0, #0xfffffffd            	// #-3
    4010c250:	17ffffe8 	b	0x4010c1f0
    4010c254:	910032d9 	add	x25, x22, #0xc
    4010c258:	8b080321 	add	x1, x25, x8
    4010c25c:	8b0a02a8 	add	x8, x21, x10
    4010c260:	8b0b0320 	add	x0, x25, x11
    4010c264:	cb010102 	sub	x2, x8, x1
    4010c268:	94000b65 	bl	0x4010effc
    4010c26c:	b94026a8 	ldr	w8, [x21, #36]
    4010c270:	b9400ea9 	ldr	w9, [x21, #12]
    4010c274:	5ac00aea 	rev	w10, w23
    4010c278:	5ac00908 	rev	w8, w8
    4010c27c:	5ac00929 	rev	w9, w9
    4010c280:	0b180108 	add	w8, w8, w24
    4010c284:	0b180129 	add	w9, w9, w24
    4010c288:	5ac00908 	rev	w8, w8
    4010c28c:	5ac00929 	rev	w9, w9
    4010c290:	b90026a8 	str	w8, [x21, #36]
    4010c294:	b9000ea9 	str	w9, [x21, #12]
    4010c298:	b90006ca 	str	w10, [x22, #4]
    4010c29c:	b89fc3a8 	ldursw	x8, [x29, #-4]
    4010c2a0:	8b080320 	add	x0, x25, x8
    4010c2a4:	17ffffcf 	b	0x4010c1e0
    4010c2a8:	d10103ff 	sub	sp, sp, #0x40
    4010c2ac:	a9017bfd 	stp	x29, x30, [sp, #16]
    4010c2b0:	a90257f6 	stp	x22, x21, [sp, #32]
    4010c2b4:	a9034ff4 	stp	x20, x19, [sp, #48]
    4010c2b8:	910043fd 	add	x29, sp, #0x10
    4010c2bc:	aa0203f4 	mov	x20, x2
    4010c2c0:	2a0103f5 	mov	w21, w1
    4010c2c4:	aa0003f3 	mov	x19, x0
    4010c2c8:	97fff0d0 	bl	0x40108608
    4010c2cc:	37f800e0 	tbnz	w0, #31, 0x4010c2e8
    4010c2d0:	b9401668 	ldr	w8, [x19, #20]
    4010c2d4:	5ac00916 	rev	w22, w8
    4010c2d8:	710046df 	cmp	w22, #0x11
    4010c2dc:	540000a2 	b.cs	0x4010c2f0  // b.hs, b.nlast
    4010c2e0:	12800128 	mov	w8, #0xfffffff6            	// #-10
    4010c2e4:	14000027 	b	0x4010c380
    4010c2e8:	2a0003e8 	mov	w8, w0
    4010c2ec:	14000025 	b	0x4010c380
    4010c2f0:	b9402668 	ldr	w8, [x19, #36]
    4010c2f4:	52800201 	mov	w1, #0x10                  	// #16
    4010c2f8:	aa1303e0 	mov	x0, x19
    4010c2fc:	5ac00902 	rev	w2, w8
    4010c300:	9400018b 	bl	0x4010c92c
    4010c304:	34000060 	cbz	w0, 0x4010c310
    4010c308:	12800168 	mov	w8, #0xfffffff4            	// #-12
    4010c30c:	1400001d 	b	0x4010c380
    4010c310:	71004adf 	cmp	w22, #0x12
    4010c314:	54000063 	b.cc	0x4010c320  // b.lo, b.ul, b.last
    4010c318:	52a22008 	mov	w8, #0x11000000            	// #285212672
    4010c31c:	b9001668 	str	w8, [x19, #20]
    4010c320:	d10013a3 	sub	x3, x29, #0x4
    4010c324:	aa1303e0 	mov	x0, x19
    4010c328:	2a1503e1 	mov	w1, w21
    4010c32c:	aa1403e2 	mov	x2, x20
    4010c330:	97fff9e1 	bl	0x4010aab4
    4010c334:	b85fc3a8 	ldur	w8, [x29, #-4]
    4010c338:	b4000240 	cbz	x0, 0x4010c380
    4010c33c:	11003d08 	add	w8, w8, #0xf
    4010c340:	721e751f 	tst	w8, #0xfffffffc
    4010c344:	540001cb 	b.lt	0x4010c37c  // b.tstop
    4010c348:	121e7514 	and	w20, w8, #0xfffffffc
    4010c34c:	cb130008 	sub	x8, x0, x19
    4010c350:	2a1403e9 	mov	w9, w20
    4010c354:	ab090108 	adds	x8, x8, x9
    4010c358:	54000122 	b.cs	0x4010c37c  // b.hs, b.nlast
    4010c35c:	b9400e6a 	ldr	w10, [x19, #12]
    4010c360:	b940226b 	ldr	w11, [x19, #32]
    4010c364:	5ac0094a 	rev	w10, w10
    4010c368:	5ac0096b 	rev	w11, w11
    4010c36c:	0b0a016b 	add	w11, w11, w10
    4010c370:	2a0b03ea 	mov	w10, w11
    4010c374:	eb0a011f 	cmp	x8, x10
    4010c378:	54000109 	b.ls	0x4010c398  // b.plast
    4010c37c:	12800068 	mov	w8, #0xfffffffc            	// #-4
    4010c380:	a9434ff4 	ldp	x20, x19, [sp, #48]
    4010c384:	a94257f6 	ldp	x22, x21, [sp, #32]
    4010c388:	a9417bfd 	ldp	x29, x30, [sp, #16]
    4010c38c:	2a0803e0 	mov	w0, w8
    4010c390:	910103ff 	add	sp, sp, #0x40
    4010c394:	d65f03c0 	ret
    4010c398:	eb13001f 	cmp	x0, x19
    4010c39c:	12800068 	mov	w8, #0xfffffffc            	// #-4
    4010c3a0:	54ffff03 	b.cc	0x4010c380  // b.lo, b.ul, b.last
    4010c3a4:	6b14016b 	subs	w11, w11, w20
    4010c3a8:	54fffec3 	b.cc	0x4010c380  // b.lo, b.ul, b.last
    4010c3ac:	b9400668 	ldr	w8, [x19, #4]
    4010c3b0:	5ac00908 	rev	w8, w8
    4010c3b4:	6b08017f 	cmp	w11, w8
    4010c3b8:	54000069 	b.ls	0x4010c3c4  // b.plast
    4010c3bc:	12800048 	mov	w8, #0xfffffffd            	// #-3
    4010c3c0:	17fffff0 	b	0x4010c380
    4010c3c4:	8b090001 	add	x1, x0, x9
    4010c3c8:	8b0a0268 	add	x8, x19, x10
    4010c3cc:	cb010102 	sub	x2, x8, x1
    4010c3d0:	94000b0b 	bl	0x4010effc
    4010c3d4:	b9402669 	ldr	w9, [x19, #36]
    4010c3d8:	b9400e6a 	ldr	w10, [x19, #12]
    4010c3dc:	2a1f03e8 	mov	w8, wzr
    4010c3e0:	5ac00929 	rev	w9, w9
    4010c3e4:	5ac0094a 	rev	w10, w10
    4010c3e8:	4b140129 	sub	w9, w9, w20
    4010c3ec:	4b14014a 	sub	w10, w10, w20
    4010c3f0:	5ac00929 	rev	w9, w9
    4010c3f4:	5ac0094a 	rev	w10, w10
    4010c3f8:	b9002669 	str	w9, [x19, #36]
    4010c3fc:	b9000e6a 	str	w10, [x19, #12]
    4010c400:	17ffffe0 	b	0x4010c380
    4010c404:	d10183ff 	sub	sp, sp, #0x60
    4010c408:	a9017bfd 	stp	x29, x30, [sp, #16]
    4010c40c:	a90267fa 	stp	x26, x25, [sp, #32]
    4010c410:	a9035ff8 	stp	x24, x23, [sp, #48]
    4010c414:	a90457f6 	stp	x22, x21, [sp, #64]
    4010c418:	a9054ff4 	stp	x20, x19, [sp, #80]
    4010c41c:	910043fd 	add	x29, sp, #0x10
    4010c420:	2a0303f5 	mov	w21, w3
    4010c424:	aa0203f3 	mov	x19, x2
    4010c428:	2a0103f6 	mov	w22, w1
    4010c42c:	aa0003f4 	mov	x20, x0
    4010c430:	97fff076 	bl	0x40108608
    4010c434:	37f80ca0 	tbnz	w0, #31, 0x4010c5c8
    4010c438:	b9401688 	ldr	w8, [x20, #20]
    4010c43c:	5ac00917 	rev	w23, w8
    4010c440:	710046ff 	cmp	w23, #0x11
    4010c444:	54000062 	b.cs	0x4010c450  // b.hs, b.nlast
    4010c448:	12800120 	mov	w0, #0xfffffff6            	// #-10
    4010c44c:	1400005f 	b	0x4010c5c8
    4010c450:	b9402688 	ldr	w8, [x20, #36]
    4010c454:	52800201 	mov	w1, #0x10                  	// #16
    4010c458:	aa1403e0 	mov	x0, x20
    4010c45c:	5ac00902 	rev	w2, w8
    4010c460:	94000133 	bl	0x4010c92c
    4010c464:	34000060 	cbz	w0, 0x4010c470
    4010c468:	12800160 	mov	w0, #0xfffffff4            	// #-12
    4010c46c:	14000057 	b	0x4010c5c8
    4010c470:	71004aff 	cmp	w23, #0x12
    4010c474:	54000063 	b.cc	0x4010c480  // b.lo, b.ul, b.last
    4010c478:	52a22008 	mov	w8, #0x11000000            	// #285212672
    4010c47c:	b9001688 	str	w8, [x20, #20]
    4010c480:	aa1403e0 	mov	x0, x20
    4010c484:	2a1603e1 	mov	w1, w22
    4010c488:	aa1303e2 	mov	x2, x19
    4010c48c:	2a1503e3 	mov	w3, w21
    4010c490:	97fff7a4 	bl	0x4010a320
    4010c494:	37f80060 	tbnz	w0, #31, 0x4010c4a0
    4010c498:	12800020 	mov	w0, #0xfffffffe            	// #-2
    4010c49c:	1400004b 	b	0x4010c5c8
    4010c4a0:	3100041f 	cmn	w0, #0x1
    4010c4a4:	54000921 	b.ne	0x4010c5c8  // b.any
    4010c4a8:	d10013a2 	sub	x2, x29, #0x4
    4010c4ac:	aa1403e0 	mov	x0, x20
    4010c4b0:	2a1603e1 	mov	w1, w22
    4010c4b4:	97fff127 	bl	0x40108950
    4010c4b8:	7100041f 	cmp	w0, #0x1
    4010c4bc:	54000481 	b.ne	0x4010c54c  // b.any
    4010c4c0:	b85fc3b6 	ldur	w22, [x29, #-4]
    4010c4c4:	d10013a2 	sub	x2, x29, #0x4
    4010c4c8:	aa1403e0 	mov	x0, x20
    4010c4cc:	2a1603e1 	mov	w1, w22
    4010c4d0:	97fff120 	bl	0x40108950
    4010c4d4:	51000c08 	sub	w8, w0, #0x3
    4010c4d8:	7100091f 	cmp	w8, #0x2
    4010c4dc:	54ffff23 	b.cc	0x4010c4c0  // b.lo, b.ul, b.last
    4010c4e0:	b9400a88 	ldr	w8, [x20, #8]
    4010c4e4:	93407ec9 	sxtw	x9, w22
    4010c4e8:	12800060 	mov	w0, #0xfffffffc            	// #-4
    4010c4ec:	d3607d08 	lsl	x8, x8, #32
    4010c4f0:	dac00d08 	rev	x8, x8
    4010c4f4:	8b080288 	add	x8, x20, x8
    4010c4f8:	8b090117 	add	x23, x8, x9
    4010c4fc:	eb1402e9 	subs	x9, x23, x20
    4010c500:	54000643 	b.cc	0x4010c5c8  // b.lo, b.ul, b.last
    4010c504:	b9400e88 	ldr	w8, [x20, #12]
    4010c508:	b940228a 	ldr	w10, [x20, #32]
    4010c50c:	5ac00908 	rev	w8, w8
    4010c510:	5ac0094a 	rev	w10, w10
    4010c514:	0b080148 	add	w8, w10, w8
    4010c518:	eb08013f 	cmp	x9, x8
    4010c51c:	54000568 	b.hi	0x4010c5c8  // b.pmore
    4010c520:	93407eb5 	sxtw	x21, w21
    4010c524:	b9400689 	ldr	w9, [x20, #4]
    4010c528:	910012aa 	add	x10, x21, #0x4
    4010c52c:	927ef558 	and	x24, x10, #0xfffffffffffffffc
    4010c530:	1100231a 	add	w26, w24, #0x8
    4010c534:	0b1a010a 	add	w10, w8, w26
    4010c538:	5ac00929 	rev	w9, w9
    4010c53c:	6b09015f 	cmp	w10, w9
    4010c540:	540000a9 	b.ls	0x4010c554  // b.plast
    4010c544:	12800040 	mov	w0, #0xfffffffd            	// #-3
    4010c548:	14000020 	b	0x4010c5c8
    4010c54c:	12800180 	mov	w0, #0xfffffff3            	// #-13
    4010c550:	1400001e 	b	0x4010c5c8
    4010c554:	8b3ac2f9 	add	x25, x23, w26, sxtw
    4010c558:	8b080288 	add	x8, x20, x8
    4010c55c:	cb170102 	sub	x2, x8, x23
    4010c560:	aa1903e0 	mov	x0, x25
    4010c564:	aa1703e1 	mov	x1, x23
    4010c568:	94000aa5 	bl	0x4010effc
    4010c56c:	b9402688 	ldr	w8, [x20, #36]
    4010c570:	b9400e89 	ldr	w9, [x20, #12]
    4010c574:	52a0200a 	mov	w10, #0x1000000             	// #16777216
    4010c578:	2a1f03e1 	mov	w1, wzr
    4010c57c:	5ac00908 	rev	w8, w8
    4010c580:	5ac00929 	rev	w9, w9
    4010c584:	0b1a0108 	add	w8, w8, w26
    4010c588:	0b1a0129 	add	w9, w9, w26
    4010c58c:	5ac00908 	rev	w8, w8
    4010c590:	5ac00929 	rev	w9, w9
    4010c594:	b9002688 	str	w8, [x20, #36]
    4010c598:	b9000e89 	str	w9, [x20, #12]
    4010c59c:	b80046ea 	str	w10, [x23], #4
    4010c5a0:	aa1703e0 	mov	x0, x23
    4010c5a4:	aa1803e2 	mov	x2, x24
    4010c5a8:	94000a6c 	bl	0x4010ef58
    4010c5ac:	aa1703e0 	mov	x0, x23
    4010c5b0:	aa1303e1 	mov	x1, x19
    4010c5b4:	aa1503e2 	mov	x2, x21
    4010c5b8:	94000a61 	bl	0x4010ef3c
    4010c5bc:	52a04008 	mov	w8, #0x2000000             	// #33554432
    4010c5c0:	2a1603e0 	mov	w0, w22
    4010c5c4:	b81fc328 	stur	w8, [x25, #-4]
    4010c5c8:	a9454ff4 	ldp	x20, x19, [sp, #80]
    4010c5cc:	a94457f6 	ldp	x22, x21, [sp, #64]
    4010c5d0:	a9435ff8 	ldp	x24, x23, [sp, #48]
    4010c5d4:	a94267fa 	ldp	x26, x25, [sp, #32]
    4010c5d8:	a9417bfd 	ldp	x29, x30, [sp, #16]
    4010c5dc:	910183ff 	add	sp, sp, #0x60
    4010c5e0:	d65f03c0 	ret
    4010c5e4:	a9bd7bfd 	stp	x29, x30, [sp, #-48]!
    4010c5e8:	f9000bf5 	str	x21, [sp, #16]
    4010c5ec:	a9024ff4 	stp	x20, x19, [sp, #32]
    4010c5f0:	910003fd 	mov	x29, sp
    4010c5f4:	aa0003f5 	mov	x21, x0
    4010c5f8:	aa0203e0 	mov	x0, x2
    4010c5fc:	aa0203f3 	mov	x19, x2
    4010c600:	2a0103f4 	mov	w20, w1
    4010c604:	94000a9b 	bl	0x4010f070
    4010c608:	aa0003e3 	mov	x3, x0
    4010c60c:	aa1503e0 	mov	x0, x21
    4010c610:	2a1403e1 	mov	w1, w20
    4010c614:	aa1303e2 	mov	x2, x19
    4010c618:	a9424ff4 	ldp	x20, x19, [sp, #32]
    4010c61c:	f9400bf5 	ldr	x21, [sp, #16]
    4010c620:	a8c37bfd 	ldp	x29, x30, [sp], #48
    4010c624:	17ffff78 	b	0x4010c404
    4010c628:	a9bd7bfd 	stp	x29, x30, [sp, #-48]!
    4010c62c:	f9000bf5 	str	x21, [sp, #16]
    4010c630:	a9024ff4 	stp	x20, x19, [sp, #32]
    4010c634:	910003fd 	mov	x29, sp
    4010c638:	2a0103f4 	mov	w20, w1
    4010c63c:	aa0003f3 	mov	x19, x0
    4010c640:	97ffeff2 	bl	0x40108608
    4010c644:	37f80560 	tbnz	w0, #31, 0x4010c6f0
    4010c648:	b9401668 	ldr	w8, [x19, #20]
    4010c64c:	5ac00915 	rev	w21, w8
    4010c650:	710046bf 	cmp	w21, #0x11
    4010c654:	54000062 	b.cs	0x4010c660  // b.hs, b.nlast
    4010c658:	12800120 	mov	w0, #0xfffffff6            	// #-10
    4010c65c:	14000025 	b	0x4010c6f0
    4010c660:	b9402668 	ldr	w8, [x19, #36]
    4010c664:	52800201 	mov	w1, #0x10                  	// #16
    4010c668:	aa1303e0 	mov	x0, x19
    4010c66c:	5ac00902 	rev	w2, w8
    4010c670:	940000af 	bl	0x4010c92c
    4010c674:	34000060 	cbz	w0, 0x4010c680
    4010c678:	12800160 	mov	w0, #0xfffffff4            	// #-12
    4010c67c:	1400001d 	b	0x4010c6f0
    4010c680:	71004abf 	cmp	w21, #0x12
    4010c684:	54000063 	b.cc	0x4010c690  // b.lo, b.ul, b.last
    4010c688:	52a22008 	mov	w8, #0x11000000            	// #285212672
    4010c68c:	b9001668 	str	w8, [x19, #20]
    4010c690:	aa1303e0 	mov	x0, x19
    4010c694:	2a1403e1 	mov	w1, w20
    4010c698:	940003f6 	bl	0x4010d670
    4010c69c:	37f802a0 	tbnz	w0, #31, 0x4010c6f0
    4010c6a0:	4b140015 	sub	w21, w0, w20
    4010c6a4:	37f80255 	tbnz	w21, #31, 0x4010c6ec
    4010c6a8:	b9400a68 	ldr	w8, [x19, #8]
    4010c6ac:	2a1503e9 	mov	w9, w21
    4010c6b0:	d3607d08 	lsl	x8, x8, #32
    4010c6b4:	dac00d08 	rev	x8, x8
    4010c6b8:	8b080268 	add	x8, x19, x8
    4010c6bc:	8b34c108 	add	x8, x8, w20, sxtw
    4010c6c0:	cb13010a 	sub	x10, x8, x19
    4010c6c4:	ab09014c 	adds	x12, x10, x9
    4010c6c8:	54000122 	b.cs	0x4010c6ec  // b.hs, b.nlast
    4010c6cc:	b9400e6a 	ldr	w10, [x19, #12]
    4010c6d0:	b940226b 	ldr	w11, [x19, #32]
    4010c6d4:	5ac0094a 	rev	w10, w10
    4010c6d8:	5ac0096b 	rev	w11, w11
    4010c6dc:	0b0a016b 	add	w11, w11, w10
    4010c6e0:	2a0b03ea 	mov	w10, w11
    4010c6e4:	eb0a019f 	cmp	x12, x10
    4010c6e8:	540000c9 	b.ls	0x4010c700  // b.plast
    4010c6ec:	12800060 	mov	w0, #0xfffffffc            	// #-4
    4010c6f0:	a9424ff4 	ldp	x20, x19, [sp, #32]
    4010c6f4:	f9400bf5 	ldr	x21, [sp, #16]
    4010c6f8:	a8c37bfd 	ldp	x29, x30, [sp], #48
    4010c6fc:	d65f03c0 	ret
    4010c700:	eb13011f 	cmp	x8, x19
    4010c704:	12800060 	mov	w0, #0xfffffffc            	// #-4
    4010c708:	54ffff43 	b.cc	0x4010c6f0  // b.lo, b.ul, b.last
    4010c70c:	6b15016b 	subs	w11, w11, w21
    4010c710:	54ffff03 	b.cc	0x4010c6f0  // b.lo, b.ul, b.last
    4010c714:	b940066c 	ldr	w12, [x19, #4]
    4010c718:	5ac0098c 	rev	w12, w12
    4010c71c:	6b0c017f 	cmp	w11, w12
    4010c720:	54000069 	b.ls	0x4010c72c  // b.plast
    4010c724:	12800040 	mov	w0, #0xfffffffd            	// #-3
    4010c728:	17fffff2 	b	0x4010c6f0
    4010c72c:	8b090101 	add	x1, x8, x9
    4010c730:	8b0a0269 	add	x9, x19, x10
    4010c734:	cb010122 	sub	x2, x9, x1
    4010c738:	aa0803e0 	mov	x0, x8
    4010c73c:	94000a30 	bl	0x4010effc
    4010c740:	b9402668 	ldr	w8, [x19, #36]
    4010c744:	b9400e69 	ldr	w9, [x19, #12]
    4010c748:	2a1f03e0 	mov	w0, wzr
    4010c74c:	5ac00908 	rev	w8, w8
    4010c750:	5ac00929 	rev	w9, w9
    4010c754:	4b150108 	sub	w8, w8, w21
    4010c758:	4b150129 	sub	w9, w9, w21
    4010c75c:	5ac00908 	rev	w8, w8
    4010c760:	5ac00929 	rev	w9, w9
    4010c764:	b9002668 	str	w8, [x19, #36]
    4010c768:	b9000e69 	str	w9, [x19, #12]
    4010c76c:	17ffffe1 	b	0x4010c6f0
    4010c770:	a9bb7bfd 	stp	x29, x30, [sp, #-80]!
    4010c774:	f9000bf9 	str	x25, [sp, #16]
    4010c778:	a9025ff8 	stp	x24, x23, [sp, #32]
    4010c77c:	a90357f6 	stp	x22, x21, [sp, #48]
    4010c780:	a9044ff4 	stp	x20, x19, [sp, #64]
    4010c784:	910003fd 	mov	x29, sp
    4010c788:	b9400418 	ldr	w24, [x0, #4]
    4010c78c:	2a0203f4 	mov	w20, w2
    4010c790:	aa0003f6 	mov	x22, x0
    4010c794:	aa0103f3 	mov	x19, x1
    4010c798:	97ffef9c 	bl	0x40108608
    4010c79c:	37f80180 	tbnz	w0, #31, 0x4010c7cc
    4010c7a0:	aa1603e0 	mov	x0, x22
    4010c7a4:	97fff6ba 	bl	0x4010a28c
    4010c7a8:	b94016c8 	ldr	w8, [x22, #20]
    4010c7ac:	2a0003f7 	mov	w23, w0
    4010c7b0:	5ac00908 	rev	w8, w8
    4010c7b4:	7100451f 	cmp	w8, #0x11
    4010c7b8:	540000e3 	b.cc	0x4010c7d4  // b.lo, b.ul, b.last
    4010c7bc:	b94026c8 	ldr	w8, [x22, #36]
    4010c7c0:	5ac00915 	rev	w21, w8
    4010c7c4:	b9001fb5 	str	w21, [x29, #28]
    4010c7c8:	1400000f 	b	0x4010c804
    4010c7cc:	2a0003f5 	mov	w21, w0
    4010c7d0:	14000050 	b	0x4010c910
    4010c7d4:	7100411f 	cmp	w8, #0x10
    4010c7d8:	54000361 	b.ne	0x4010c844  // b.any
    4010c7dc:	2a1f03f5 	mov	w21, wzr
    4010c7e0:	b9001fbf 	str	wzr, [x29, #28]
    4010c7e4:	910073a2 	add	x2, x29, #0x1c
    4010c7e8:	aa1603e0 	mov	x0, x22
    4010c7ec:	2a1503e1 	mov	w1, w21
    4010c7f0:	97fff058 	bl	0x40108950
    4010c7f4:	b9401fb5 	ldr	w21, [x29, #28]
    4010c7f8:	7100241f 	cmp	w0, #0x9
    4010c7fc:	54ffff41 	b.ne	0x4010c7e4  // b.any
    4010c800:	37f80895 	tbnz	w21, #31, 0x4010c910
    4010c804:	531c6ef9 	lsl	w25, w23, #4
    4010c808:	11004337 	add	w23, w25, #0x10
    4010c80c:	aa1603e0 	mov	x0, x22
    4010c810:	2a1703e1 	mov	w1, w23
    4010c814:	2a1503e2 	mov	w2, w21
    4010c818:	94000045 	bl	0x4010c92c
    4010c81c:	34000180 	cbz	w0, 0x4010c84c
    4010c820:	b94022c8 	ldr	w8, [x22, #32]
    4010c824:	0b150329 	add	w9, w25, w21
    4010c828:	5ac00904 	rev	w4, w8
    4010c82c:	0b040128 	add	w8, w9, w4
    4010c830:	1100e109 	add	w9, w8, #0x38
    4010c834:	6b14013f 	cmp	w9, w20
    4010c838:	5400026d 	b.le	0x4010c884
    4010c83c:	12800055 	mov	w21, #0xfffffffd            	// #-3
    4010c840:	14000034 	b	0x4010c910
    4010c844:	12800135 	mov	w21, #0xfffffff6            	// #-10
    4010c848:	14000032 	b	0x4010c910
    4010c84c:	aa1603e0 	mov	x0, x22
    4010c850:	aa1303e1 	mov	x1, x19
    4010c854:	2a1403e2 	mov	w2, w20
    4010c858:	97fff170 	bl	0x40108e18
    4010c85c:	2a0003f5 	mov	w21, w0
    4010c860:	35000580 	cbnz	w0, 0x4010c910
    4010c864:	52a22008 	mov	w8, #0x11000000            	// #285212672
    4010c868:	b9001668 	str	w8, [x19, #20]
    4010c86c:	b9401fa8 	ldr	w8, [x29, #28]
    4010c870:	5ac00a89 	rev	w9, w20
    4010c874:	b9000669 	str	w9, [x19, #4]
    4010c878:	5ac00908 	rev	w8, w8
    4010c87c:	b9002668 	str	w8, [x19, #36]
    4010c880:	14000024 	b	0x4010c910
    4010c884:	d3607f08 	lsl	x8, x24, #32
    4010c888:	dac00d08 	rev	x8, x8
    4010c88c:	8b0802c8 	add	x8, x22, x8
    4010c890:	eb13011f 	cmp	x8, x19
    4010c894:	93407d38 	sxtw	x24, w9
    4010c898:	aa1303f9 	mov	x25, x19
    4010c89c:	54000149 	b.ls	0x4010c8c4  // b.plast
    4010c8a0:	8b180269 	add	x9, x19, x24
    4010c8a4:	eb16013f 	cmp	x9, x22
    4010c8a8:	aa1303f9 	mov	x25, x19
    4010c8ac:	540000c9 	b.ls	0x4010c8c4  // b.plast
    4010c8b0:	8b180109 	add	x9, x8, x24
    4010c8b4:	8b34c26a 	add	x10, x19, w20, sxtw
    4010c8b8:	eb0a013f 	cmp	x9, x10
    4010c8bc:	aa0803f9 	mov	x25, x8
    4010c8c0:	54fffbe8 	b.hi	0x4010c83c  // b.pmore
    4010c8c4:	aa1603e0 	mov	x0, x22
    4010c8c8:	aa1903e1 	mov	x1, x25
    4010c8cc:	2a1703e2 	mov	w2, w23
    4010c8d0:	2a1503e3 	mov	w3, w21
    4010c8d4:	94000032 	bl	0x4010c99c
    4010c8d8:	aa1303e0 	mov	x0, x19
    4010c8dc:	aa1903e1 	mov	x1, x25
    4010c8e0:	aa1803e2 	mov	x2, x24
    4010c8e4:	940009c6 	bl	0x4010effc
    4010c8e8:	5281ba08 	mov	w8, #0xdd0                 	// #3536
    4010c8ec:	d2a2200a 	mov	x10, #0x11000000            	// #285212672
    4010c8f0:	72bdbfc8 	movk	w8, #0xedfe, lsl #16
    4010c8f4:	5ac00a89 	rev	w9, w20
    4010c8f8:	f2e2000a 	movk	x10, #0x1000, lsl #48
    4010c8fc:	29002668 	stp	w8, w9, [x19]
    4010c900:	f801426a 	stur	x10, [x19, #20]
    4010c904:	b9401ec8 	ldr	w8, [x22, #28]
    4010c908:	2a1f03f5 	mov	w21, wzr
    4010c90c:	b9001e68 	str	w8, [x19, #28]
    4010c910:	2a1503e0 	mov	w0, w21
    4010c914:	a9444ff4 	ldp	x20, x19, [sp, #64]
    4010c918:	a94357f6 	ldp	x22, x21, [sp, #48]
    4010c91c:	a9425ff8 	ldp	x24, x23, [sp, #32]
    4010c920:	f9400bf9 	ldr	x25, [sp, #16]
    4010c924:	a8c57bfd 	ldp	x29, x30, [sp], #80
    4010c928:	d65f03c0 	ret
    4010c92c:	b9401008 	ldr	w8, [x0, #16]
    4010c930:	5ac00908 	rev	w8, w8
    4010c934:	7100a11f 	cmp	w8, #0x28
    4010c938:	54000062 	b.cs	0x4010c944  // b.hs, b.nlast
    4010c93c:	52800020 	mov	w0, #0x1                   	// #1
    4010c940:	d65f03c0 	ret
    4010c944:	b9400809 	ldr	w9, [x0, #8]
    4010c948:	0b010108 	add	w8, w8, w1
    4010c94c:	5ac00929 	rev	w9, w9
    4010c950:	6b08013f 	cmp	w9, w8
    4010c954:	54000062 	b.cs	0x4010c960  // b.hs, b.nlast
    4010c958:	52800020 	mov	w0, #0x1                   	// #1
    4010c95c:	d65f03c0 	ret
    4010c960:	b9400c08 	ldr	w8, [x0, #12]
    4010c964:	0b020129 	add	w9, w9, w2
    4010c968:	5ac00908 	rev	w8, w8
    4010c96c:	6b09011f 	cmp	w8, w9
    4010c970:	54000062 	b.cs	0x4010c97c  // b.hs, b.nlast
    4010c974:	52800020 	mov	w0, #0x1                   	// #1
    4010c978:	d65f03c0 	ret
    4010c97c:	b940200a 	ldr	w10, [x0, #32]
    4010c980:	b9400409 	ldr	w9, [x0, #4]
    4010c984:	5ac0094a 	rev	w10, w10
    4010c988:	5ac00929 	rev	w9, w9
    4010c98c:	0b080148 	add	w8, w10, w8
    4010c990:	6b08013f 	cmp	w9, w8
    4010c994:	1a9f27e0 	cset	w0, cc  // cc = lo, ul, last
    4010c998:	d65f03c0 	ret
    4010c99c:	a9bb7bfd 	stp	x29, x30, [sp, #-80]!
    4010c9a0:	f9000bf9 	str	x25, [sp, #16]
    4010c9a4:	a9025ff8 	stp	x24, x23, [sp, #32]
    4010c9a8:	a90357f6 	stp	x22, x21, [sp, #48]
    4010c9ac:	a9044ff4 	stp	x20, x19, [sp, #64]
    4010c9b0:	910003fd 	mov	x29, sp
    4010c9b4:	b9401008 	ldr	w8, [x0, #16]
    4010c9b8:	2a0303f4 	mov	w20, w3
    4010c9bc:	aa0003f6 	mov	x22, x0
    4010c9c0:	93407c42 	sxtw	x2, w2
    4010c9c4:	d3607d08 	lsl	x8, x8, #32
    4010c9c8:	dac00d08 	rev	x8, x8
    4010c9cc:	aa0103f5 	mov	x21, x1
    4010c9d0:	9100a058 	add	x24, x2, #0x28
    4010c9d4:	93407e97 	sxtw	x23, w20
    4010c9d8:	9100a020 	add	x0, x1, #0x28
    4010c9dc:	8b0802c1 	add	x1, x22, x8
    4010c9e0:	2a0403f3 	mov	w19, w4
    4010c9e4:	8b170319 	add	x25, x24, x23
    4010c9e8:	94000985 	bl	0x4010effc
    4010c9ec:	52a50008 	mov	w8, #0x28000000            	// #671088640
    4010c9f0:	b90012a8 	str	w8, [x21, #16]
    4010c9f4:	b9400ac8 	ldr	w8, [x22, #8]
    4010c9f8:	8b38c2a0 	add	x0, x21, w24, sxtw
    4010c9fc:	aa1703e2 	mov	x2, x23
    4010ca00:	d3607d08 	lsl	x8, x8, #32
    4010ca04:	dac00d08 	rev	x8, x8
    4010ca08:	8b0802c1 	add	x1, x22, x8
    4010ca0c:	9400097c 	bl	0x4010effc
    4010ca10:	5ac00b08 	rev	w8, w24
    4010ca14:	5ac00a89 	rev	w9, w20
    4010ca18:	b9000aa8 	str	w8, [x21, #8]
    4010ca1c:	b90026a9 	str	w9, [x21, #36]
    4010ca20:	b9400ec8 	ldr	w8, [x22, #12]
    4010ca24:	8b1902a0 	add	x0, x21, x25
    4010ca28:	93407e62 	sxtw	x2, w19
    4010ca2c:	d3607d08 	lsl	x8, x8, #32
    4010ca30:	dac00d08 	rev	x8, x8
    4010ca34:	8b0802c1 	add	x1, x22, x8
    4010ca38:	94000971 	bl	0x4010effc
    4010ca3c:	5ac00b28 	rev	w8, w25
    4010ca40:	b9000ea8 	str	w8, [x21, #12]
    4010ca44:	b94022c8 	ldr	w8, [x22, #32]
    4010ca48:	f9400bf9 	ldr	x25, [sp, #16]
    4010ca4c:	b90022a8 	str	w8, [x21, #32]
    4010ca50:	a9444ff4 	ldp	x20, x19, [sp, #64]
    4010ca54:	a94357f6 	ldp	x22, x21, [sp, #48]
    4010ca58:	a9425ff8 	ldp	x24, x23, [sp, #32]
    4010ca5c:	a8c57bfd 	ldp	x29, x30, [sp], #80
    4010ca60:	d65f03c0 	ret
    4010ca64:	a9be7bfd 	stp	x29, x30, [sp, #-32]!
    4010ca68:	a9014ff4 	stp	x20, x19, [sp, #16]
    4010ca6c:	910003fd 	mov	x29, sp
    4010ca70:	aa0003f3 	mov	x19, x0
    4010ca74:	97ffeee5 	bl	0x40108608
    4010ca78:	37f804a0 	tbnz	w0, #31, 0x4010cb0c
    4010ca7c:	b9401668 	ldr	w8, [x19, #20]
    4010ca80:	5ac00914 	rev	w20, w8
    4010ca84:	7100469f 	cmp	w20, #0x11
    4010ca88:	54000062 	b.cs	0x4010ca94  // b.hs, b.nlast
    4010ca8c:	12800120 	mov	w0, #0xfffffff6            	// #-10
    4010ca90:	1400001f 	b	0x4010cb0c
    4010ca94:	b9402668 	ldr	w8, [x19, #36]
    4010ca98:	52800201 	mov	w1, #0x10                  	// #16
    4010ca9c:	aa1303e0 	mov	x0, x19
    4010caa0:	5ac00902 	rev	w2, w8
    4010caa4:	97ffffa2 	bl	0x4010c92c
    4010caa8:	34000060 	cbz	w0, 0x4010cab4
    4010caac:	12800160 	mov	w0, #0xfffffff4            	// #-12
    4010cab0:	14000017 	b	0x4010cb0c
    4010cab4:	71004a9f 	cmp	w20, #0x12
    4010cab8:	54000063 	b.cc	0x4010cac4  // b.lo, b.ul, b.last
    4010cabc:	52a22008 	mov	w8, #0x11000000            	// #285212672
    4010cac0:	b9001668 	str	w8, [x19, #20]
    4010cac4:	aa1303e0 	mov	x0, x19
    4010cac8:	97fff5f1 	bl	0x4010a28c
    4010cacc:	29442269 	ldp	w9, w8, [x19, #32]
    4010cad0:	531c6c0a 	lsl	w10, w0, #4
    4010cad4:	11004142 	add	w2, w10, #0x10
    4010cad8:	aa1303e0 	mov	x0, x19
    4010cadc:	5ac00903 	rev	w3, w8
    4010cae0:	5ac00924 	rev	w4, w9
    4010cae4:	aa1303e1 	mov	x1, x19
    4010cae8:	97ffffad 	bl	0x4010c99c
    4010caec:	b9400e68 	ldr	w8, [x19, #12]
    4010caf0:	b9402269 	ldr	w9, [x19, #32]
    4010caf4:	2a1f03e0 	mov	w0, wzr
    4010caf8:	5ac00908 	rev	w8, w8
    4010cafc:	5ac00929 	rev	w9, w9
    4010cb00:	0b080128 	add	w8, w9, w8
    4010cb04:	5ac00908 	rev	w8, w8
    4010cb08:	b9000668 	str	w8, [x19, #4]
    4010cb0c:	a9414ff4 	ldp	x20, x19, [sp, #16]
    4010cb10:	a8c27bfd 	ldp	x29, x30, [sp], #32
    4010cb14:	d65f03c0 	ret
    4010cb18:	7100001f 	cmp	w0, #0x0
    4010cb1c:	5400008d 	b.le	0x4010cb2c
    4010cb20:	b0000060 	adrp	x0, 0x40119000
    4010cb24:	91270800 	add	x0, x0, #0x9c2
    4010cb28:	d65f03c0 	ret
    4010cb2c:	34000100 	cbz	w0, 0x4010cb4c
    4010cb30:	31004c1f 	cmn	w0, #0x13
    4010cb34:	5400012b 	b.lt	0x4010cb58  // b.tstop
    4010cb38:	90000068 	adrp	x8, 0x40118000
    4010cb3c:	9108c108 	add	x8, x8, #0x230
    4010cb40:	cb20cd08 	sub	x8, x8, w0, sxtw #3
    4010cb44:	f9400100 	ldr	x0, [x8]
    4010cb48:	d65f03c0 	ret
    4010cb4c:	b0000060 	adrp	x0, 0x40119000
    4010cb50:	91276000 	add	x0, x0, #0x9d8
    4010cb54:	d65f03c0 	ret
    4010cb58:	b0000060 	adrp	x0, 0x40119000
    4010cb5c:	91278c00 	add	x0, x0, #0x9e3
    4010cb60:	d65f03c0 	ret
    4010cb64:	a9bd7bfd 	stp	x29, x30, [sp, #-48]!
    4010cb68:	f9000bf5 	str	x21, [sp, #16]
    4010cb6c:	a9024ff4 	stp	x20, x19, [sp, #32]
    4010cb70:	910003fd 	mov	x29, sp
    4010cb74:	7100c03f 	cmp	w1, #0x30
    4010cb78:	5400006a 	b.ge	0x4010cb84  // b.tcont
    4010cb7c:	12800040 	mov	w0, #0xfffffffd            	// #-3
    4010cb80:	14000016 	b	0x4010cbd8
    4010cb84:	2a0203f5 	mov	w21, w2
    4010cb88:	7100045f 	cmp	w2, #0x1
    4010cb8c:	54000069 	b.ls	0x4010cb98  // b.plast
    4010cb90:	12800220 	mov	w0, #0xffffffee            	// #-18
    4010cb94:	14000011 	b	0x4010cbd8
    4010cb98:	2a0103f4 	mov	w20, w1
    4010cb9c:	2a0103e2 	mov	w2, w1
    4010cba0:	2a1f03e1 	mov	w1, wzr
    4010cba4:	aa0003f3 	mov	x19, x0
    4010cba8:	940008ec 	bl	0x4010ef58
    4010cbac:	529e45e8 	mov	w8, #0xf22f                	// #61999
    4010cbb0:	d2a6000b 	mov	x11, #0x30000000            	// #805306368
    4010cbb4:	2a1f03e0 	mov	w0, wzr
    4010cbb8:	72a24028 	movk	w8, #0x1201, lsl #16
    4010cbbc:	5ac00aa9 	rev	w9, w21
    4010cbc0:	5ac00a8a 	rev	w10, w20
    4010cbc4:	f2e2200b 	movk	x11, #0x1100, lsl #48
    4010cbc8:	52a6000c 	mov	w12, #0x30000000            	// #805306368
    4010cbcc:	b9001a69 	str	w9, [x19, #24]
    4010cbd0:	29002a68 	stp	w8, w10, [x19]
    4010cbd4:	a900ae6c 	stp	x12, x11, [x19, #8]
    4010cbd8:	a9424ff4 	ldp	x20, x19, [sp, #32]
    4010cbdc:	f9400bf5 	ldr	x21, [sp, #16]
    4010cbe0:	a8c37bfd 	ldp	x29, x30, [sp], #48
    4010cbe4:	d65f03c0 	ret
    4010cbe8:	7100c03f 	cmp	w1, #0x30
    4010cbec:	5400006a 	b.ge	0x4010cbf8  // b.tcont
    4010cbf0:	12800040 	mov	w0, #0xfffffffd            	// #-3
    4010cbf4:	d65f03c0 	ret
    4010cbf8:	a9be7bfd 	stp	x29, x30, [sp, #-32]!
    4010cbfc:	a9014ff4 	stp	x20, x19, [sp, #16]
    4010cc00:	910003fd 	mov	x29, sp
    4010cc04:	2a0103f4 	mov	w20, w1
    4010cc08:	2a0103e2 	mov	w2, w1
    4010cc0c:	2a1f03e1 	mov	w1, wzr
    4010cc10:	aa0003f3 	mov	x19, x0
    4010cc14:	940008d1 	bl	0x4010ef58
    4010cc18:	529e45e8 	mov	w8, #0xf22f                	// #61999
    4010cc1c:	d2a6000a 	mov	x10, #0x30000000            	// #805306368
    4010cc20:	72a24028 	movk	w8, #0x1201, lsl #16
    4010cc24:	5ac00a89 	rev	w9, w20
    4010cc28:	f2e2200a 	movk	x10, #0x1100, lsl #48
    4010cc2c:	52a6000b 	mov	w11, #0x30000000            	// #805306368
    4010cc30:	b9001a7f 	str	wzr, [x19, #24]
    4010cc34:	29002668 	stp	w8, w9, [x19]
    4010cc38:	a900aa6b 	stp	x11, x10, [x19, #8]
    4010cc3c:	a9414ff4 	ldp	x20, x19, [sp, #16]
    4010cc40:	2a1f03e0 	mov	w0, wzr
    4010cc44:	a8c27bfd 	ldp	x29, x30, [sp], #32
    4010cc48:	d65f03c0 	ret
    4010cc4c:	a9bb7bfd 	stp	x29, x30, [sp, #-80]!
    4010cc50:	f9000bf9 	str	x25, [sp, #16]
    4010cc54:	a9025ff8 	stp	x24, x23, [sp, #32]
    4010cc58:	a90357f6 	stp	x22, x21, [sp, #48]
    4010cc5c:	a9044ff4 	stp	x20, x19, [sp, #64]
    4010cc60:	910003fd 	mov	x29, sp
    4010cc64:	b9400008 	ldr	w8, [x0]
    4010cc68:	52802249 	mov	w9, #0x112                 	// #274
    4010cc6c:	72a5fe49 	movk	w9, #0x2ff2, lsl #16
    4010cc70:	529fddab 	mov	w11, #0xfeed                	// #65261
    4010cc74:	5ac00908 	rev	w8, w8
    4010cc78:	1280010a 	mov	w10, #0xfffffff7            	// #-9
    4010cc7c:	72ba01ab 	movk	w11, #0xd00d, lsl #16
    4010cc80:	6b09011f 	cmp	w8, w9
    4010cc84:	1a8a03e9 	csel	w9, wzr, w10, eq  // eq = none
    4010cc88:	6b0b011f 	cmp	w8, w11
    4010cc8c:	128000c8 	mov	w8, #0xfffffff9            	// #-7
    4010cc90:	aa0003f5 	mov	x21, x0
    4010cc94:	1a890100 	csel	w0, w8, w9, eq  // eq = none
    4010cc98:	350002a0 	cbnz	w0, 0x4010ccec
    4010cc9c:	2a0203f3 	mov	w19, w2
    4010cca0:	37f80242 	tbnz	w2, #31, 0x4010cce8
    4010cca4:	2940a2ab 	ldp	w11, w8, [x21, #4]
    4010cca8:	294426aa 	ldp	w10, w9, [x21, #32]
    4010ccac:	5ac00908 	rev	w8, w8
    4010ccb0:	5ac00929 	rev	w9, w9
    4010ccb4:	d3607d4a 	lsl	x10, x10, #32
    4010ccb8:	d3607d6b 	lsl	x11, x11, #32
    4010ccbc:	0b080136 	add	w22, w9, w8
    4010ccc0:	dac00d57 	rev	x23, x10
    4010ccc4:	8b1602ea 	add	x10, x23, x22
    4010ccc8:	dac00d69 	rev	x9, x11
    4010cccc:	eb09015f 	cmp	x10, x9
    4010ccd0:	54000069 	b.ls	0x4010ccdc  // b.plast
    4010ccd4:	12800180 	mov	w0, #0xfffffff3            	// #-13
    4010ccd8:	14000005 	b	0x4010ccec
    4010ccdc:	2a1303e8 	mov	w8, w19
    4010cce0:	eb08015f 	cmp	x10, x8
    4010cce4:	54000109 	b.ls	0x4010cd04  // b.plast
    4010cce8:	12800040 	mov	w0, #0xfffffffd            	// #-3
    4010ccec:	a9444ff4 	ldp	x20, x19, [sp, #64]
    4010ccf0:	a94357f6 	ldp	x22, x21, [sp, #48]
    4010ccf4:	a9425ff8 	ldp	x24, x23, [sp, #32]
    4010ccf8:	f9400bf9 	ldr	x25, [sp, #16]
    4010ccfc:	a8c57bfd 	ldp	x29, x30, [sp], #80
    4010cd00:	d65f03c0 	ret
    4010cd04:	8b0902a9 	add	x9, x21, x9
    4010cd08:	8b080028 	add	x8, x1, x8
    4010cd0c:	aa0103f4 	mov	x20, x1
    4010cd10:	eb15003f 	cmp	x1, x21
    4010cd14:	cb170138 	sub	x24, x9, x23
    4010cd18:	cb170119 	sub	x25, x8, x23
    4010cd1c:	54000129 	b.ls	0x4010cd40  // b.plast
    4010cd20:	aa1903e0 	mov	x0, x25
    4010cd24:	aa1803e1 	mov	x1, x24
    4010cd28:	aa1703e2 	mov	x2, x23
    4010cd2c:	940008b4 	bl	0x4010effc
    4010cd30:	aa1403e0 	mov	x0, x20
    4010cd34:	aa1503e1 	mov	x1, x21
    4010cd38:	aa1603e2 	mov	x2, x22
    4010cd3c:	14000008 	b	0x4010cd5c
    4010cd40:	aa1403e0 	mov	x0, x20
    4010cd44:	aa1503e1 	mov	x1, x21
    4010cd48:	aa1603e2 	mov	x2, x22
    4010cd4c:	940008ac 	bl	0x4010effc
    4010cd50:	aa1903e0 	mov	x0, x25
    4010cd54:	aa1803e1 	mov	x1, x24
    4010cd58:	aa1703e2 	mov	x2, x23
    4010cd5c:	940008a8 	bl	0x4010effc
    4010cd60:	b9400e89 	ldr	w9, [x20, #12]
    4010cd64:	5ac00a68 	rev	w8, w19
    4010cd68:	2a1f03e0 	mov	w0, wzr
    4010cd6c:	b9000688 	str	w8, [x20, #4]
    4010cd70:	5ac00929 	rev	w9, w9
    4010cd74:	34fffbc9 	cbz	w9, 0x4010ccec
    4010cd78:	b9000e88 	str	w8, [x20, #12]
    4010cd7c:	17ffffdc 	b	0x4010ccec
    4010cd80:	b9400008 	ldr	w8, [x0]
    4010cd84:	52802249 	mov	w9, #0x112                 	// #274
    4010cd88:	72a5fe49 	movk	w9, #0x2ff2, lsl #16
    4010cd8c:	529fddab 	mov	w11, #0xfeed                	// #65261
    4010cd90:	5ac00908 	rev	w8, w8
    4010cd94:	1280010a 	mov	w10, #0xfffffff7            	// #-9
    4010cd98:	72ba01ab 	movk	w11, #0xd00d, lsl #16
    4010cd9c:	6b09011f 	cmp	w8, w9
    4010cda0:	1a8a03e9 	csel	w9, wzr, w10, eq  // eq = none
    4010cda4:	6b0b011f 	cmp	w8, w11
    4010cda8:	128000c8 	mov	w8, #0xfffffff9            	// #-7
    4010cdac:	1a890108 	csel	w8, w8, w9, eq  // eq = none
    4010cdb0:	34000068 	cbz	w8, 0x4010cdbc
    4010cdb4:	2a0803e0 	mov	w0, w8
    4010cdb8:	d65f03c0 	ret
    4010cdbc:	b9400c08 	ldr	w8, [x0, #12]
    4010cdc0:	5ac00908 	rev	w8, w8
    4010cdc4:	34000068 	cbz	w8, 0x4010cdd0
    4010cdc8:	128000c0 	mov	w0, #0xfffffff9            	// #-7
    4010cdcc:	d65f03c0 	ret
    4010cdd0:	39402008 	ldrb	w8, [x0, #8]
    4010cdd4:	39402409 	ldrb	w9, [x0, #9]
    4010cdd8:	3940280b 	ldrb	w11, [x0, #10]
    4010cddc:	b940040a 	ldr	w10, [x0, #4]
    4010cde0:	39402c0c 	ldrb	w12, [x0, #11]
    4010cde4:	53081d08 	lsl	w8, w8, #24
    4010cde8:	93407d08 	sxtw	x8, w8
    4010cdec:	b3701d28 	bfi	x8, x9, #16, #8
    4010cdf0:	b3781d68 	bfi	x8, x11, #8, #8
    4010cdf4:	d3607d4d 	lsl	x13, x10, #32
    4010cdf8:	aa0c010a 	orr	x10, x8, x12
    4010cdfc:	91004149 	add	x9, x10, #0x10
    4010ce00:	dac00da8 	rev	x8, x13
    4010ce04:	eb08013f 	cmp	x9, x8
    4010ce08:	54000069 	b.ls	0x4010ce14  // b.plast
    4010ce0c:	12800040 	mov	w0, #0xfffffffd            	// #-3
    4010ce10:	d65f03c0 	ret
    4010ce14:	2a1f03e8 	mov	w8, wzr
    4010ce18:	8b0a000a 	add	x10, x0, x10
    4010ce1c:	dac00c2b 	rev	x11, x1
    4010ce20:	dac00c4c 	rev	x12, x2
    4010ce24:	5ac00929 	rev	w9, w9
    4010ce28:	a900314b 	stp	x11, x12, [x10]
    4010ce2c:	b9000809 	str	w9, [x0, #8]
    4010ce30:	2a0803e0 	mov	w0, w8
    4010ce34:	d65f03c0 	ret
    4010ce38:	a9be7bfd 	stp	x29, x30, [sp, #-32]!
    4010ce3c:	f9000bf3 	str	x19, [sp, #16]
    4010ce40:	910003fd 	mov	x29, sp
    4010ce44:	aa1f03e1 	mov	x1, xzr
    4010ce48:	aa1f03e2 	mov	x2, xzr
    4010ce4c:	aa0003f3 	mov	x19, x0
    4010ce50:	97ffffcc 	bl	0x4010cd80
    4010ce54:	35000060 	cbnz	w0, 0x4010ce60
    4010ce58:	b9400668 	ldr	w8, [x19, #4]
    4010ce5c:	b9000e68 	str	w8, [x19, #12]
    4010ce60:	f9400bf3 	ldr	x19, [sp, #16]
    4010ce64:	a8c27bfd 	ldp	x29, x30, [sp], #32
    4010ce68:	d65f03c0 	ret
    4010ce6c:	a9be7bfd 	stp	x29, x30, [sp, #-32]!
    4010ce70:	a9014ff4 	stp	x20, x19, [sp, #16]
    4010ce74:	910003fd 	mov	x29, sp
    4010ce78:	b9400008 	ldr	w8, [x0]
    4010ce7c:	52802249 	mov	w9, #0x112                 	// #274
    4010ce80:	72a5fe49 	movk	w9, #0x2ff2, lsl #16
    4010ce84:	529fddab 	mov	w11, #0xfeed                	// #65261
    4010ce88:	5ac00908 	rev	w8, w8
    4010ce8c:	1280010a 	mov	w10, #0xfffffff7            	// #-9
    4010ce90:	72ba01ab 	movk	w11, #0xd00d, lsl #16
    4010ce94:	6b09011f 	cmp	w8, w9
    4010ce98:	1a8a03e9 	csel	w9, wzr, w10, eq  // eq = none
    4010ce9c:	6b0b011f 	cmp	w8, w11
    4010cea0:	128000c8 	mov	w8, #0xfffffff9            	// #-7
    4010cea4:	aa0003f3 	mov	x19, x0
    4010cea8:	1a890100 	csel	w0, w8, w9, eq  // eq = none
    4010ceac:	35000400 	cbnz	w0, 0x4010cf2c
    4010ceb0:	b9400e68 	ldr	w8, [x19, #12]
    4010ceb4:	b9400669 	ldr	w9, [x19, #4]
    4010ceb8:	5ac00908 	rev	w8, w8
    4010cebc:	5ac00929 	rev	w9, w9
    4010cec0:	6b09011f 	cmp	w8, w9
    4010cec4:	54000321 	b.ne	0x4010cf28  // b.any
    4010cec8:	aa0103e0 	mov	x0, x1
    4010cecc:	aa0103f4 	mov	x20, x1
    4010ced0:	94000868 	bl	0x4010f070
    4010ced4:	b9402669 	ldr	w9, [x19, #36]
    4010ced8:	11000408 	add	w8, w0, #0x1
    4010cedc:	93407d02 	sxtw	x2, w8
    4010cee0:	91001c48 	add	x8, x2, #0x7
    4010cee4:	927ef50a 	and	x10, x8, #0xfffffffffffffffc
    4010cee8:	d3607d28 	lsl	x8, x9, #32
    4010ceec:	dac00d08 	rev	x8, x8
    4010cef0:	ab080149 	adds	x9, x10, x8
    4010cef4:	54000162 	b.cs	0x4010cf20  // b.hs, b.nlast
    4010cef8:	b940226a 	ldr	w10, [x19, #32]
    4010cefc:	2940ae6c 	ldp	w12, w11, [x19, #4]
    4010cf00:	5ac0094d 	rev	w13, w10
    4010cf04:	d3607d6a 	lsl	x10, x11, #32
    4010cf08:	dac00d4a 	rev	x10, x10
    4010cf0c:	5ac0098b 	rev	w11, w12
    4010cf10:	0b0d014c 	add	w12, w10, w13
    4010cf14:	4b0c016b 	sub	w11, w11, w12
    4010cf18:	eb0b013f 	cmp	x9, x11
    4010cf1c:	540000e9 	b.ls	0x4010cf38  // b.plast
    4010cf20:	12800040 	mov	w0, #0xfffffffd            	// #-3
    4010cf24:	14000002 	b	0x4010cf2c
    4010cf28:	128000c0 	mov	w0, #0xfffffff9            	// #-7
    4010cf2c:	a9414ff4 	ldp	x20, x19, [sp, #16]
    4010cf30:	a8c27bfd 	ldp	x29, x30, [sp], #32
    4010cf34:	d65f03c0 	ret
    4010cf38:	8b0a026a 	add	x10, x19, x10
    4010cf3c:	5ac00929 	rev	w9, w9
    4010cf40:	8b28c140 	add	x0, x10, w8, sxtw
    4010cf44:	52a02008 	mov	w8, #0x1000000             	// #16777216
    4010cf48:	b9002669 	str	w9, [x19, #36]
    4010cf4c:	b8004408 	str	w8, [x0], #4
    4010cf50:	aa1403e1 	mov	x1, x20
    4010cf54:	940007fa 	bl	0x4010ef3c
    4010cf58:	2a1f03e0 	mov	w0, wzr
    4010cf5c:	17fffff4 	b	0x4010cf2c
    4010cf60:	b9400008 	ldr	w8, [x0]
    4010cf64:	52802249 	mov	w9, #0x112                 	// #274
    4010cf68:	72a5fe49 	movk	w9, #0x2ff2, lsl #16
    4010cf6c:	529fddab 	mov	w11, #0xfeed                	// #65261
    4010cf70:	5ac00908 	rev	w8, w8
    4010cf74:	1280010a 	mov	w10, #0xfffffff7            	// #-9
    4010cf78:	72ba01ab 	movk	w11, #0xd00d, lsl #16
    4010cf7c:	6b09011f 	cmp	w8, w9
    4010cf80:	1a8a03e9 	csel	w9, wzr, w10, eq  // eq = none
    4010cf84:	6b0b011f 	cmp	w8, w11
    4010cf88:	128000c8 	mov	w8, #0xfffffff9            	// #-7
    4010cf8c:	1a890108 	csel	w8, w8, w9, eq  // eq = none
    4010cf90:	34000068 	cbz	w8, 0x4010cf9c
    4010cf94:	2a0803e0 	mov	w0, w8
    4010cf98:	d65f03c0 	ret
    4010cf9c:	3940100b 	ldrb	w11, [x0, #4]
    4010cfa0:	39401408 	ldrb	w8, [x0, #5]
    4010cfa4:	39401809 	ldrb	w9, [x0, #6]
    4010cfa8:	b9400c0c 	ldr	w12, [x0, #12]
    4010cfac:	39401c0a 	ldrb	w10, [x0, #7]
    4010cfb0:	53081d6d 	lsl	w13, w11, #24
    4010cfb4:	33101d0d 	bfi	w13, w8, #16, #8
    4010cfb8:	33181d2d 	bfi	w13, w9, #8, #8
    4010cfbc:	5ac0098c 	rev	w12, w12
    4010cfc0:	2a0a01ad 	orr	w13, w13, w10
    4010cfc4:	6b0d019f 	cmp	w12, w13
    4010cfc8:	54000281 	b.ne	0x4010d018  // b.any
    4010cfcc:	2944300d 	ldp	w13, w12, [x0, #32]
    4010cfd0:	b940080e 	ldr	w14, [x0, #8]
    4010cfd4:	92401d6b 	and	x11, x11, #0xff
    4010cfd8:	53081d6b 	lsl	w11, w11, #24
    4010cfdc:	33101d0b 	bfi	w11, w8, #16, #8
    4010cfe0:	33181d2b 	bfi	w11, w9, #8, #8
    4010cfe4:	d3607d88 	lsl	x8, x12, #32
    4010cfe8:	5ac009ac 	rev	w12, w13
    4010cfec:	d3607dcd 	lsl	x13, x14, #32
    4010cff0:	2a0a016e 	orr	w14, w11, w10
    4010cff4:	dac00daa 	rev	x10, x13
    4010cff8:	dac00d09 	rev	x9, x8
    4010cffc:	0b0c0148 	add	w8, w10, w12
    4010d000:	9100112b 	add	x11, x9, #0x4
    4010d004:	4b0801c8 	sub	w8, w14, w8
    4010d008:	eb08017f 	cmp	x11, x8
    4010d00c:	540000a9 	b.ls	0x4010d020  // b.plast
    4010d010:	12800040 	mov	w0, #0xfffffffd            	// #-3
    4010d014:	d65f03c0 	ret
    4010d018:	128000c0 	mov	w0, #0xfffffff9            	// #-7
    4010d01c:	d65f03c0 	ret
    4010d020:	2a1f03e8 	mov	w8, wzr
    4010d024:	5ac0096b 	rev	w11, w11
    4010d028:	8b0a000a 	add	x10, x0, x10
    4010d02c:	52a0400c 	mov	w12, #0x2000000             	// #33554432
    4010d030:	b900240b 	str	w11, [x0, #36]
    4010d034:	b829c94c 	str	w12, [x10, w9, sxtw]
    4010d038:	2a0803e0 	mov	w0, w8
    4010d03c:	d65f03c0 	ret
    4010d040:	a9bc7bfd 	stp	x29, x30, [sp, #-64]!
    4010d044:	f9000bf7 	str	x23, [sp, #16]
    4010d048:	a90257f6 	stp	x22, x21, [sp, #32]
    4010d04c:	a9034ff4 	stp	x20, x19, [sp, #48]
    4010d050:	910003fd 	mov	x29, sp
    4010d054:	b9400008 	ldr	w8, [x0]
    4010d058:	52802249 	mov	w9, #0x112                 	// #274
    4010d05c:	72a5fe49 	movk	w9, #0x2ff2, lsl #16
    4010d060:	529fddab 	mov	w11, #0xfeed                	// #65261
    4010d064:	5ac00908 	rev	w8, w8
    4010d068:	1280010a 	mov	w10, #0xfffffff7            	// #-9
    4010d06c:	72ba01ab 	movk	w11, #0xd00d, lsl #16
    4010d070:	6b09011f 	cmp	w8, w9
    4010d074:	1a8a03e9 	csel	w9, wzr, w10, eq  // eq = none
    4010d078:	6b0b011f 	cmp	w8, w11
    4010d07c:	128000c8 	mov	w8, #0xfffffff9            	// #-7
    4010d080:	1a890108 	csel	w8, w8, w9, eq  // eq = none
    4010d084:	350009a8 	cbnz	w8, 0x4010d1b8
    4010d088:	3940100b 	ldrb	w11, [x0, #4]
    4010d08c:	39401409 	ldrb	w9, [x0, #5]
    4010d090:	3940180a 	ldrb	w10, [x0, #6]
    4010d094:	b9400c0c 	ldr	w12, [x0, #12]
    4010d098:	39401c08 	ldrb	w8, [x0, #7]
    4010d09c:	53081d6d 	lsl	w13, w11, #24
    4010d0a0:	33101d2d 	bfi	w13, w9, #16, #8
    4010d0a4:	33181d4d 	bfi	w13, w10, #8, #8
    4010d0a8:	5ac0098c 	rev	w12, w12
    4010d0ac:	2a0801ad 	orr	w13, w13, w8
    4010d0b0:	aa0003f3 	mov	x19, x0
    4010d0b4:	6b0d019f 	cmp	w12, w13
    4010d0b8:	540003a1 	b.ne	0x4010d12c  // b.any
    4010d0bc:	39406e6c 	ldrb	w12, [x19, #27]
    4010d0c0:	aa0303f4 	mov	x20, x3
    4010d0c4:	2a0203f5 	mov	w21, w2
    4010d0c8:	aa0103f6 	mov	x22, x1
    4010d0cc:	3700034c 	tbnz	w12, #0, 0x4010d134
    4010d0d0:	92401d6b 	and	x11, x11, #0xff
    4010d0d4:	3940826c 	ldrb	w12, [x19, #32]
    4010d0d8:	d3689d6b 	lsl	x11, x11, #24
    4010d0dc:	b3701d2b 	bfi	x11, x9, #16, #8
    4010d0e0:	39408669 	ldrb	w9, [x19, #33]
    4010d0e4:	b3781d4b 	bfi	x11, x10, #8, #8
    4010d0e8:	39408a6a 	ldrb	w10, [x19, #34]
    4010d0ec:	aa080168 	orr	x8, x11, x8
    4010d0f0:	39408e6b 	ldrb	w11, [x19, #35]
    4010d0f4:	53081d8c 	lsl	w12, w12, #24
    4010d0f8:	93407d8c 	sxtw	x12, w12
    4010d0fc:	b3701d2c 	bfi	x12, x9, #16, #8
    4010d100:	b3781d4c 	bfi	x12, x10, #8, #8
    4010d104:	8b080277 	add	x23, x19, x8
    4010d108:	aa0b0181 	orr	x1, x12, x11
    4010d10c:	cb0102e0 	sub	x0, x23, x1
    4010d110:	aa1603e2 	mov	x2, x22
    4010d114:	97ffef24 	bl	0x40108da4
    4010d118:	b40000e0 	cbz	x0, 0x4010d134
    4010d11c:	2a1f03e8 	mov	w8, wzr
    4010d120:	4b170000 	sub	w0, w0, w23
    4010d124:	35000120 	cbnz	w0, 0x4010d148
    4010d128:	14000023 	b	0x4010d1b4
    4010d12c:	128000c8 	mov	w8, #0xfffffff9            	// #-7
    4010d130:	14000022 	b	0x4010d1b8
    4010d134:	aa1303e0 	mov	x0, x19
    4010d138:	aa1603e1 	mov	x1, x22
    4010d13c:	94000031 	bl	0x4010d200
    4010d140:	52800028 	mov	w8, #0x1                   	// #1
    4010d144:	34000380 	cbz	w0, 0x4010d1b4
    4010d148:	b9402669 	ldr	w9, [x19, #36]
    4010d14c:	93407eaa 	sxtw	x10, w21
    4010d150:	91003d4a 	add	x10, x10, #0xf
    4010d154:	927ef54a 	and	x10, x10, #0xfffffffffffffffc
    4010d158:	d3607d29 	lsl	x9, x9, #32
    4010d15c:	dac00d29 	rev	x9, x9
    4010d160:	ab09014a 	adds	x10, x10, x9
    4010d164:	54000162 	b.cs	0x4010d190  // b.hs, b.nlast
    4010d168:	b940226b 	ldr	w11, [x19, #32]
    4010d16c:	2940b26d 	ldp	w13, w12, [x19, #4]
    4010d170:	5ac0096e 	rev	w14, w11
    4010d174:	d3607d8b 	lsl	x11, x12, #32
    4010d178:	dac00d6b 	rev	x11, x11
    4010d17c:	5ac009ac 	rev	w12, w13
    4010d180:	0b0e016d 	add	w13, w11, w14
    4010d184:	4b0d018c 	sub	w12, w12, w13
    4010d188:	eb0c015f 	cmp	x10, x12
    4010d18c:	54000229 	b.ls	0x4010d1d0  // b.plast
    4010d190:	34000128 	cbz	w8, 0x4010d1b4
    4010d194:	b9402268 	ldr	w8, [x19, #32]
    4010d198:	aa1603e0 	mov	x0, x22
    4010d19c:	5ac00914 	rev	w20, w8
    4010d1a0:	940007b4 	bl	0x4010f070
    4010d1a4:	2a2003e8 	mvn	w8, w0
    4010d1a8:	0b080288 	add	w8, w20, w8
    4010d1ac:	5ac00908 	rev	w8, w8
    4010d1b0:	b9002268 	str	w8, [x19, #32]
    4010d1b4:	12800048 	mov	w8, #0xfffffffd            	// #-3
    4010d1b8:	a9434ff4 	ldp	x20, x19, [sp, #48]
    4010d1bc:	a94257f6 	ldp	x22, x21, [sp, #32]
    4010d1c0:	f9400bf7 	ldr	x23, [sp, #16]
    4010d1c4:	2a0803e0 	mov	w0, w8
    4010d1c8:	a8c47bfd 	ldp	x29, x30, [sp], #64
    4010d1cc:	d65f03c0 	ret
    4010d1d0:	8b0b026b 	add	x11, x19, x11
    4010d1d4:	5ac0094a 	rev	w10, w10
    4010d1d8:	52a0600c 	mov	w12, #0x3000000             	// #50331648
    4010d1dc:	5ac0080d 	rev	w13, w0
    4010d1e0:	5ac00aae 	rev	w14, w21
    4010d1e4:	8b29c169 	add	x9, x11, w9, sxtw
    4010d1e8:	2a1f03e8 	mov	w8, wzr
    4010d1ec:	b900266a 	str	w10, [x19, #36]
    4010d1f0:	2900b52e 	stp	w14, w13, [x9, #4]
    4010d1f4:	b800c52c 	str	w12, [x9], #12
    4010d1f8:	f9000289 	str	x9, [x20]
    4010d1fc:	17ffffef 	b	0x4010d1b8
    4010d200:	a9bb7bfd 	stp	x29, x30, [sp, #-80]!
    4010d204:	f9000bf9 	str	x25, [sp, #16]
    4010d208:	a9025ff8 	stp	x24, x23, [sp, #32]
    4010d20c:	a90357f6 	stp	x22, x21, [sp, #48]
    4010d210:	a9044ff4 	stp	x20, x19, [sp, #64]
    4010d214:	910003fd 	mov	x29, sp
    4010d218:	b9402008 	ldr	w8, [x0, #32]
    4010d21c:	39401018 	ldrb	w24, [x0, #4]
    4010d220:	39401416 	ldrb	w22, [x0, #5]
    4010d224:	39401815 	ldrb	w21, [x0, #6]
    4010d228:	39401c17 	ldrb	w23, [x0, #7]
    4010d22c:	aa0003f3 	mov	x19, x0
    4010d230:	aa0103e0 	mov	x0, x1
    4010d234:	aa0103f4 	mov	x20, x1
    4010d238:	5ac00919 	rev	w25, w8
    4010d23c:	9400078d 	bl	0x4010f070
    4010d240:	2940a66b 	ldp	w11, w9, [x19, #4]
    4010d244:	b940266a 	ldr	w10, [x19, #36]
    4010d248:	11000408 	add	w8, w0, #0x1
    4010d24c:	0b080339 	add	w25, w25, w8
    4010d250:	5ac00929 	rev	w9, w9
    4010d254:	5ac0094a 	rev	w10, w10
    4010d258:	5ac0096b 	rev	w11, w11
    4010d25c:	0b090149 	add	w9, w10, w9
    4010d260:	4b19016a 	sub	w10, w11, w25
    4010d264:	6b09015f 	cmp	w10, w9
    4010d268:	54000062 	b.cs	0x4010d274  // b.hs, b.nlast
    4010d26c:	2a1f03e0 	mov	w0, wzr
    4010d270:	1400000d 	b	0x4010d2a4
    4010d274:	d3689f09 	lsl	x9, x24, #24
    4010d278:	b3701ec9 	bfi	x9, x22, #16, #8
    4010d27c:	b3781ea9 	bfi	x9, x21, #8, #8
    4010d280:	aa170129 	orr	x9, x9, x23
    4010d284:	8b090269 	add	x9, x19, x9
    4010d288:	cb394120 	sub	x0, x9, w25, uxtw
    4010d28c:	2a0803e2 	mov	w2, w8
    4010d290:	aa1403e1 	mov	x1, x20
    4010d294:	9400072a 	bl	0x4010ef3c
    4010d298:	5ac00b28 	rev	w8, w25
    4010d29c:	4b1903e0 	neg	w0, w25
    4010d2a0:	b9002268 	str	w8, [x19, #32]
    4010d2a4:	a9444ff4 	ldp	x20, x19, [sp, #64]
    4010d2a8:	a94357f6 	ldp	x22, x21, [sp, #48]
    4010d2ac:	a9425ff8 	ldp	x24, x23, [sp, #32]
    4010d2b0:	f9400bf9 	ldr	x25, [sp, #16]
    4010d2b4:	a8c57bfd 	ldp	x29, x30, [sp], #80
    4010d2b8:	d65f03c0 	ret
    4010d2bc:	a9bd7bfd 	stp	x29, x30, [sp, #-48]!
    4010d2c0:	f9000bf5 	str	x21, [sp, #16]
    4010d2c4:	a9024ff4 	stp	x20, x19, [sp, #32]
    4010d2c8:	910003fd 	mov	x29, sp
    4010d2cc:	2a0303f4 	mov	w20, w3
    4010d2d0:	aa0203f3 	mov	x19, x2
    4010d2d4:	910063a3 	add	x3, x29, #0x18
    4010d2d8:	2a1403e2 	mov	w2, w20
    4010d2dc:	97ffff59 	bl	0x4010d040
    4010d2e0:	2a0003f5 	mov	w21, w0
    4010d2e4:	350000a0 	cbnz	w0, 0x4010d2f8
    4010d2e8:	f9400fa0 	ldr	x0, [x29, #24]
    4010d2ec:	93407e82 	sxtw	x2, w20
    4010d2f0:	aa1303e1 	mov	x1, x19
    4010d2f4:	94000712 	bl	0x4010ef3c
    4010d2f8:	2a1503e0 	mov	w0, w21
    4010d2fc:	a9424ff4 	ldp	x20, x19, [sp, #32]
    4010d300:	f9400bf5 	ldr	x21, [sp, #16]
    4010d304:	a8c37bfd 	ldp	x29, x30, [sp], #48
    4010d308:	d65f03c0 	ret
    4010d30c:	d10103ff 	sub	sp, sp, #0x40
    4010d310:	a9017bfd 	stp	x29, x30, [sp, #16]
    4010d314:	a90257f6 	stp	x22, x21, [sp, #32]
    4010d318:	a9034ff4 	stp	x20, x19, [sp, #48]
    4010d31c:	910043fd 	add	x29, sp, #0x10
    4010d320:	b9400008 	ldr	w8, [x0]
    4010d324:	52802249 	mov	w9, #0x112                 	// #274
    4010d328:	72a5fe49 	movk	w9, #0x2ff2, lsl #16
    4010d32c:	529fddab 	mov	w11, #0xfeed                	// #65261
    4010d330:	5ac00908 	rev	w8, w8
    4010d334:	1280010a 	mov	w10, #0xfffffff7            	// #-9
    4010d338:	72ba01ab 	movk	w11, #0xd00d, lsl #16
    4010d33c:	6b09011f 	cmp	w8, w9
    4010d340:	1a8a03e9 	csel	w9, wzr, w10, eq  // eq = none
    4010d344:	6b0b011f 	cmp	w8, w11
    4010d348:	128000c8 	mov	w8, #0xfffffff9            	// #-7
    4010d34c:	aa0003f3 	mov	x19, x0
    4010d350:	1a890100 	csel	w0, w8, w9, eq  // eq = none
    4010d354:	35000b20 	cbnz	w0, 0x4010d4b8
    4010d358:	3940126b 	ldrb	w11, [x19, #4]
    4010d35c:	39401668 	ldrb	w8, [x19, #5]
    4010d360:	39401a69 	ldrb	w9, [x19, #6]
    4010d364:	b9400e6c 	ldr	w12, [x19, #12]
    4010d368:	39401e6a 	ldrb	w10, [x19, #7]
    4010d36c:	53081d6d 	lsl	w13, w11, #24
    4010d370:	33101d0d 	bfi	w13, w8, #16, #8
    4010d374:	33181d2d 	bfi	w13, w9, #8, #8
    4010d378:	5ac0098c 	rev	w12, w12
    4010d37c:	2a0a01ad 	orr	w13, w13, w10
    4010d380:	6b0d019f 	cmp	w12, w13
    4010d384:	540002a1 	b.ne	0x4010d3d8  // b.any
    4010d388:	aa1303f5 	mov	x21, x19
    4010d38c:	92401d6b 	and	x11, x11, #0xff
    4010d390:	b8408eac 	ldr	w12, [x21, #8]!
    4010d394:	53081d6b 	lsl	w11, w11, #24
    4010d398:	33101d0b 	bfi	w11, w8, #16, #8
    4010d39c:	33181d2b 	bfi	w11, w9, #8, #8
    4010d3a0:	2a0a016b 	orr	w11, w11, w10
    4010d3a4:	294322aa 	ldp	w10, w8, [x21, #24]
    4010d3a8:	d3607d89 	lsl	x9, x12, #32
    4010d3ac:	dac00d29 	rev	x9, x9
    4010d3b0:	d3607d08 	lsl	x8, x8, #32
    4010d3b4:	5ac0094a 	rev	w10, w10
    4010d3b8:	dac00d08 	rev	x8, x8
    4010d3bc:	0b0a012c 	add	w12, w9, w10
    4010d3c0:	9100110a 	add	x10, x8, #0x4
    4010d3c4:	4b0c016b 	sub	w11, w11, w12
    4010d3c8:	eb0b015f 	cmp	x10, x11
    4010d3cc:	540000a9 	b.ls	0x4010d3e0  // b.plast
    4010d3d0:	12800040 	mov	w0, #0xfffffffd            	// #-3
    4010d3d4:	14000039 	b	0x4010d4b8
    4010d3d8:	128000c0 	mov	w0, #0xfffffff9            	// #-7
    4010d3dc:	14000037 	b	0x4010d4b8
    4010d3e0:	5ac0094a 	rev	w10, w10
    4010d3e4:	8b090269 	add	x9, x19, x9
    4010d3e8:	52a1200b 	mov	w11, #0x9000000             	// #150994944
    4010d3ec:	b900266a 	str	w10, [x19, #36]
    4010d3f0:	b828c92b 	str	w11, [x9, w8, sxtw]
    4010d3f4:	29442e69 	ldp	w9, w11, [x19, #32]
    4010d3f8:	2940aa68 	ldp	w8, w10, [x19, #4]
    4010d3fc:	d3607d29 	lsl	x9, x9, #32
    4010d400:	5ac00908 	rev	w8, w8
    4010d404:	5ac0094a 	rev	w10, w10
    4010d408:	5ac0096b 	rev	w11, w11
    4010d40c:	dac00d22 	rev	x2, x9
    4010d410:	0b0a0176 	add	w22, w11, w10
    4010d414:	4b020108 	sub	w8, w8, w2
    4010d418:	8b36c260 	add	x0, x19, w22, sxtw
    4010d41c:	8b28c261 	add	x1, x19, w8, sxtw
    4010d420:	940006f7 	bl	0x4010effc
    4010d424:	2a1f03f4 	mov	w20, wzr
    4010d428:	5ac00ac8 	rev	w8, w22
    4010d42c:	b9000e68 	str	w8, [x19, #12]
    4010d430:	1400000e 	b	0x4010d468
    4010d434:	b9400a68 	ldr	w8, [x19, #8]
    4010d438:	93407e89 	sxtw	x9, w20
    4010d43c:	b940226b 	ldr	w11, [x19, #32]
    4010d440:	d3607d08 	lsl	x8, x8, #32
    4010d444:	dac00d08 	rev	x8, x8
    4010d448:	8b0802a8 	add	x8, x21, x8
    4010d44c:	b869690a 	ldr	w10, [x8, x9]
    4010d450:	5ac0096b 	rev	w11, w11
    4010d454:	5ac0094a 	rev	w10, w10
    4010d458:	0b0a016a 	add	w10, w11, w10
    4010d45c:	5ac0094a 	rev	w10, w10
    4010d460:	b829690a 	str	w10, [x8, x9]
    4010d464:	b85fc3b4 	ldur	w20, [x29, #-4]
    4010d468:	d10013a2 	sub	x2, x29, #0x4
    4010d46c:	aa1303e0 	mov	x0, x19
    4010d470:	2a1403e1 	mov	w1, w20
    4010d474:	97ffed37 	bl	0x40108950
    4010d478:	71000c1f 	cmp	w0, #0x3
    4010d47c:	54fffdc0 	b.eq	0x4010d434  // b.none
    4010d480:	7100241f 	cmp	w0, #0x9
    4010d484:	54ffff01 	b.ne	0x4010d464  // b.any
    4010d488:	b85fc3a0 	ldur	w0, [x29, #-4]
    4010d48c:	37f80160 	tbnz	w0, #31, 0x4010d4b8
    4010d490:	b9402268 	ldr	w8, [x19, #32]
    4010d494:	5281ba0a 	mov	w10, #0xdd0                 	// #3536
    4010d498:	2a1f03e0 	mov	w0, wzr
    4010d49c:	52a20009 	mov	w9, #0x10000000            	// #268435456
    4010d4a0:	5ac00908 	rev	w8, w8
    4010d4a4:	0b160108 	add	w8, w8, w22
    4010d4a8:	72bdbfca 	movk	w10, #0xedfe, lsl #16
    4010d4ac:	5ac00908 	rev	w8, w8
    4010d4b0:	b9001a69 	str	w9, [x19, #24]
    4010d4b4:	2900226a 	stp	w10, w8, [x19]
    4010d4b8:	a9434ff4 	ldp	x20, x19, [sp, #48]
    4010d4bc:	a94257f6 	ldp	x22, x21, [sp, #32]
    4010d4c0:	a9417bfd 	ldp	x29, x30, [sp, #16]
    4010d4c4:	910103ff 	add	sp, sp, #0x40
    4010d4c8:	d65f03c0 	ret
    4010d4cc:	a9bd7bfd 	stp	x29, x30, [sp, #-48]!
    4010d4d0:	f9000bf5 	str	x21, [sp, #16]
    4010d4d4:	a9024ff4 	stp	x20, x19, [sp, #32]
    4010d4d8:	910003fd 	mov	x29, sp
    4010d4dc:	2a0403f5 	mov	w21, w4
    4010d4e0:	910073a4 	add	x4, x29, #0x1c
    4010d4e4:	2a0603f4 	mov	w20, w6
    4010d4e8:	aa0503f3 	mov	x19, x5
    4010d4ec:	97fff592 	bl	0x4010ab34
    4010d4f0:	b9401fa8 	ldr	w8, [x29, #28]
    4010d4f4:	b4000160 	cbz	x0, 0x4010d520
    4010d4f8:	0b150289 	add	w9, w20, w21
    4010d4fc:	6b09011f 	cmp	w8, w9
    4010d500:	54000062 	b.cs	0x4010d50c  // b.hs, b.nlast
    4010d504:	12800048 	mov	w8, #0xfffffffd            	// #-3
    4010d508:	14000006 	b	0x4010d520
    4010d50c:	8b354000 	add	x0, x0, w21, uxtw
    4010d510:	93407e82 	sxtw	x2, w20
    4010d514:	aa1303e1 	mov	x1, x19
    4010d518:	94000689 	bl	0x4010ef3c
    4010d51c:	2a1f03e8 	mov	w8, wzr
    4010d520:	a9424ff4 	ldp	x20, x19, [sp, #32]
    4010d524:	f9400bf5 	ldr	x21, [sp, #16]
    4010d528:	2a0803e0 	mov	w0, w8
    4010d52c:	a8c37bfd 	ldp	x29, x30, [sp], #48
    4010d530:	d65f03c0 	ret
    4010d534:	a9bc7bfd 	stp	x29, x30, [sp, #-64]!
    4010d538:	f9000bf7 	str	x23, [sp, #16]
    4010d53c:	a90257f6 	stp	x22, x21, [sp, #32]
    4010d540:	a9034ff4 	stp	x20, x19, [sp, #48]
    4010d544:	910003fd 	mov	x29, sp
    4010d548:	aa0303f3 	mov	x19, x3
    4010d54c:	910063a3 	add	x3, x29, #0x18
    4010d550:	2a0403f4 	mov	w20, w4
    4010d554:	aa0203f5 	mov	x21, x2
    4010d558:	2a0103f6 	mov	w22, w1
    4010d55c:	aa0003f7 	mov	x23, x0
    4010d560:	97fff5c7 	bl	0x4010ac7c
    4010d564:	b9401ba8 	ldr	w8, [x29, #24]
    4010d568:	b40002a0 	cbz	x0, 0x4010d5bc
    4010d56c:	6b14011f 	cmp	w8, w20
    4010d570:	540001a1 	b.ne	0x4010d5a4  // b.any
    4010d574:	aa1503e0 	mov	x0, x21
    4010d578:	940006be 	bl	0x4010f070
    4010d57c:	aa0003e3 	mov	x3, x0
    4010d580:	910073a4 	add	x4, x29, #0x1c
    4010d584:	aa1703e0 	mov	x0, x23
    4010d588:	2a1603e1 	mov	w1, w22
    4010d58c:	aa1503e2 	mov	x2, x21
    4010d590:	97fff569 	bl	0x4010ab34
    4010d594:	b9401fa8 	ldr	w8, [x29, #28]
    4010d598:	b4000120 	cbz	x0, 0x4010d5bc
    4010d59c:	6b14011f 	cmp	w8, w20
    4010d5a0:	54000062 	b.cs	0x4010d5ac  // b.hs, b.nlast
    4010d5a4:	12800048 	mov	w8, #0xfffffffd            	// #-3
    4010d5a8:	14000005 	b	0x4010d5bc
    4010d5ac:	93407e82 	sxtw	x2, w20
    4010d5b0:	aa1303e1 	mov	x1, x19
    4010d5b4:	94000662 	bl	0x4010ef3c
    4010d5b8:	2a1f03e8 	mov	w8, wzr
    4010d5bc:	a9434ff4 	ldp	x20, x19, [sp, #48]
    4010d5c0:	a94257f6 	ldp	x22, x21, [sp, #32]
    4010d5c4:	f9400bf7 	ldr	x23, [sp, #16]
    4010d5c8:	2a0803e0 	mov	w0, w8
    4010d5cc:	a8c47bfd 	ldp	x29, x30, [sp], #64
    4010d5d0:	d65f03c0 	ret
    4010d5d4:	d10083ff 	sub	sp, sp, #0x20
    4010d5d8:	a9017bfd 	stp	x29, x30, [sp, #16]
    4010d5dc:	910043fd 	add	x29, sp, #0x10
    4010d5e0:	d10013a3 	sub	x3, x29, #0x4
    4010d5e4:	97fff534 	bl	0x4010aab4
    4010d5e8:	b85fc3a8 	ldur	w8, [x29, #-4]
    4010d5ec:	b40003a0 	cbz	x0, 0x4010d660
    4010d5f0:	11003108 	add	w8, w8, #0xc
    4010d5f4:	7100051f 	cmp	w8, #0x1
    4010d5f8:	5400032b 	b.lt	0x4010d65c  // b.tstop
    4010d5fc:	93407d08 	sxtw	x8, w8
    4010d600:	91001009 	add	x9, x0, #0x4
    4010d604:	8b080008 	add	x8, x0, x8
    4010d608:	eb09011f 	cmp	x8, x9
    4010d60c:	9a89810a 	csel	x10, x8, x9, hi  // hi = pmore
    4010d610:	aa2003eb 	mvn	x11, x0
    4010d614:	8b0b014a 	add	x10, x10, x11
    4010d618:	d342fd4a 	lsr	x10, x10, #2
    4010d61c:	b400018a 	cbz	x10, 0x4010d64c
    4010d620:	9100054a 	add	x10, x10, #0x1
    4010d624:	927ff54b 	and	x11, x10, #0x7ffffffffffffffe
    4010d628:	8b0b0800 	add	x0, x0, x11, lsl #2
    4010d62c:	b20603ec 	mov	x12, #0x400000004000000     	// #288230376218820608
    4010d630:	aa0b03ed 	mov	x13, x11
    4010d634:	f81fc12c 	stur	x12, [x9, #-4]
    4010d638:	f10009ad 	subs	x13, x13, #0x2
    4010d63c:	91002129 	add	x9, x9, #0x8
    4010d640:	54ffffa1 	b.ne	0x4010d634  // b.any
    4010d644:	eb0b015f 	cmp	x10, x11
    4010d648:	540000a0 	b.eq	0x4010d65c  // b.none
    4010d64c:	52a08009 	mov	w9, #0x4000000             	// #67108864
    4010d650:	b8004409 	str	w9, [x0], #4
    4010d654:	eb00011f 	cmp	x8, x0
    4010d658:	54ffffc8 	b.hi	0x4010d650  // b.pmore
    4010d65c:	2a1f03e8 	mov	w8, wzr
    4010d660:	a9417bfd 	ldp	x29, x30, [sp, #16]
    4010d664:	2a0803e0 	mov	w0, w8
    4010d668:	910083ff 	add	sp, sp, #0x20
    4010d66c:	d65f03c0 	ret
    4010d670:	a9be7bfd 	stp	x29, x30, [sp, #-32]!
    4010d674:	f9000bf3 	str	x19, [sp, #16]
    4010d678:	910003fd 	mov	x29, sp
    4010d67c:	b9001fbf 	str	wzr, [x29, #28]
    4010d680:	37f80121 	tbnz	w1, #31, 0x4010d6a4
    4010d684:	aa0003f3 	mov	x19, x0
    4010d688:	910073a2 	add	x2, x29, #0x1c
    4010d68c:	aa1303e0 	mov	x0, x19
    4010d690:	97ffed1a 	bl	0x40108af8
    4010d694:	b9401fa8 	ldr	w8, [x29, #28]
    4010d698:	2a0003e1 	mov	w1, w0
    4010d69c:	2a000108 	orr	w8, w8, w0
    4010d6a0:	36ffff48 	tbz	w8, #31, 0x4010d688
    4010d6a4:	f9400bf3 	ldr	x19, [sp, #16]
    4010d6a8:	2a0103e0 	mov	w0, w1
    4010d6ac:	a8c27bfd 	ldp	x29, x30, [sp], #32
    4010d6b0:	d65f03c0 	ret
    4010d6b4:	a9bd7bfd 	stp	x29, x30, [sp, #-48]!
    4010d6b8:	f9000bf5 	str	x21, [sp, #16]
    4010d6bc:	a9024ff4 	stp	x20, x19, [sp, #32]
    4010d6c0:	910003fd 	mov	x29, sp
    4010d6c4:	2a0103f3 	mov	w19, w1
    4010d6c8:	b9001fbf 	str	wzr, [x29, #28]
    4010d6cc:	37f80581 	tbnz	w1, #31, 0x4010d77c
    4010d6d0:	aa0003f5 	mov	x21, x0
    4010d6d4:	2a1303f4 	mov	w20, w19
    4010d6d8:	910073a2 	add	x2, x29, #0x1c
    4010d6dc:	aa1503e0 	mov	x0, x21
    4010d6e0:	2a1403e1 	mov	w1, w20
    4010d6e4:	97ffed05 	bl	0x40108af8
    4010d6e8:	b9401fa8 	ldr	w8, [x29, #28]
    4010d6ec:	2a0003f4 	mov	w20, w0
    4010d6f0:	2a000108 	orr	w8, w8, w0
    4010d6f4:	36ffff28 	tbz	w8, #31, 0x4010d6d8
    4010d6f8:	37f80454 	tbnz	w20, #31, 0x4010d780
    4010d6fc:	aa1503e0 	mov	x0, x21
    4010d700:	2a1303e1 	mov	w1, w19
    4010d704:	2a1f03e2 	mov	w2, wzr
    4010d708:	97ffec64 	bl	0x40108898
    4010d70c:	4b130288 	sub	w8, w20, w19
    4010d710:	7100051f 	cmp	w8, #0x1
    4010d714:	5400030b 	b.lt	0x4010d774  // b.tstop
    4010d718:	8b28c008 	add	x8, x0, w8, sxtw
    4010d71c:	91001009 	add	x9, x0, #0x4
    4010d720:	eb09011f 	cmp	x8, x9
    4010d724:	9a89810a 	csel	x10, x8, x9, hi  // hi = pmore
    4010d728:	aa2003eb 	mvn	x11, x0
    4010d72c:	8b0b014a 	add	x10, x10, x11
    4010d730:	d342fd4a 	lsr	x10, x10, #2
    4010d734:	b400018a 	cbz	x10, 0x4010d764
    4010d738:	9100054a 	add	x10, x10, #0x1
    4010d73c:	927ff54b 	and	x11, x10, #0x7ffffffffffffffe
    4010d740:	8b0b0800 	add	x0, x0, x11, lsl #2
    4010d744:	b20603ec 	mov	x12, #0x400000004000000     	// #288230376218820608
    4010d748:	aa0b03ed 	mov	x13, x11
    4010d74c:	f81fc12c 	stur	x12, [x9, #-4]
    4010d750:	f10009ad 	subs	x13, x13, #0x2
    4010d754:	91002129 	add	x9, x9, #0x8
    4010d758:	54ffffa1 	b.ne	0x4010d74c  // b.any
    4010d75c:	eb0b015f 	cmp	x10, x11
    4010d760:	540000a0 	b.eq	0x4010d774  // b.none
    4010d764:	52a08009 	mov	w9, #0x4000000             	// #67108864
    4010d768:	b8004409 	str	w9, [x0], #4
    4010d76c:	eb00011f 	cmp	x8, x0
    4010d770:	54ffffc8 	b.hi	0x4010d768  // b.pmore
    4010d774:	2a1f03f4 	mov	w20, wzr
    4010d778:	14000002 	b	0x4010d780
    4010d77c:	2a1303f4 	mov	w20, w19
    4010d780:	2a1403e0 	mov	w0, w20
    4010d784:	a9424ff4 	ldp	x20, x19, [sp, #32]
    4010d788:	f9400bf5 	ldr	x21, [sp, #16]
    4010d78c:	a8c37bfd 	ldp	x29, x30, [sp], #48
    4010d790:	d65f03c0 	ret
    4010d794:	f0000160 	adrp	x0, 0x4013c000
    4010d798:	910da000 	add	x0, x0, #0x368
    4010d79c:	d65f03c0 	ret
    4010d7a0:	d10303ff 	sub	sp, sp, #0xc0
    4010d7a4:	a9067bfd 	stp	x29, x30, [sp, #96]
    4010d7a8:	a9076ffc 	stp	x28, x27, [sp, #112]
    4010d7ac:	a90867fa 	stp	x26, x25, [sp, #128]
    4010d7b0:	a9095ff8 	stp	x24, x23, [sp, #144]
    4010d7b4:	a90a57f6 	stp	x22, x21, [sp, #160]
    4010d7b8:	a90b4ff4 	stp	x20, x19, [sp, #176]
    4010d7bc:	910183fd 	add	x29, sp, #0x60
    4010d7c0:	90000068 	adrp	x8, 0x40119000
    4010d7c4:	912d0d08 	add	x8, x8, #0xb43
    4010d7c8:	f100005f 	cmp	x2, #0x0
    4010d7cc:	910073e9 	add	x9, sp, #0x1c
    4010d7d0:	f000005b 	adrp	x27, 0x40118000
    4010d7d4:	aa0103f5 	mov	x21, x1
    4010d7d8:	aa0003f4 	mov	x20, x0
    4010d7dc:	2a1f03fc 	mov	w28, wzr
    4010d7e0:	2a1f03f6 	mov	w22, wzr
    4010d7e4:	9100607e 	add	x30, x3, #0x18
    4010d7e8:	91002077 	add	x23, x3, #0x8
    4010d7ec:	9a82011a 	csel	x26, x8, x2, eq  // eq = none
    4010d7f0:	32000128 	orr	w8, w9, #0x1
    4010d7f4:	910b437b 	add	x27, x27, #0x2d0
    4010d7f8:	b9001be8 	str	w8, [sp, #24]
    4010d7fc:	aa1a03e1 	mov	x1, x26
    4010d800:	38401428 	ldrb	w8, [x1], #1
    4010d804:	3500007c 	cbnz	w28, 0x4010d810
    4010d808:	7100951f 	cmp	w8, #0x25
    4010d80c:	540001a0 	b.eq	0x4010d840  // b.none
    4010d810:	72001d1f 	tst	w8, #0xff
    4010d814:	54005040 	b.eq	0x4010e21c  // b.none
    4010d818:	f1000abf 	cmp	x21, #0x2
    4010d81c:	54000063 	b.cc	0x4010d828  // b.lo, b.ul, b.last
    4010d820:	38001688 	strb	w8, [x20], #1
    4010d824:	d10006b5 	sub	x21, x21, #0x1
    4010d828:	38401428 	ldrb	w8, [x1], #1
    4010d82c:	110006d6 	add	w22, w22, #0x1
    4010d830:	35ffff1c 	cbnz	w28, 0x4010d810
    4010d834:	7100951f 	cmp	w8, #0x25
    4010d838:	54fffec1 	b.ne	0x4010d810  // b.any
    4010d83c:	d100043a 	sub	x26, x1, #0x1
    4010d840:	2a1f03eb 	mov	w11, wzr
    4010d844:	2a1f03e0 	mov	w0, wzr
    4010d848:	2a1f03ec 	mov	w12, wzr
    4010d84c:	2a1f03ed 	mov	w13, wzr
    4010d850:	2a1f03f2 	mov	w18, wzr
    4010d854:	2a1f03f0 	mov	w16, wzr
    4010d858:	2a1f03ee 	mov	w14, wzr
    4010d85c:	2a1f03e8 	mov	w8, wzr
    4010d860:	2a1f03e9 	mov	w9, wzr
    4010d864:	2a1f03f9 	mov	w25, wzr
    4010d868:	2a1f03f3 	mov	w19, wzr
    4010d86c:	2a1f03f1 	mov	w17, wzr
    4010d870:	2a1f03ef 	mov	w15, wzr
    4010d874:	aa1a03ea 	mov	x10, x26
    4010d878:	52800402 	mov	w2, #0x20                  	// #32
    4010d87c:	aa0103fa 	mov	x26, x1
    4010d880:	14000004 	b	0x4010d890
    4010d884:	52800029 	mov	w9, #0x1                   	// #1
    4010d888:	2a0103e0 	mov	w0, w1
    4010d88c:	2a1803e2 	mov	w2, w24
    4010d890:	aa1a03e7 	mov	x7, x26
    4010d894:	38401744 	ldrb	w4, [x26], #1
    4010d898:	51008c85 	sub	w5, w4, #0x23
    4010d89c:	71015cbf 	cmp	w5, #0x57
    4010d8a0:	54000ac8 	b.hi	0x4010d9f8  // b.pmore
    4010d8a4:	2a0003e1 	mov	w1, w0
    4010d8a8:	10fffee6 	adr	x6, 0x4010d884
    4010d8ac:	38656b60 	ldrb	w0, [x27, x5]
    4010d8b0:	8b0008c6 	add	x6, x6, x0, lsl #2
    4010d8b4:	2a0203f8 	mov	w24, w2
    4010d8b8:	52800020 	mov	w0, #0x1                   	// #1
    4010d8bc:	d61f00c0 	br	x6
    4010d8c0:	2a1f03e0 	mov	w0, wzr
    4010d8c4:	52800142 	mov	w2, #0xa                   	// #10
    4010d8c8:	1b027c00 	mul	w0, w0, w2
    4010d8cc:	0b240000 	add	w0, w0, w4, uxtb
    4010d8d0:	38401ce4 	ldrb	w4, [x7, #1]!
    4010d8d4:	5100c000 	sub	w0, w0, #0x30
    4010d8d8:	5100c082 	sub	w2, w4, #0x30
    4010d8dc:	7100285f 	cmp	w2, #0xa
    4010d8e0:	54ffff23 	b.cc	0x4010d8c4  // b.lo, b.ul, b.last
    4010d8e4:	7100003f 	cmp	w1, #0x0
    4010d8e8:	1a800108 	csel	w8, w8, w0, eq  // eq = none
    4010d8ec:	1a930013 	csel	w19, w0, w19, eq  // eq = none
    4010d8f0:	2a0103e0 	mov	w0, w1
    4010d8f4:	2a1803e2 	mov	w2, w24
    4010d8f8:	aa0703fa 	mov	x26, x7
    4010d8fc:	17ffffe5 	b	0x4010d890
    4010d900:	b98003c0 	ldrsw	x0, [x30]
    4010d904:	340004e1 	cbz	w1, 0x4010d9a0
    4010d908:	36f80420 	tbz	w0, #31, 0x4010d98c
    4010d90c:	11002008 	add	w8, w0, #0x8
    4010d910:	3100201f 	cmn	w0, #0x8
    4010d914:	b90003c8 	str	w8, [x30]
    4010d918:	540003ac 	b.gt	0x4010d98c
    4010d91c:	f94002e8 	ldr	x8, [x23]
    4010d920:	8b000108 	add	x8, x8, x0
    4010d924:	b9400108 	ldr	w8, [x8]
    4010d928:	17ffffd8 	b	0x4010d888
    4010d92c:	5280002b 	mov	w11, #0x1                   	// #1
    4010d930:	17ffffd6 	b	0x4010d888
    4010d934:	52800039 	mov	w25, #0x1                   	// #1
    4010d938:	17ffffd4 	b	0x4010d888
    4010d93c:	2a1f03e0 	mov	w0, wzr
    4010d940:	52800602 	mov	w2, #0x30                  	// #48
    4010d944:	35fffbe1 	cbnz	w1, 0x4010d8c0
    4010d948:	17ffffd2 	b	0x4010d890
    4010d94c:	710001bf 	cmp	w13, #0x0
    4010d950:	1a9f058c 	csinc	w12, w12, wzr, eq  // eq = none
    4010d954:	520001ad 	eor	w13, w13, #0x1
    4010d958:	17ffffcc 	b	0x4010d888
    4010d95c:	52800032 	mov	w18, #0x1                   	// #1
    4010d960:	17ffffca 	b	0x4010d888
    4010d964:	710001ff 	cmp	w15, #0x0
    4010d968:	1a9f0631 	csinc	w17, w17, wzr, eq  // eq = none
    4010d96c:	520001ef 	eor	w15, w15, #0x1
    4010d970:	17ffffc6 	b	0x4010d888
    4010d974:	52800031 	mov	w17, #0x1                   	// #1
    4010d978:	17ffffc4 	b	0x4010d888
    4010d97c:	52800030 	mov	w16, #0x1                   	// #1
    4010d980:	17ffffc2 	b	0x4010d888
    4010d984:	5280002e 	mov	w14, #0x1                   	// #1
    4010d988:	17ffffc0 	b	0x4010d888
    4010d98c:	f9400068 	ldr	x8, [x3]
    4010d990:	91002100 	add	x0, x8, #0x8
    4010d994:	f9000060 	str	x0, [x3]
    4010d998:	b9400108 	ldr	w8, [x8]
    4010d99c:	17ffffbb 	b	0x4010d888
    4010d9a0:	36f80100 	tbz	w0, #31, 0x4010d9c0
    4010d9a4:	11002001 	add	w1, w0, #0x8
    4010d9a8:	3100201f 	cmn	w0, #0x8
    4010d9ac:	b90003c1 	str	w1, [x30]
    4010d9b0:	5400008c 	b.gt	0x4010d9c0
    4010d9b4:	f94002e1 	ldr	x1, [x23]
    4010d9b8:	8b000021 	add	x1, x1, x0
    4010d9bc:	14000004 	b	0x4010d9cc
    4010d9c0:	f9400061 	ldr	x1, [x3]
    4010d9c4:	91002020 	add	x0, x1, #0x8
    4010d9c8:	f9000060 	str	x0, [x3]
    4010d9cc:	b9400033 	ldr	w19, [x1]
    4010d9d0:	2a1f03e0 	mov	w0, wzr
    4010d9d4:	2a1803e2 	mov	w2, w24
    4010d9d8:	36fff5d3 	tbz	w19, #31, 0x4010d890
    4010d9dc:	2a1f03e0 	mov	w0, wzr
    4010d9e0:	52000339 	eor	w25, w25, #0x1
    4010d9e4:	4b1303f3 	neg	w19, w19
    4010d9e8:	2a1803e2 	mov	w2, w24
    4010d9ec:	17ffffa9 	b	0x4010d890
    4010d9f0:	5280014a 	mov	w10, #0xa                   	// #10
    4010d9f4:	1400006c 	b	0x4010dba4
    4010d9f8:	eb1a015f 	cmp	x10, x26
    4010d9fc:	5280003c 	mov	w28, #0x1                   	// #1
    4010da00:	54ffefe2 	b.cs	0x4010d7fc  // b.hs, b.nlast
    4010da04:	d1000548 	sub	x8, x10, #0x1
    4010da08:	14000006 	b	0x4010da20
    4010da0c:	91000508 	add	x8, x8, #0x1
    4010da10:	110006d6 	add	w22, w22, #0x1
    4010da14:	eb07011f 	cmp	x8, x7
    4010da18:	5280003c 	mov	w28, #0x1                   	// #1
    4010da1c:	54ffef02 	b.cs	0x4010d7fc  // b.hs, b.nlast
    4010da20:	f1000abf 	cmp	x21, #0x2
    4010da24:	54ffff43 	b.cc	0x4010da0c  // b.lo, b.ul, b.last
    4010da28:	39400509 	ldrb	w9, [x8, #1]
    4010da2c:	d10006b5 	sub	x21, x21, #0x1
    4010da30:	38001689 	strb	w9, [x20], #1
    4010da34:	17fffff6 	b	0x4010da0c
    4010da38:	f1000abf 	cmp	x21, #0x2
    4010da3c:	54000083 	b.cc	0x4010da4c  // b.lo, b.ul, b.last
    4010da40:	528004a8 	mov	w8, #0x25                  	// #37
    4010da44:	38001688 	strb	w8, [x20], #1
    4010da48:	d10006b5 	sub	x21, x21, #0x1
    4010da4c:	110006d6 	add	w22, w22, #0x1
    4010da50:	17ffff6b 	b	0x4010d7fc
    4010da54:	5280020a 	mov	w10, #0x10                  	// #16
    4010da58:	52800020 	mov	w0, #0x1                   	// #1
    4010da5c:	35000852 	cbnz	w18, 0x4010db64
    4010da60:	1400003d 	b	0x4010db54
    4010da64:	b98003c8 	ldrsw	x8, [x30]
    4010da68:	36f80c88 	tbz	w8, #31, 0x4010dbf8
    4010da6c:	11002109 	add	w9, w8, #0x8
    4010da70:	3100211f 	cmn	w8, #0x8
    4010da74:	b90003c9 	str	w9, [x30]
    4010da78:	54000c0c 	b.gt	0x4010dbf8
    4010da7c:	f94002e9 	ldr	x9, [x23]
    4010da80:	8b080128 	add	x8, x9, x8
    4010da84:	14000060 	b	0x4010dc04
    4010da88:	35000092 	cbnz	w18, 0x4010da98
    4010da8c:	35000071 	cbnz	w17, 0x4010da98
    4010da90:	3500004f 	cbnz	w15, 0x4010da98
    4010da94:	34002dae 	cbz	w14, 0x4010e048
    4010da98:	b98003c9 	ldrsw	x9, [x30]
    4010da9c:	93407ec8 	sxtw	x8, w22
    4010daa0:	36f81f09 	tbz	w9, #31, 0x4010de80
    4010daa4:	1100212a 	add	w10, w9, #0x8
    4010daa8:	3100213f 	cmn	w9, #0x8
    4010daac:	b90003ca 	str	w10, [x30]
    4010dab0:	54001e8c 	b.gt	0x4010de80
    4010dab4:	f94002ea 	ldr	x10, [x23]
    4010dab8:	8b090149 	add	x9, x10, x9
    4010dabc:	140000f4 	b	0x4010de8c
    4010dac0:	2a1f03e0 	mov	w0, wzr
    4010dac4:	5280010a 	mov	w10, #0x8                   	// #8
    4010dac8:	350004f2 	cbnz	w18, 0x4010db64
    4010dacc:	14000022 	b	0x4010db54
    4010dad0:	b98003ca 	ldrsw	x10, [x30]
    4010dad4:	7100027f 	cmp	w19, #0x0
    4010dad8:	1a9f17e9 	cset	w9, eq  // eq = none
    4010dadc:	36f80a2a 	tbz	w10, #31, 0x4010dc20
    4010dae0:	1100214b 	add	w11, w10, #0x8
    4010dae4:	3100215f 	cmn	w10, #0x8
    4010dae8:	b90003cb 	str	w11, [x30]
    4010daec:	540009ac 	b.gt	0x4010dc20
    4010daf0:	f94002eb 	ldr	x11, [x23]
    4010daf4:	8b0a016a 	add	x10, x11, x10
    4010daf8:	1400004d 	b	0x4010dc2c
    4010dafc:	5280014a 	mov	w10, #0xa                   	// #10
    4010db00:	3500054b 	cbnz	w11, 0x4010dba8
    4010db04:	2a1f03e0 	mov	w0, wzr
    4010db08:	350002f2 	cbnz	w18, 0x4010db64
    4010db0c:	14000012 	b	0x4010db54
    4010db10:	b98003c9 	ldrsw	x9, [x30]
    4010db14:	f9000bf7 	str	x23, [sp, #16]
    4010db18:	36f81889 	tbz	w9, #31, 0x4010de28
    4010db1c:	1100212a 	add	w10, w9, #0x8
    4010db20:	3100213f 	cmn	w9, #0x8
    4010db24:	b90003ca 	str	w10, [x30]
    4010db28:	5400180c 	b.gt	0x4010de28
    4010db2c:	f94002ea 	ldr	x10, [x23]
    4010db30:	8b090149 	add	x9, x10, x9
    4010db34:	140000c0 	b	0x4010de34
    4010db38:	2a1f03e0 	mov	w0, wzr
    4010db3c:	5280014a 	mov	w10, #0xa                   	// #10
    4010db40:	35000132 	cbnz	w18, 0x4010db64
    4010db44:	14000004 	b	0x4010db54
    4010db48:	2a1f03e0 	mov	w0, wzr
    4010db4c:	5280020a 	mov	w10, #0x10                  	// #16
    4010db50:	350000b2 	cbnz	w18, 0x4010db64
    4010db54:	35000091 	cbnz	w17, 0x4010db64
    4010db58:	35000070 	cbnz	w16, 0x4010db64
    4010db5c:	3500004f 	cbnz	w15, 0x4010db64
    4010db60:	340024ae 	cbz	w14, 0x4010dff4
    4010db64:	b98003cb 	ldrsw	x11, [x30]
    4010db68:	36f8010b 	tbz	w11, #31, 0x4010db88
    4010db6c:	1100216c 	add	w12, w11, #0x8
    4010db70:	3100217f 	cmn	w11, #0x8
    4010db74:	b90003cc 	str	w12, [x30]
    4010db78:	5400008c 	b.gt	0x4010db88
    4010db7c:	f94002ec 	ldr	x12, [x23]
    4010db80:	8b0b018b 	add	x11, x12, x11
    4010db84:	14000004 	b	0x4010db94
    4010db88:	f940006b 	ldr	x11, [x3]
    4010db8c:	9100216c 	add	x12, x11, #0x8
    4010db90:	f900006c 	str	x12, [x3]
    4010db94:	f940016d 	ldr	x13, [x11]
    4010db98:	2a1f03eb 	mov	w11, wzr
    4010db9c:	14000028 	b	0x4010dc3c
    4010dba0:	5280020a 	mov	w10, #0x10                  	// #16
    4010dba4:	5280002b 	mov	w11, #0x1                   	// #1
    4010dba8:	350000b2 	cbnz	w18, 0x4010dbbc
    4010dbac:	35000091 	cbnz	w17, 0x4010dbbc
    4010dbb0:	35000070 	cbnz	w16, 0x4010dbbc
    4010dbb4:	3500004f 	cbnz	w15, 0x4010dbbc
    4010dbb8:	3400232e 	cbz	w14, 0x4010e01c
    4010dbbc:	b98003cc 	ldrsw	x12, [x30]
    4010dbc0:	36f8010c 	tbz	w12, #31, 0x4010dbe0
    4010dbc4:	1100218d 	add	w13, w12, #0x8
    4010dbc8:	3100219f 	cmn	w12, #0x8
    4010dbcc:	b90003cd 	str	w13, [x30]
    4010dbd0:	5400008c 	b.gt	0x4010dbe0
    4010dbd4:	f94002ed 	ldr	x13, [x23]
    4010dbd8:	8b0c01ac 	add	x12, x13, x12
    4010dbdc:	14000004 	b	0x4010dbec
    4010dbe0:	f940006c 	ldr	x12, [x3]
    4010dbe4:	9100218d 	add	x13, x12, #0x8
    4010dbe8:	f900006d 	str	x13, [x3]
    4010dbec:	f940018d 	ldr	x13, [x12]
    4010dbf0:	2a1f03e0 	mov	w0, wzr
    4010dbf4:	14000012 	b	0x4010dc3c
    4010dbf8:	f9400068 	ldr	x8, [x3]
    4010dbfc:	91002109 	add	x9, x8, #0x8
    4010dc00:	f9000069 	str	x9, [x3]
    4010dc04:	f1000abf 	cmp	x21, #0x2
    4010dc08:	54000083 	b.cc	0x4010dc18  // b.lo, b.ul, b.last
    4010dc0c:	b9400108 	ldr	w8, [x8]
    4010dc10:	d10006b5 	sub	x21, x21, #0x1
    4010dc14:	38001688 	strb	w8, [x20], #1
    4010dc18:	110006d6 	add	w22, w22, #0x1
    4010dc1c:	17fffef8 	b	0x4010d7fc
    4010dc20:	f940006a 	ldr	x10, [x3]
    4010dc24:	9100214b 	add	x11, x10, #0x8
    4010dc28:	f900006b 	str	x11, [x3]
    4010dc2c:	f940014d 	ldr	x13, [x10]
    4010dc30:	2a1f03eb 	mov	w11, wzr
    4010dc34:	2a1f03e0 	mov	w0, wzr
    4010dc38:	5280020a 	mov	w10, #0x10                  	// #16
    4010dc3c:	7100017f 	cmp	w11, #0x0
    4010dc40:	1a9f07eb 	cset	w11, ne  // ne = any
    4010dc44:	f10001bf 	cmp	x13, #0x0
    4010dc48:	1a9fa7ef 	cset	w15, lt  // lt = tstop
    4010dc4c:	6a0f017f 	tst	w11, w15
    4010dc50:	910073ec 	add	x12, sp, #0x1c
    4010dc54:	0a0f016e 	and	w14, w11, w15
    4010dc58:	da8d05ab 	cneg	x11, x13, ne  // ne = any
    4010dc5c:	390073ff 	strb	wzr, [sp, #28]
    4010dc60:	14000005 	b	0x4010dc74
    4010dc64:	eb0a017f 	cmp	x11, x10
    4010dc68:	38001d90 	strb	w16, [x12, #1]!
    4010dc6c:	aa0f03eb 	mov	x11, x15
    4010dc70:	540001c3 	b.cc	0x4010dca8  // b.lo, b.ul, b.last
    4010dc74:	9aca096f 	udiv	x15, x11, x10
    4010dc78:	90000071 	adrp	x17, 0x40119000
    4010dc7c:	9b0aadf0 	msub	x16, x15, x10, x11
    4010dc80:	912d5a31 	add	x17, x17, #0xb56
    4010dc84:	38706a30 	ldrb	w16, [x17, x16]
    4010dc88:	34fffee0 	cbz	w0, 0x4010dc64
    4010dc8c:	f0000051 	adrp	x17, 0x40118000
    4010dc90:	910ca231 	add	x17, x17, #0x328
    4010dc94:	38706a31 	ldrb	w17, [x17, x16]
    4010dc98:	51008212 	sub	w18, w16, #0x20
    4010dc9c:	721f023f 	tst	w17, #0x2
    4010dca0:	1a920210 	csel	w16, w16, w18, eq  // eq = none
    4010dca4:	17fffff0 	b	0x4010dc64
    4010dca8:	7100415f 	cmp	w10, #0x10
    4010dcac:	1a9f17f0 	cset	w16, eq  // eq = none
    4010dcb0:	7100013f 	cmp	w9, #0x0
    4010dcb4:	1a9f07ef 	cset	w15, ne  // ne = any
    4010dcb8:	f10001bf 	cmp	x13, #0x0
    4010dcbc:	531f7a09 	lsl	w9, w16, #1
    4010dcc0:	1a9f07ed 	cset	w13, ne  // ne = any
    4010dcc4:	7100215f 	cmp	w10, #0x8
    4010dcc8:	1a9f1529 	csinc	w9, w9, wzr, ne  // ne = any
    4010dccc:	6a0d01ff 	tst	w15, w13
    4010dcd0:	1a9f1129 	csel	w9, w9, wzr, ne  // ne = any
    4010dcd4:	12001f11 	and	w17, w24, #0xff
    4010dcd8:	52800612 	mov	w18, #0x30                  	// #48
    4010dcdc:	7100033f 	cmp	w25, #0x0
    4010dce0:	0b0e0130 	add	w16, w9, w14
    4010dce4:	910073eb 	add	x11, sp, #0x1c
    4010dce8:	4b100261 	sub	w1, w19, w16
    4010dcec:	7a520220 	ccmp	w17, w18, #0x0, eq  // eq = none
    4010dcf0:	4b0b0180 	sub	w0, w12, w11
    4010dcf4:	1a880029 	csel	w9, w1, w8, eq  // eq = none
    4010dcf8:	6b00012b 	subs	w11, w9, w0
    4010dcfc:	1a80c131 	csel	w17, w9, w0, gt
    4010dd00:	4b110028 	sub	w8, w1, w17
    4010dd04:	34000179 	cbz	w25, 0x4010dd30
    4010dd08:	0a0d01ed 	and	w13, w15, w13
    4010dd0c:	3400036e 	cbz	w14, 0x4010dd78
    4010dd10:	f1000abf 	cmp	x21, #0x2
    4010dd14:	54000083 	b.cc	0x4010dd24  // b.lo, b.ul, b.last
    4010dd18:	528005ae 	mov	w14, #0x2d                  	// #45
    4010dd1c:	3800168e 	strb	w14, [x20], #1
    4010dd20:	d10006b5 	sub	x21, x21, #0x1
    4010dd24:	110006d6 	add	w22, w22, #0x1
    4010dd28:	340003ed 	cbz	w13, 0x4010dda4
    4010dd2c:	14000014 	b	0x4010dd7c
    4010dd30:	71000512 	subs	w18, w8, #0x1
    4010dd34:	5400072b 	b.lt	0x4010de18  // b.tstop
    4010dd38:	0b160272 	add	w18, w19, w22
    4010dd3c:	14000004 	b	0x4010dd4c
    4010dd40:	51000508 	sub	w8, w8, #0x1
    4010dd44:	7100011f 	cmp	w8, #0x0
    4010dd48:	540000ed 	b.le	0x4010dd64
    4010dd4c:	f1000abf 	cmp	x21, #0x2
    4010dd50:	54ffff83 	b.cc	0x4010dd40  // b.lo, b.ul, b.last
    4010dd54:	52800400 	mov	w0, #0x20                  	// #32
    4010dd58:	38001680 	strb	w0, [x20], #1
    4010dd5c:	d10006b5 	sub	x21, x21, #0x1
    4010dd60:	17fffff8 	b	0x4010dd40
    4010dd64:	4b110248 	sub	w8, w18, w17
    4010dd68:	4b100116 	sub	w22, w8, w16
    4010dd6c:	12800008 	mov	w8, #0xffffffff            	// #-1
    4010dd70:	0a0d01ed 	and	w13, w15, w13
    4010dd74:	35fffcee 	cbnz	w14, 0x4010dd10
    4010dd78:	3400016d 	cbz	w13, 0x4010dda4
    4010dd7c:	7100415f 	cmp	w10, #0x10
    4010dd80:	54000320 	b.eq	0x4010dde4  // b.none
    4010dd84:	7100215f 	cmp	w10, #0x8
    4010dd88:	540000e1 	b.ne	0x4010dda4  // b.any
    4010dd8c:	f1000abf 	cmp	x21, #0x2
    4010dd90:	54000083 	b.cc	0x4010dda0  // b.lo, b.ul, b.last
    4010dd94:	5280060a 	mov	w10, #0x30                  	// #48
    4010dd98:	3800168a 	strb	w10, [x20], #1
    4010dd9c:	d10006b5 	sub	x21, x21, #0x1
    4010dda0:	110006d6 	add	w22, w22, #0x1
    4010dda4:	7100057f 	cmp	w11, #0x1
    4010dda8:	54000e4b 	b.lt	0x4010df70  // b.tstop
    4010ddac:	b9401bea 	ldr	w10, [sp, #24]
    4010ddb0:	0b090149 	add	w9, w10, w9
    4010ddb4:	4b0c0129 	sub	w9, w9, w12
    4010ddb8:	14000005 	b	0x4010ddcc
    4010ddbc:	51000529 	sub	w9, w9, #0x1
    4010ddc0:	7100053f 	cmp	w9, #0x1
    4010ddc4:	110006d6 	add	w22, w22, #0x1
    4010ddc8:	54000d4d 	b.le	0x4010df70
    4010ddcc:	f1000abf 	cmp	x21, #0x2
    4010ddd0:	54ffff63 	b.cc	0x4010ddbc  // b.lo, b.ul, b.last
    4010ddd4:	5280060a 	mov	w10, #0x30                  	// #48
    4010ddd8:	3800168a 	strb	w10, [x20], #1
    4010dddc:	d10006b5 	sub	x21, x21, #0x1
    4010dde0:	17fffff7 	b	0x4010ddbc
    4010dde4:	f1000aaa 	subs	x10, x21, #0x2
    4010dde8:	54000be3 	b.cc	0x4010df64  // b.lo, b.ul, b.last
    4010ddec:	5280060e 	mov	w14, #0x30                  	// #48
    4010ddf0:	aa1403ed 	mov	x13, x20
    4010ddf4:	d10006af 	sub	x15, x21, #0x1
    4010ddf8:	f10009ff 	cmp	x15, #0x2
    4010ddfc:	380015ae 	strb	w14, [x13], #1
    4010de00:	54000ae3 	b.cc	0x4010df5c  // b.lo, b.ul, b.last
    4010de04:	91000a8d 	add	x13, x20, #0x2
    4010de08:	52800f0e 	mov	w14, #0x78                  	// #120
    4010de0c:	aa0a03f5 	mov	x21, x10
    4010de10:	3900068e 	strb	w14, [x20, #1]
    4010de14:	14000053 	b	0x4010df60
    4010de18:	2a1203e8 	mov	w8, w18
    4010de1c:	0a0d01ed 	and	w13, w15, w13
    4010de20:	34ffface 	cbz	w14, 0x4010dd78
    4010de24:	17ffffbb 	b	0x4010dd10
    4010de28:	f9400069 	ldr	x9, [x3]
    4010de2c:	9100212a 	add	x10, x9, #0x8
    4010de30:	f900006a 	str	x10, [x3]
    4010de34:	f9400129 	ldr	x9, [x9]
    4010de38:	9000006a 	adrp	x10, 0x40119000
    4010de3c:	912d3d4a 	add	x10, x10, #0xb4f
    4010de40:	f100013f 	cmp	x9, #0x0
    4010de44:	9a890157 	csel	x23, x10, x9, eq  // eq = none
    4010de48:	34000281 	cbz	w1, 0x4010de98
    4010de4c:	7100051f 	cmp	w8, #0x1
    4010de50:	54000cab 	b.lt	0x4010dfe4  // b.tstop
    4010de54:	aa1f03e0 	mov	x0, xzr
    4010de58:	2a0803e8 	mov	w8, w8
    4010de5c:	38606ae9 	ldrb	w9, [x23, x0]
    4010de60:	34000249 	cbz	w9, 0x4010dea8
    4010de64:	91000400 	add	x0, x0, #0x1
    4010de68:	eb00011f 	cmp	x8, x0
    4010de6c:	54ffff81 	b.ne	0x4010de5c  // b.any
    4010de70:	2a0803e0 	mov	w0, w8
    4010de74:	4b000268 	sub	w8, w19, w0
    4010de78:	340001d9 	cbz	w25, 0x4010deb0
    4010de7c:	1400001b 	b	0x4010dee8
    4010de80:	f9400069 	ldr	x9, [x3]
    4010de84:	9100212a 	add	x10, x9, #0x8
    4010de88:	f900006a 	str	x10, [x3]
    4010de8c:	f9400129 	ldr	x9, [x9]
    4010de90:	f9000128 	str	x8, [x9]
    4010de94:	17fffe5a 	b	0x4010d7fc
    4010de98:	aa1703e0 	mov	x0, x23
    4010de9c:	a9000ffe 	stp	x30, x3, [sp]
    4010dea0:	94000474 	bl	0x4010f070
    4010dea4:	a9400ffe 	ldp	x30, x3, [sp]
    4010dea8:	4b000268 	sub	w8, w19, w0
    4010deac:	350001f9 	cbnz	w25, 0x4010dee8
    4010deb0:	7100051f 	cmp	w8, #0x1
    4010deb4:	540001ab 	b.lt	0x4010dee8  // b.tstop
    4010deb8:	0b1302c8 	add	w8, w22, w19
    4010debc:	4b130009 	sub	w9, w0, w19
    4010dec0:	14000003 	b	0x4010decc
    4010dec4:	31000529 	adds	w9, w9, #0x1
    4010dec8:	540000c2 	b.cs	0x4010dee0  // b.hs, b.nlast
    4010decc:	f1000abf 	cmp	x21, #0x2
    4010ded0:	54ffffa3 	b.cc	0x4010dec4  // b.lo, b.ul, b.last
    4010ded4:	38001698 	strb	w24, [x20], #1
    4010ded8:	d10006b5 	sub	x21, x21, #0x1
    4010dedc:	17fffffa 	b	0x4010dec4
    4010dee0:	4b000116 	sub	w22, w8, w0
    4010dee4:	12800008 	mov	w8, #0xffffffff            	// #-1
    4010dee8:	340001c0 	cbz	w0, 0x4010df20
    4010deec:	2a0003e9 	mov	w9, w0
    4010def0:	14000003 	b	0x4010defc
    4010def4:	aa0a03f7 	mov	x23, x10
    4010def8:	34000129 	cbz	w9, 0x4010df1c
    4010defc:	51000529 	sub	w9, w9, #0x1
    4010df00:	f1000abf 	cmp	x21, #0x2
    4010df04:	910006ea 	add	x10, x23, #0x1
    4010df08:	54ffff63 	b.cc	0x4010def4  // b.lo, b.ul, b.last
    4010df0c:	394002eb 	ldrb	w11, [x23]
    4010df10:	d10006b5 	sub	x21, x21, #0x1
    4010df14:	3800168b 	strb	w11, [x20], #1
    4010df18:	17fffff7 	b	0x4010def4
    4010df1c:	0b160016 	add	w22, w0, w22
    4010df20:	f9400bf7 	ldr	x23, [sp, #16]
    4010df24:	34ffc6d9 	cbz	w25, 0x4010d7fc
    4010df28:	7100051f 	cmp	w8, #0x1
    4010df2c:	54ffc68b 	b.lt	0x4010d7fc  // b.tstop
    4010df30:	2a0803e9 	mov	w9, w8
    4010df34:	14000002 	b	0x4010df3c
    4010df38:	340000e9 	cbz	w9, 0x4010df54
    4010df3c:	f1000abf 	cmp	x21, #0x2
    4010df40:	51000529 	sub	w9, w9, #0x1
    4010df44:	54ffffa3 	b.cc	0x4010df38  // b.lo, b.ul, b.last
    4010df48:	38001698 	strb	w24, [x20], #1
    4010df4c:	d10006b5 	sub	x21, x21, #0x1
    4010df50:	17fffffa 	b	0x4010df38
    4010df54:	0b0802d6 	add	w22, w22, w8
    4010df58:	17fffe29 	b	0x4010d7fc
    4010df5c:	52800035 	mov	w21, #0x1                   	// #1
    4010df60:	aa0d03f4 	mov	x20, x13
    4010df64:	11000ad6 	add	w22, w22, #0x2
    4010df68:	7100057f 	cmp	w11, #0x1
    4010df6c:	54fff20a 	b.ge	0x4010ddac  // b.tcont
    4010df70:	3940018a 	ldrb	w10, [x12]
    4010df74:	340001aa 	cbz	w10, 0x4010dfa8
    4010df78:	aa1f03e9 	mov	x9, xzr
    4010df7c:	14000004 	b	0x4010df8c
    4010df80:	385ff16a 	ldurb	w10, [x11, #-1]
    4010df84:	d1000529 	sub	x9, x9, #0x1
    4010df88:	340000ea 	cbz	w10, 0x4010dfa4
    4010df8c:	f1000abf 	cmp	x21, #0x2
    4010df90:	8b09018b 	add	x11, x12, x9
    4010df94:	54ffff63 	b.cc	0x4010df80  // b.lo, b.ul, b.last
    4010df98:	3800168a 	strb	w10, [x20], #1
    4010df9c:	d10006b5 	sub	x21, x21, #0x1
    4010dfa0:	17fffff8 	b	0x4010df80
    4010dfa4:	4b0902d6 	sub	w22, w22, w9
    4010dfa8:	34ffc2b9 	cbz	w25, 0x4010d7fc
    4010dfac:	7100051f 	cmp	w8, #0x1
    4010dfb0:	54ffc26b 	b.lt	0x4010d7fc  // b.tstop
    4010dfb4:	11000508 	add	w8, w8, #0x1
    4010dfb8:	14000005 	b	0x4010dfcc
    4010dfbc:	51000508 	sub	w8, w8, #0x1
    4010dfc0:	7100051f 	cmp	w8, #0x1
    4010dfc4:	110006d6 	add	w22, w22, #0x1
    4010dfc8:	54ffc1ad 	b.le	0x4010d7fc
    4010dfcc:	f1000abf 	cmp	x21, #0x2
    4010dfd0:	54ffff63 	b.cc	0x4010dfbc  // b.lo, b.ul, b.last
    4010dfd4:	52800409 	mov	w9, #0x20                  	// #32
    4010dfd8:	38001689 	strb	w9, [x20], #1
    4010dfdc:	d10006b5 	sub	x21, x21, #0x1
    4010dfe0:	17fffff7 	b	0x4010dfbc
    4010dfe4:	2a1f03e0 	mov	w0, wzr
    4010dfe8:	4b000268 	sub	w8, w19, w0
    4010dfec:	34fff639 	cbz	w25, 0x4010deb0
    4010dff0:	17ffffbe 	b	0x4010dee8
    4010dff4:	3400054d 	cbz	w13, 0x4010e09c
    4010dff8:	b98003cb 	ldrsw	x11, [x30]
    4010dffc:	36f803ab 	tbz	w11, #31, 0x4010e070
    4010e000:	1100216c 	add	w12, w11, #0x8
    4010e004:	3100217f 	cmn	w11, #0x8
    4010e008:	b90003cc 	str	w12, [x30]
    4010e00c:	5400032c 	b.gt	0x4010e070
    4010e010:	f94002ec 	ldr	x12, [x23]
    4010e014:	8b0b018b 	add	x11, x12, x11
    4010e018:	14000019 	b	0x4010e07c
    4010e01c:	3400054d 	cbz	w13, 0x4010e0c4
    4010e020:	b98003cc 	ldrsw	x12, [x30]
    4010e024:	36f8032c 	tbz	w12, #31, 0x4010e088
    4010e028:	1100218d 	add	w13, w12, #0x8
    4010e02c:	3100219f 	cmn	w12, #0x8
    4010e030:	b90003cd 	str	w13, [x30]
    4010e034:	540002ac 	b.gt	0x4010e088
    4010e038:	f94002ed 	ldr	x13, [x23]
    4010e03c:	8b0c01ac 	add	x12, x13, x12
    4010e040:	7980018d 	ldrsh	x13, [x12]
    4010e044:	17fffeeb 	b	0x4010dbf0
    4010e048:	3400060d 	cbz	w13, 0x4010e108
    4010e04c:	b98003c8 	ldrsw	x8, [x30]
    4010e050:	36f80508 	tbz	w8, #31, 0x4010e0f0
    4010e054:	11002109 	add	w9, w8, #0x8
    4010e058:	3100211f 	cmn	w8, #0x8
    4010e05c:	b90003c9 	str	w9, [x30]
    4010e060:	5400048c 	b.gt	0x4010e0f0
    4010e064:	f94002e9 	ldr	x9, [x23]
    4010e068:	8b080128 	add	x8, x9, x8
    4010e06c:	14000024 	b	0x4010e0fc
    4010e070:	f940006b 	ldr	x11, [x3]
    4010e074:	9100216c 	add	x12, x11, #0x8
    4010e078:	f900006c 	str	x12, [x3]
    4010e07c:	7940016d 	ldrh	w13, [x11]
    4010e080:	2a1f03eb 	mov	w11, wzr
    4010e084:	17fffeee 	b	0x4010dc3c
    4010e088:	f940006c 	ldr	x12, [x3]
    4010e08c:	9100218d 	add	x13, x12, #0x8
    4010e090:	f900006d 	str	x13, [x3]
    4010e094:	7980018d 	ldrsh	x13, [x12]
    4010e098:	17fffed6 	b	0x4010dbf0
    4010e09c:	b98003cb 	ldrsw	x11, [x30]
    4010e0a0:	340005ec 	cbz	w12, 0x4010e15c
    4010e0a4:	36f8046b 	tbz	w11, #31, 0x4010e130
    4010e0a8:	1100216c 	add	w12, w11, #0x8
    4010e0ac:	3100217f 	cmn	w11, #0x8
    4010e0b0:	b90003cc 	str	w12, [x30]
    4010e0b4:	540003ec 	b.gt	0x4010e130
    4010e0b8:	f94002ec 	ldr	x12, [x23]
    4010e0bc:	8b0b018b 	add	x11, x12, x11
    4010e0c0:	1400001f 	b	0x4010e13c
    4010e0c4:	b98003cd 	ldrsw	x13, [x30]
    4010e0c8:	340005ac 	cbz	w12, 0x4010e17c
    4010e0cc:	36f803ed 	tbz	w13, #31, 0x4010e148
    4010e0d0:	110021ac 	add	w12, w13, #0x8
    4010e0d4:	310021bf 	cmn	w13, #0x8
    4010e0d8:	b90003cc 	str	w12, [x30]
    4010e0dc:	5400036c 	b.gt	0x4010e148
    4010e0e0:	f94002ec 	ldr	x12, [x23]
    4010e0e4:	8b0d018c 	add	x12, x12, x13
    4010e0e8:	3940018d 	ldrb	w13, [x12]
    4010e0ec:	17fffec1 	b	0x4010dbf0
    4010e0f0:	f9400068 	ldr	x8, [x3]
    4010e0f4:	91002109 	add	x9, x8, #0x8
    4010e0f8:	f9000069 	str	x9, [x3]
    4010e0fc:	f9400108 	ldr	x8, [x8]
    4010e100:	79000116 	strh	w22, [x8]
    4010e104:	17fffdbe 	b	0x4010d7fc
    4010e108:	340006cc 	cbz	w12, 0x4010e1e0
    4010e10c:	b98003c8 	ldrsw	x8, [x30]
    4010e110:	36f80468 	tbz	w8, #31, 0x4010e19c
    4010e114:	11002109 	add	w9, w8, #0x8
    4010e118:	3100211f 	cmn	w8, #0x8
    4010e11c:	b90003c9 	str	w9, [x30]
    4010e120:	540003ec 	b.gt	0x4010e19c
    4010e124:	f94002e9 	ldr	x9, [x23]
    4010e128:	8b080128 	add	x8, x9, x8
    4010e12c:	1400001f 	b	0x4010e1a8
    4010e130:	f940006b 	ldr	x11, [x3]
    4010e134:	9100216c 	add	x12, x11, #0x8
    4010e138:	f900006c 	str	x12, [x3]
    4010e13c:	3940016d 	ldrb	w13, [x11]
    4010e140:	2a1f03eb 	mov	w11, wzr
    4010e144:	17fffebe 	b	0x4010dc3c
    4010e148:	f940006c 	ldr	x12, [x3]
    4010e14c:	9100218d 	add	x13, x12, #0x8
    4010e150:	f900006d 	str	x13, [x3]
    4010e154:	3940018d 	ldrb	w13, [x12]
    4010e158:	17fffea6 	b	0x4010dbf0
    4010e15c:	36f802cb 	tbz	w11, #31, 0x4010e1b4
    4010e160:	1100216c 	add	w12, w11, #0x8
    4010e164:	3100217f 	cmn	w11, #0x8
    4010e168:	b90003cc 	str	w12, [x30]
    4010e16c:	5400024c 	b.gt	0x4010e1b4
    4010e170:	f94002ec 	ldr	x12, [x23]
    4010e174:	8b0b018b 	add	x11, x12, x11
    4010e178:	14000012 	b	0x4010e1c0
    4010e17c:	36f8028d 	tbz	w13, #31, 0x4010e1cc
    4010e180:	110021ac 	add	w12, w13, #0x8
    4010e184:	310021bf 	cmn	w13, #0x8
    4010e188:	b90003cc 	str	w12, [x30]
    4010e18c:	5400020c 	b.gt	0x4010e1cc
    4010e190:	f94002ec 	ldr	x12, [x23]
    4010e194:	8b0d018c 	add	x12, x12, x13
    4010e198:	14000010 	b	0x4010e1d8
    4010e19c:	f9400068 	ldr	x8, [x3]
    4010e1a0:	91002109 	add	x9, x8, #0x8
    4010e1a4:	f9000069 	str	x9, [x3]
    4010e1a8:	f9400108 	ldr	x8, [x8]
    4010e1ac:	39000116 	strb	w22, [x8]
    4010e1b0:	17fffd93 	b	0x4010d7fc
    4010e1b4:	f940006b 	ldr	x11, [x3]
    4010e1b8:	9100216c 	add	x12, x11, #0x8
    4010e1bc:	f900006c 	str	x12, [x3]
    4010e1c0:	b940016d 	ldr	w13, [x11]
    4010e1c4:	2a1f03eb 	mov	w11, wzr
    4010e1c8:	17fffe9d 	b	0x4010dc3c
    4010e1cc:	f940006c 	ldr	x12, [x3]
    4010e1d0:	9100218d 	add	x13, x12, #0x8
    4010e1d4:	f900006d 	str	x13, [x3]
    4010e1d8:	b980018d 	ldrsw	x13, [x12]
    4010e1dc:	17fffe85 	b	0x4010dbf0
    4010e1e0:	b98003c8 	ldrsw	x8, [x30]
    4010e1e4:	36f80108 	tbz	w8, #31, 0x4010e204
    4010e1e8:	11002109 	add	w9, w8, #0x8
    4010e1ec:	3100211f 	cmn	w8, #0x8
    4010e1f0:	b90003c9 	str	w9, [x30]
    4010e1f4:	5400008c 	b.gt	0x4010e204
    4010e1f8:	f94002e9 	ldr	x9, [x23]
    4010e1fc:	8b080128 	add	x8, x9, x8
    4010e200:	14000004 	b	0x4010e210
    4010e204:	f9400068 	ldr	x8, [x3]
    4010e208:	91002109 	add	x9, x8, #0x8
    4010e20c:	f9000069 	str	x9, [x3]
    4010e210:	f9400108 	ldr	x8, [x8]
    4010e214:	b9000116 	str	w22, [x8]
    4010e218:	17fffd79 	b	0x4010d7fc
    4010e21c:	b4000055 	cbz	x21, 0x4010e224
    4010e220:	3900029f 	strb	wzr, [x20]
    4010e224:	2a1603e0 	mov	w0, w22
    4010e228:	a94b4ff4 	ldp	x20, x19, [sp, #176]
    4010e22c:	a94a57f6 	ldp	x22, x21, [sp, #160]
    4010e230:	a9495ff8 	ldp	x24, x23, [sp, #144]
    4010e234:	a94867fa 	ldp	x26, x25, [sp, #128]
    4010e238:	a9476ffc 	ldp	x28, x27, [sp, #112]
    4010e23c:	a9467bfd 	ldp	x29, x30, [sp, #96]
    4010e240:	910303ff 	add	sp, sp, #0xc0
    4010e244:	d65f03c0 	ret
    4010e248:	d100c3ff 	sub	sp, sp, #0x30
    4010e24c:	a9027bfd 	stp	x29, x30, [sp, #32]
    4010e250:	910083fd 	add	x29, sp, #0x20
    4010e254:	a941244a 	ldp	x10, x9, [x2, #16]
    4010e258:	a9402c4c 	ldp	x12, x11, [x2]
    4010e25c:	aa0103e8 	mov	x8, x1
    4010e260:	910003e3 	mov	x3, sp
    4010e264:	92f00001 	mov	x1, #0x7fffffffffffffff    	// #9223372036854775807
    4010e268:	aa0803e2 	mov	x2, x8
    4010e26c:	a90127ea 	stp	x10, x9, [sp, #16]
    4010e270:	a9002fec 	stp	x12, x11, [sp]
    4010e274:	97fffd4b 	bl	0x4010d7a0
    4010e278:	a9427bfd 	ldp	x29, x30, [sp, #32]
    4010e27c:	9100c3ff 	add	sp, sp, #0x30
    4010e280:	d65f03c0 	ret
    4010e284:	d10203ff 	sub	sp, sp, #0x80
    4010e288:	a9077bfd 	stp	x29, x30, [sp, #112]
    4010e28c:	9101c3fd 	add	x29, sp, #0x70
    4010e290:	f85f03ab 	ldur	x11, [x29, #-16]
    4010e294:	910023e9 	add	x9, sp, #0x8
    4010e298:	a90093e3 	stp	x3, x4, [sp, #8]
    4010e29c:	128004e8 	mov	w8, #0xffffffd8            	// #-40
    4010e2a0:	910043aa 	add	x10, x29, #0x10
    4010e2a4:	9100a129 	add	x9, x9, #0x28
    4010e2a8:	9100c3e3 	add	x3, sp, #0x30
    4010e2ac:	a9019be5 	stp	x5, x6, [sp, #24]
    4010e2b0:	f90017e7 	str	x7, [sp, #40]
    4010e2b4:	f81f83a8 	stur	x8, [x29, #-8]
    4010e2b8:	a93e27aa 	stp	x10, x9, [x29, #-32]
    4010e2bc:	a90327ea 	stp	x10, x9, [sp, #48]
    4010e2c0:	a90423eb 	stp	x11, x8, [sp, #64]
    4010e2c4:	97fffd37 	bl	0x4010d7a0
    4010e2c8:	a9477bfd 	ldp	x29, x30, [sp, #112]
    4010e2cc:	910203ff 	add	sp, sp, #0x80
    4010e2d0:	d65f03c0 	ret
    4010e2d4:	d10283ff 	sub	sp, sp, #0xa0
    4010e2d8:	a9097bfd 	stp	x29, x30, [sp, #144]
    4010e2dc:	910243fd 	add	x29, sp, #0x90
    4010e2e0:	f85d03ac 	ldur	x12, [x29, #-48]
    4010e2e4:	910003ea 	mov	x10, sp
    4010e2e8:	128005e9 	mov	w9, #0xffffffd0            	// #-48
    4010e2ec:	910043ab 	add	x11, x29, #0x10
    4010e2f0:	9100c14a 	add	x10, x10, #0x30
    4010e2f4:	a9032beb 	stp	x11, x10, [sp, #48]
    4010e2f8:	a90427ec 	stp	x12, x9, [sp, #64]
    4010e2fc:	f81d83a9 	stur	x9, [x29, #-40]
    4010e300:	a93c2bab 	stp	x11, x10, [x29, #-64]
    4010e304:	aa0b03ea 	mov	x10, x11
    4010e308:	f9401feb 	ldr	x11, [sp, #56]
    4010e30c:	aa0c03e9 	mov	x9, x12
    4010e310:	f94027ec 	ldr	x12, [sp, #72]
    4010e314:	aa0103e8 	mov	x8, x1
    4010e318:	a9000fe2 	stp	x2, x3, [sp]
    4010e31c:	d10083a3 	sub	x3, x29, #0x20
    4010e320:	92f00001 	mov	x1, #0x7fffffffffffffff    	// #9223372036854775807
    4010e324:	aa0803e2 	mov	x2, x8
    4010e328:	a90117e4 	stp	x4, x5, [sp, #16]
    4010e32c:	a9021fe6 	stp	x6, x7, [sp, #32]
    4010e330:	a93e2faa 	stp	x10, x11, [x29, #-32]
    4010e334:	a93f33a9 	stp	x9, x12, [x29, #-16]
    4010e338:	97fffd1a 	bl	0x4010d7a0
    4010e33c:	a9497bfd 	ldp	x29, x30, [sp, #144]
    4010e340:	910283ff 	add	sp, sp, #0xa0
    4010e344:	d65f03c0 	ret
    4010e348:	a9be7bfd 	stp	x29, x30, [sp, #-32]!
    4010e34c:	a9014ffc 	stp	x28, x19, [sp, #16]
    4010e350:	910003fd 	mov	x29, sp
    4010e354:	d11083ff 	sub	sp, sp, #0x420
    4010e358:	a941244a 	ldp	x10, x9, [x2, #16]
    4010e35c:	a9402c4c 	ldp	x12, x11, [x2]
    4010e360:	aa0103e8 	mov	x8, x1
    4010e364:	aa0003f3 	mov	x19, x0
    4010e368:	910083e0 	add	x0, sp, #0x20
    4010e36c:	910003e3 	mov	x3, sp
    4010e370:	52808001 	mov	w1, #0x400                 	// #1024
    4010e374:	aa0803e2 	mov	x2, x8
    4010e378:	a90127ea 	stp	x10, x9, [sp, #16]
    4010e37c:	a9002fec 	stp	x12, x11, [sp]
    4010e380:	97fffd08 	bl	0x4010d7a0
    4010e384:	2a0003e1 	mov	w1, w0
    4010e388:	37f80220 	tbnz	w0, #31, 0x4010e3cc
    4010e38c:	b0000068 	adrp	x8, 0x4011b000
    4010e390:	f9418908 	ldr	x8, [x8, #784]
    4010e394:	eb13011f 	cmp	x8, x19
    4010e398:	540000e0 	b.eq	0x4010e3b4  // b.none
    4010e39c:	b0000068 	adrp	x8, 0x4011b000
    4010e3a0:	f9418d08 	ldr	x8, [x8, #792]
    4010e3a4:	eb13011f 	cmp	x8, x19
    4010e3a8:	540000c0 	b.eq	0x4010e3c0  // b.none
    4010e3ac:	2a1f03e1 	mov	w1, wzr
    4010e3b0:	14000007 	b	0x4010e3cc
    4010e3b4:	910083e0 	add	x0, sp, #0x20
    4010e3b8:	97ffc794 	bl	0x40100208
    4010e3bc:	14000003 	b	0x4010e3c8
    4010e3c0:	910083e0 	add	x0, sp, #0x20
    4010e3c4:	97ffc778 	bl	0x401001a4
    4010e3c8:	2a0003e1 	mov	w1, w0
    4010e3cc:	2a0103e0 	mov	w0, w1
    4010e3d0:	911083ff 	add	sp, sp, #0x420
    4010e3d4:	a9414ffc 	ldp	x28, x19, [sp, #16]
    4010e3d8:	a8c27bfd 	ldp	x29, x30, [sp], #32
    4010e3dc:	d65f03c0 	ret
    4010e3e0:	a9be7bfd 	stp	x29, x30, [sp, #-32]!
    4010e3e4:	a9014ffc 	stp	x28, x19, [sp, #16]
    4010e3e8:	910003fd 	mov	x29, sp
    4010e3ec:	d11243ff 	sub	sp, sp, #0x490
    4010e3f0:	f94033ec 	ldr	x12, [sp, #96]
    4010e3f4:	910003ea 	mov	x10, sp
    4010e3f8:	128005e9 	mov	w9, #0xffffffd0            	// #-48
    4010e3fc:	910083ab 	add	x11, x29, #0x20
    4010e400:	9100c14a 	add	x10, x10, #0x30
    4010e404:	a9032beb 	stp	x11, x10, [sp, #48]
    4010e408:	a90427ec 	stp	x12, x9, [sp, #64]
    4010e40c:	f90037e9 	str	x9, [sp, #104]
    4010e410:	a9052beb 	stp	x11, x10, [sp, #80]
    4010e414:	aa0b03ea 	mov	x10, x11
    4010e418:	f9401feb 	ldr	x11, [sp, #56]
    4010e41c:	aa0c03e9 	mov	x9, x12
    4010e420:	f94027ec 	ldr	x12, [sp, #72]
    4010e424:	aa0103e8 	mov	x8, x1
    4010e428:	aa0003f3 	mov	x19, x0
    4010e42c:	a9000fe2 	stp	x2, x3, [sp]
    4010e430:	910243e0 	add	x0, sp, #0x90
    4010e434:	9101c3e3 	add	x3, sp, #0x70
    4010e438:	52808001 	mov	w1, #0x400                 	// #1024
    4010e43c:	aa0803e2 	mov	x2, x8
    4010e440:	a90117e4 	stp	x4, x5, [sp, #16]
    4010e444:	a9021fe6 	stp	x6, x7, [sp, #32]
    4010e448:	a9072fea 	stp	x10, x11, [sp, #112]
    4010e44c:	a90833e9 	stp	x9, x12, [sp, #128]
    4010e450:	97fffcd4 	bl	0x4010d7a0
    4010e454:	2a0003e1 	mov	w1, w0
    4010e458:	37f80220 	tbnz	w0, #31, 0x4010e49c
    4010e45c:	b0000068 	adrp	x8, 0x4011b000
    4010e460:	f9418908 	ldr	x8, [x8, #784]
    4010e464:	eb13011f 	cmp	x8, x19
    4010e468:	540000e0 	b.eq	0x4010e484  // b.none
    4010e46c:	b0000068 	adrp	x8, 0x4011b000
    4010e470:	f9418d08 	ldr	x8, [x8, #792]
    4010e474:	eb13011f 	cmp	x8, x19
    4010e478:	540000c0 	b.eq	0x4010e490  // b.none
    4010e47c:	2a1f03e1 	mov	w1, wzr
    4010e480:	14000007 	b	0x4010e49c
    4010e484:	910243e0 	add	x0, sp, #0x90
    4010e488:	97ffc760 	bl	0x40100208
    4010e48c:	14000003 	b	0x4010e498
    4010e490:	910243e0 	add	x0, sp, #0x90
    4010e494:	97ffc744 	bl	0x401001a4
    4010e498:	2a0003e1 	mov	w1, w0
    4010e49c:	2a0103e0 	mov	w0, w1
    4010e4a0:	911243ff 	add	sp, sp, #0x490
    4010e4a4:	a9414ffc 	ldp	x28, x19, [sp, #16]
    4010e4a8:	a8c27bfd 	ldp	x29, x30, [sp], #32
    4010e4ac:	d65f03c0 	ret
    4010e4b0:	a9bd7bfd 	stp	x29, x30, [sp, #-48]!
    4010e4b4:	f9000bfc 	str	x28, [sp, #16]
    4010e4b8:	a9024ff4 	stp	x20, x19, [sp, #32]
    4010e4bc:	910003fd 	mov	x29, sp
    4010e4c0:	d11103ff 	sub	sp, sp, #0x440
    4010e4c4:	b0000074 	adrp	x20, 0x4011b000
    4010e4c8:	a9412428 	ldp	x8, x9, [x1, #16]
    4010e4cc:	a9402c2a 	ldp	x10, x11, [x1]
    4010e4d0:	f9418a93 	ldr	x19, [x20, #784]
    4010e4d4:	aa0003e2 	mov	x2, x0
    4010e4d8:	910103e0 	add	x0, sp, #0x40
    4010e4dc:	910083e3 	add	x3, sp, #0x20
    4010e4e0:	52808001 	mov	w1, #0x400                 	// #1024
    4010e4e4:	a90127e8 	stp	x8, x9, [sp, #16]
    4010e4e8:	a9002fea 	stp	x10, x11, [sp]
    4010e4ec:	a9022fea 	stp	x10, x11, [sp, #32]
    4010e4f0:	a90327e8 	stp	x8, x9, [sp, #48]
    4010e4f4:	97fffcab 	bl	0x4010d7a0
    4010e4f8:	2a0003e1 	mov	w1, w0
    4010e4fc:	37f80200 	tbnz	w0, #31, 0x4010e53c
    4010e500:	f9418a88 	ldr	x8, [x20, #784]
    4010e504:	eb13011f 	cmp	x8, x19
    4010e508:	540000e0 	b.eq	0x4010e524  // b.none
    4010e50c:	b0000068 	adrp	x8, 0x4011b000
    4010e510:	f9418d08 	ldr	x8, [x8, #792]
    4010e514:	eb13011f 	cmp	x8, x19
    4010e518:	540000c0 	b.eq	0x4010e530  // b.none
    4010e51c:	2a1f03e1 	mov	w1, wzr
    4010e520:	14000007 	b	0x4010e53c
    4010e524:	910103e0 	add	x0, sp, #0x40
    4010e528:	97ffc738 	bl	0x40100208
    4010e52c:	14000003 	b	0x4010e538
    4010e530:	910103e0 	add	x0, sp, #0x40
    4010e534:	97ffc71c 	bl	0x401001a4
    4010e538:	2a0003e1 	mov	w1, w0
    4010e53c:	2a0103e0 	mov	w0, w1
    4010e540:	911103ff 	add	sp, sp, #0x440
    4010e544:	a9424ff4 	ldp	x20, x19, [sp, #32]
    4010e548:	f9400bfc 	ldr	x28, [sp, #16]
    4010e54c:	a8c37bfd 	ldp	x29, x30, [sp], #48
    4010e550:	d65f03c0 	ret
    4010e554:	a9bd7bfd 	stp	x29, x30, [sp, #-48]!
    4010e558:	f9000bfc 	str	x28, [sp, #16]
    4010e55c:	a9024ff4 	stp	x20, x19, [sp, #32]
    4010e560:	910003fd 	mov	x29, sp
    4010e564:	d11303ff 	sub	sp, sp, #0x4c0
    4010e568:	910023ea 	add	x10, sp, #0x8
    4010e56c:	9100c3ab 	add	x11, x29, #0x30
    4010e570:	9100e14a 	add	x10, x10, #0x38
    4010e574:	a9042beb 	stp	x11, x10, [sp, #64]
    4010e578:	f9403bec 	ldr	x12, [sp, #112]
    4010e57c:	b0000074 	adrp	x20, 0x4011b000
    4010e580:	a9062beb 	stp	x11, x10, [sp, #96]
    4010e584:	aa0b03ea 	mov	x10, x11
    4010e588:	f94027eb 	ldr	x11, [sp, #72]
    4010e58c:	f9418a93 	ldr	x19, [x20, #784]
    4010e590:	aa0003e8 	mov	x8, x0
    4010e594:	a9008be1 	stp	x1, x2, [sp, #8]
    4010e598:	a90193e3 	stp	x3, x4, [sp, #24]
    4010e59c:	128006e9 	mov	w9, #0xffffffc8            	// #-56
    4010e5a0:	910303e0 	add	x0, sp, #0xc0
    4010e5a4:	910283e3 	add	x3, sp, #0xa0
    4010e5a8:	52808001 	mov	w1, #0x400                 	// #1024
    4010e5ac:	aa0803e2 	mov	x2, x8
    4010e5b0:	a9029be5 	stp	x5, x6, [sp, #40]
    4010e5b4:	f9001fe7 	str	x7, [sp, #56]
    4010e5b8:	a90527ec 	stp	x12, x9, [sp, #80]
    4010e5bc:	a907abe9 	stp	x9, x10, [sp, #120]
    4010e5c0:	a908b3eb 	stp	x11, x12, [sp, #136]
    4010e5c4:	a90a2fea 	stp	x10, x11, [sp, #160]
    4010e5c8:	f9004fe9 	str	x9, [sp, #152]
    4010e5cc:	a90b27ec 	stp	x12, x9, [sp, #176]
    4010e5d0:	97fffc74 	bl	0x4010d7a0
    4010e5d4:	2a0003e1 	mov	w1, w0
    4010e5d8:	37f80200 	tbnz	w0, #31, 0x4010e618
    4010e5dc:	f9418a88 	ldr	x8, [x20, #784]
    4010e5e0:	eb13011f 	cmp	x8, x19
    4010e5e4:	540000e0 	b.eq	0x4010e600  // b.none
    4010e5e8:	b0000068 	adrp	x8, 0x4011b000
    4010e5ec:	f9418d08 	ldr	x8, [x8, #792]
    4010e5f0:	eb13011f 	cmp	x8, x19
    4010e5f4:	540000c0 	b.eq	0x4010e60c  // b.none
    4010e5f8:	2a1f03e1 	mov	w1, wzr
    4010e5fc:	14000007 	b	0x4010e618
    4010e600:	910303e0 	add	x0, sp, #0xc0
    4010e604:	97ffc701 	bl	0x40100208
    4010e608:	14000003 	b	0x4010e614
    4010e60c:	910303e0 	add	x0, sp, #0xc0
    4010e610:	97ffc6e5 	bl	0x401001a4
    4010e614:	2a0003e1 	mov	w1, w0
    4010e618:	2a0103e0 	mov	w0, w1
    4010e61c:	911303ff 	add	sp, sp, #0x4c0
    4010e620:	a9424ff4 	ldp	x20, x19, [sp, #32]
    4010e624:	f9400bfc 	ldr	x28, [sp, #16]
    4010e628:	a8c37bfd 	ldp	x29, x30, [sp], #48
    4010e62c:	d65f03c0 	ret
    4010e630:	2a1f03e0 	mov	w0, wzr
    4010e634:	d65f03c0 	ret
    4010e638:	a9be7bfd 	stp	x29, x30, [sp, #-32]!
    4010e63c:	f9000bf3 	str	x19, [sp, #16]
    4010e640:	910003fd 	mov	x29, sp
    4010e644:	b0000068 	adrp	x8, 0x4011b000
    4010e648:	f9418908 	ldr	x8, [x8, #784]
    4010e64c:	2a0003f3 	mov	w19, w0
    4010e650:	390073a0 	strb	w0, [x29, #28]
    4010e654:	eb01011f 	cmp	x8, x1
    4010e658:	540000e0 	b.eq	0x4010e674  // b.none
    4010e65c:	b0000068 	adrp	x8, 0x4011b000
    4010e660:	f9418d08 	ldr	x8, [x8, #792]
    4010e664:	eb01011f 	cmp	x8, x1
    4010e668:	540000e0 	b.eq	0x4010e684  // b.none
    4010e66c:	12800000 	mov	w0, #0xffffffff            	// #-1
    4010e670:	1400000a 	b	0x4010e698
    4010e674:	910073a0 	add	x0, x29, #0x1c
    4010e678:	52800021 	mov	w1, #0x1                   	// #1
    4010e67c:	97ffc6e3 	bl	0x40100208
    4010e680:	14000004 	b	0x4010e690
    4010e684:	910073a0 	add	x0, x29, #0x1c
    4010e688:	52800021 	mov	w1, #0x1                   	// #1
    4010e68c:	97ffc6c6 	bl	0x401001a4
    4010e690:	7100041f 	cmp	w0, #0x1
    4010e694:	5a9f0260 	csinv	w0, w19, wzr, eq  // eq = none
    4010e698:	f9400bf3 	ldr	x19, [sp, #16]
    4010e69c:	a8c27bfd 	ldp	x29, x30, [sp], #32
    4010e6a0:	d65f03c0 	ret
    4010e6a4:	a9be7bfd 	stp	x29, x30, [sp, #-32]!
    4010e6a8:	f9000bf3 	str	x19, [sp, #16]
    4010e6ac:	910003fd 	mov	x29, sp
    4010e6b0:	2a0003f3 	mov	w19, w0
    4010e6b4:	390073a0 	strb	w0, [x29, #28]
    4010e6b8:	910073a0 	add	x0, x29, #0x1c
    4010e6bc:	52800021 	mov	w1, #0x1                   	// #1
    4010e6c0:	97ffc6d2 	bl	0x40100208
    4010e6c4:	7100041f 	cmp	w0, #0x1
    4010e6c8:	5a9f0260 	csinv	w0, w19, wzr, eq  // eq = none
    4010e6cc:	f9400bf3 	ldr	x19, [sp, #16]
    4010e6d0:	a8c27bfd 	ldp	x29, x30, [sp], #32
    4010e6d4:	d65f03c0 	ret
    4010e6d8:	a9bd7bfd 	stp	x29, x30, [sp, #-48]!
    4010e6dc:	f9000bf5 	str	x21, [sp, #16]
    4010e6e0:	a9024ff4 	stp	x20, x19, [sp, #32]
    4010e6e4:	910003fd 	mov	x29, sp
    4010e6e8:	aa0103f3 	mov	x19, x1
    4010e6ec:	7100905f 	cmp	w2, #0x24
    4010e6f0:	aa0003f4 	mov	x20, x0
    4010e6f4:	540001e8 	b.hi	0x4010e730  // b.pmore
    4010e6f8:	7100045f 	cmp	w2, #0x1
    4010e6fc:	540001a0 	b.eq	0x4010e730  // b.none
    4010e700:	d0000049 	adrp	x9, 0x40118000
    4010e704:	910ca129 	add	x9, x9, #0x328
    4010e708:	aa1403f5 	mov	x21, x20
    4010e70c:	384016aa 	ldrb	w10, [x21], #1
    4010e710:	386a6928 	ldrb	w8, [x9, x10]
    4010e714:	372fffc8 	tbnz	w8, #5, 0x4010e70c
    4010e718:	7100ad5f 	cmp	w10, #0x2b
    4010e71c:	540001c0 	b.eq	0x4010e754  // b.none
    4010e720:	7100b55f 	cmp	w10, #0x2d
    4010e724:	54000221 	b.ne	0x4010e768  // b.any
    4010e728:	52800028 	mov	w8, #0x1                   	// #1
    4010e72c:	1400000b 	b	0x4010e758
    4010e730:	97fffc19 	bl	0x4010d794
    4010e734:	aa0003e8 	mov	x8, x0
    4010e738:	128002a9 	mov	w9, #0xffffffea            	// #-22
    4010e73c:	aa1f03e0 	mov	x0, xzr
    4010e740:	2a1f03ed 	mov	w13, wzr
    4010e744:	b9000109 	str	w9, [x8]
    4010e748:	aa1403f5 	mov	x21, x20
    4010e74c:	b5000a53 	cbnz	x19, 0x4010e894
    4010e750:	14000055 	b	0x4010e8a4
    4010e754:	2a1f03e8 	mov	w8, wzr
    4010e758:	384016aa 	ldrb	w10, [x21], #1
    4010e75c:	721b785f 	tst	w2, #0xffffffef
    4010e760:	540000a0 	b.eq	0x4010e774  // b.none
    4010e764:	14000012 	b	0x4010e7ac
    4010e768:	2a1f03e8 	mov	w8, wzr
    4010e76c:	721b785f 	tst	w2, #0xffffffef
    4010e770:	540001e1 	b.ne	0x4010e7ac  // b.any
    4010e774:	7100c15f 	cmp	w10, #0x30
    4010e778:	540001a1 	b.ne	0x4010e7ac  // b.any
    4010e77c:	394002aa 	ldrb	w10, [x21]
    4010e780:	321b014a 	orr	w10, w10, #0x20
    4010e784:	7101e15f 	cmp	w10, #0x78
    4010e788:	540001e1 	b.ne	0x4010e7c4  // b.any
    4010e78c:	394006aa 	ldrb	w10, [x21, #1]
    4010e790:	91000ab5 	add	x21, x21, #0x2
    4010e794:	5280020d 	mov	w13, #0x10                  	// #16
    4010e798:	13001d4b 	sxtb	w11, w10
    4010e79c:	36f8024b 	tbz	w11, #31, 0x4010e7e4
    4010e7a0:	2a1f03ed 	mov	w13, wzr
    4010e7a4:	aa1f03eb 	mov	x11, xzr
    4010e7a8:	14000038 	b	0x4010e888
    4010e7ac:	7100005f 	cmp	w2, #0x0
    4010e7b0:	1a9f17eb 	cset	w11, eq  // eq = none
    4010e7b4:	7100c15f 	cmp	w10, #0x30
    4010e7b8:	540000a0 	b.eq	0x4010e7cc  // b.none
    4010e7bc:	5280014c 	mov	w12, #0xa                   	// #10
    4010e7c0:	14000005 	b	0x4010e7d4
    4010e7c4:	7100005f 	cmp	w2, #0x0
    4010e7c8:	1a9f17eb 	cset	w11, eq  // eq = none
    4010e7cc:	5280010c 	mov	w12, #0x8                   	// #8
    4010e7d0:	5280060a 	mov	w10, #0x30                  	// #48
    4010e7d4:	7100017f 	cmp	w11, #0x0
    4010e7d8:	1a82118d 	csel	w13, w12, w2, ne  // ne = any
    4010e7dc:	13001d4b 	sxtb	w11, w10
    4010e7e0:	37fffe0b 	tbnz	w11, #31, 0x4010e7a0
    4010e7e4:	93407dac 	sxtw	x12, w13
    4010e7e8:	9280000f 	mov	x15, #0xffffffffffffffff    	// #-1
    4010e7ec:	9acc09ef 	udiv	x15, x15, x12
    4010e7f0:	1b0d7ded 	mul	w13, w15, w13
    4010e7f4:	2a1f03f2 	mov	w18, wzr
    4010e7f8:	aa1f03eb 	mov	x11, xzr
    4010e7fc:	528006ee 	mov	w14, #0x37                  	// #55
    4010e800:	2a2d03f0 	mvn	w16, w13
    4010e804:	52800af1 	mov	w17, #0x57                  	// #87
    4010e808:	14000006 	b	0x4010e820
    4010e80c:	9b0c296b 	madd	x11, x11, x12, x10
    4010e810:	5280002d 	mov	w13, #0x1                   	// #1
    4010e814:	38c016aa 	ldrsb	w10, [x21], #1
    4010e818:	2a0d03f2 	mov	w18, w13
    4010e81c:	37f8034a 	tbnz	w10, #31, 0x4010e884
    4010e820:	92401d4d 	and	x13, x10, #0xff
    4010e824:	386d692d 	ldrb	w13, [x9, x13]
    4010e828:	371000ed 	tbnz	w13, #2, 0x4010e844
    4010e82c:	720005bf 	tst	w13, #0x3
    4010e830:	54000420 	b.eq	0x4010e8b4  // b.none
    4010e834:	720001bf 	tst	w13, #0x1
    4010e838:	1a8e022d 	csel	w13, w17, w14, eq  // eq = none
    4010e83c:	4b0d014a 	sub	w10, w10, w13
    4010e840:	14000002 	b	0x4010e848
    4010e844:	5100c14a 	sub	w10, w10, #0x30
    4010e848:	12001d4a 	and	w10, w10, #0xff
    4010e84c:	6b0a019f 	cmp	w12, w10
    4010e850:	5400018d 	b.le	0x4010e880
    4010e854:	eb0f017f 	cmp	x11, x15
    4010e858:	1280000d 	mov	w13, #0xffffffff            	// #-1
    4010e85c:	54fffdc8 	b.hi	0x4010e814  // b.pmore
    4010e860:	37fffdb2 	tbnz	w18, #31, 0x4010e814
    4010e864:	eb0f017f 	cmp	x11, x15
    4010e868:	54fffd21 	b.ne	0x4010e80c  // b.any
    4010e86c:	6b10015f 	cmp	w10, w16
    4010e870:	54fffced 	b.le	0x4010e80c
    4010e874:	1280000d 	mov	w13, #0xffffffff            	// #-1
    4010e878:	aa0f03eb 	mov	x11, x15
    4010e87c:	17ffffe6 	b	0x4010e814
    4010e880:	2a1203ed 	mov	w13, w18
    4010e884:	37f801cd 	tbnz	w13, #31, 0x4010e8bc
    4010e888:	7100011f 	cmp	w8, #0x0
    4010e88c:	da8b0560 	cneg	x0, x11, ne  // ne = any
    4010e890:	b40000b3 	cbz	x19, 0x4010e8a4
    4010e894:	d10006a8 	sub	x8, x21, #0x1
    4010e898:	710001bf 	cmp	w13, #0x0
    4010e89c:	9a880288 	csel	x8, x20, x8, eq  // eq = none
    4010e8a0:	f9000268 	str	x8, [x19]
    4010e8a4:	a9424ff4 	ldp	x20, x19, [sp, #32]
    4010e8a8:	f9400bf5 	ldr	x21, [sp, #16]
    4010e8ac:	a8c37bfd 	ldp	x29, x30, [sp], #48
    4010e8b0:	d65f03c0 	ret
    4010e8b4:	2a1203ed 	mov	w13, w18
    4010e8b8:	36fffe8d 	tbz	w13, #31, 0x4010e888
    4010e8bc:	97fffbb6 	bl	0x4010d794
    4010e8c0:	52800448 	mov	w8, #0x22                  	// #34
    4010e8c4:	1280000d 	mov	w13, #0xffffffff            	// #-1
    4010e8c8:	b9000008 	str	w8, [x0]
    4010e8cc:	92800000 	mov	x0, #0xffffffffffffffff    	// #-1
    4010e8d0:	b5fffe33 	cbnz	x19, 0x4010e894
    4010e8d4:	17fffff4 	b	0x4010e8a4
    4010e8d8:	a9bd7bfd 	stp	x29, x30, [sp, #-48]!
    4010e8dc:	a90157f6 	stp	x22, x21, [sp, #16]
    4010e8e0:	a9024ff4 	stp	x20, x19, [sp, #32]
    4010e8e4:	910003fd 	mov	x29, sp
    4010e8e8:	aa0103f3 	mov	x19, x1
    4010e8ec:	7100905f 	cmp	w2, #0x24
    4010e8f0:	aa0003f4 	mov	x20, x0
    4010e8f4:	540001e8 	b.hi	0x4010e930  // b.pmore
    4010e8f8:	7100045f 	cmp	w2, #0x1
    4010e8fc:	540001a0 	b.eq	0x4010e930  // b.none
    4010e900:	d0000049 	adrp	x9, 0x40118000
    4010e904:	910ca129 	add	x9, x9, #0x328
    4010e908:	aa1403f6 	mov	x22, x20
    4010e90c:	384016ca 	ldrb	w10, [x22], #1
    4010e910:	386a6928 	ldrb	w8, [x9, x10]
    4010e914:	372fffc8 	tbnz	w8, #5, 0x4010e90c
    4010e918:	7100ad5f 	cmp	w10, #0x2b
    4010e91c:	540001a0 	b.eq	0x4010e950  // b.none
    4010e920:	7100b55f 	cmp	w10, #0x2d
    4010e924:	54000201 	b.ne	0x4010e964  // b.any
    4010e928:	52800028 	mov	w8, #0x1                   	// #1
    4010e92c:	1400000a 	b	0x4010e954
    4010e930:	97fffb99 	bl	0x4010d794
    4010e934:	128002a8 	mov	w8, #0xffffffea            	// #-22
    4010e938:	aa1f03f5 	mov	x21, xzr
    4010e93c:	2a1f03ee 	mov	w14, wzr
    4010e940:	b9000008 	str	w8, [x0]
    4010e944:	aa1403f6 	mov	x22, x20
    4010e948:	b5000a53 	cbnz	x19, 0x4010ea90
    4010e94c:	14000055 	b	0x4010eaa0
    4010e950:	2a1f03e8 	mov	w8, wzr
    4010e954:	384016ca 	ldrb	w10, [x22], #1
    4010e958:	721b785f 	tst	w2, #0xffffffef
    4010e95c:	540000a0 	b.eq	0x4010e970  // b.none
    4010e960:	1400000e 	b	0x4010e998
    4010e964:	2a1f03e8 	mov	w8, wzr
    4010e968:	721b785f 	tst	w2, #0xffffffef
    4010e96c:	54000161 	b.ne	0x4010e998  // b.any
    4010e970:	7100c15f 	cmp	w10, #0x30
    4010e974:	54000121 	b.ne	0x4010e998  // b.any
    4010e978:	394002ca 	ldrb	w10, [x22]
    4010e97c:	321b014a 	orr	w10, w10, #0x20
    4010e980:	7101e15f 	cmp	w10, #0x78
    4010e984:	54000161 	b.ne	0x4010e9b0  // b.any
    4010e988:	394006ca 	ldrb	w10, [x22, #1]
    4010e98c:	91000ad6 	add	x22, x22, #0x2
    4010e990:	5280020e 	mov	w14, #0x10                  	// #16
    4010e994:	1400000d 	b	0x4010e9c8
    4010e998:	7100005f 	cmp	w2, #0x0
    4010e99c:	1a9f17eb 	cset	w11, eq  // eq = none
    4010e9a0:	7100c15f 	cmp	w10, #0x30
    4010e9a4:	540000a0 	b.eq	0x4010e9b8  // b.none
    4010e9a8:	5280014c 	mov	w12, #0xa                   	// #10
    4010e9ac:	14000005 	b	0x4010e9c0
    4010e9b0:	7100005f 	cmp	w2, #0x0
    4010e9b4:	1a9f17eb 	cset	w11, eq  // eq = none
    4010e9b8:	5280010c 	mov	w12, #0x8                   	// #8
    4010e9bc:	5280060a 	mov	w10, #0x30                  	// #48
    4010e9c0:	7100017f 	cmp	w11, #0x0
    4010e9c4:	1a82118e 	csel	w14, w12, w2, ne  // ne = any
    4010e9c8:	7100011f 	cmp	w8, #0x0
    4010e9cc:	d2f0000b 	mov	x11, #0x8000000000000000    	// #-9223372036854775808
    4010e9d0:	13001d4c 	sxtb	w12, w10
    4010e9d4:	da8b1175 	cinv	x21, x11, eq  // eq = none
    4010e9d8:	37f804cc 	tbnz	w12, #31, 0x4010ea70
    4010e9dc:	2a0e03ec 	mov	w12, w14
    4010e9e0:	9acc0aaf 	udiv	x15, x21, x12
    4010e9e4:	2a1f03f2 	mov	w18, wzr
    4010e9e8:	aa1f03eb 	mov	x11, xzr
    4010e9ec:	528006ed 	mov	w13, #0x37                  	// #55
    4010e9f0:	1b0ed5f0 	msub	w16, w15, w14, w21
    4010e9f4:	52800af1 	mov	w17, #0x57                  	// #87
    4010e9f8:	14000006 	b	0x4010ea10
    4010e9fc:	9b0c296b 	madd	x11, x11, x12, x10
    4010ea00:	5280002e 	mov	w14, #0x1                   	// #1
    4010ea04:	38c016ca 	ldrsb	w10, [x22], #1
    4010ea08:	2a0e03f2 	mov	w18, w14
    4010ea0c:	37f803aa 	tbnz	w10, #31, 0x4010ea80
    4010ea10:	92401d4e 	and	x14, x10, #0xff
    4010ea14:	386e692e 	ldrb	w14, [x9, x14]
    4010ea18:	371000ee 	tbnz	w14, #2, 0x4010ea34
    4010ea1c:	720005df 	tst	w14, #0x3
    4010ea20:	540004a0 	b.eq	0x4010eab4  // b.none
    4010ea24:	720001df 	tst	w14, #0x1
    4010ea28:	1a8d022e 	csel	w14, w17, w13, eq  // eq = none
    4010ea2c:	4b0e014a 	sub	w10, w10, w14
    4010ea30:	14000002 	b	0x4010ea38
    4010ea34:	5100c14a 	sub	w10, w10, #0x30
    4010ea38:	12001d4a 	and	w10, w10, #0xff
    4010ea3c:	6b0a019f 	cmp	w12, w10
    4010ea40:	540001ed 	b.le	0x4010ea7c
    4010ea44:	eb0f017f 	cmp	x11, x15
    4010ea48:	1280000e 	mov	w14, #0xffffffff            	// #-1
    4010ea4c:	54fffdc8 	b.hi	0x4010ea04  // b.pmore
    4010ea50:	37fffdb2 	tbnz	w18, #31, 0x4010ea04
    4010ea54:	eb0f017f 	cmp	x11, x15
    4010ea58:	54fffd21 	b.ne	0x4010e9fc  // b.any
    4010ea5c:	6b10015f 	cmp	w10, w16
    4010ea60:	54fffced 	b.le	0x4010e9fc
    4010ea64:	1280000e 	mov	w14, #0xffffffff            	// #-1
    4010ea68:	aa0f03eb 	mov	x11, x15
    4010ea6c:	17ffffe6 	b	0x4010ea04
    4010ea70:	2a1f03ee 	mov	w14, wzr
    4010ea74:	aa1f03eb 	mov	x11, xzr
    4010ea78:	14000003 	b	0x4010ea84
    4010ea7c:	2a1203ee 	mov	w14, w18
    4010ea80:	37f801ee 	tbnz	w14, #31, 0x4010eabc
    4010ea84:	7100011f 	cmp	w8, #0x0
    4010ea88:	da8b0575 	cneg	x21, x11, ne  // ne = any
    4010ea8c:	b40000b3 	cbz	x19, 0x4010eaa0
    4010ea90:	d10006c8 	sub	x8, x22, #0x1
    4010ea94:	710001df 	cmp	w14, #0x0
    4010ea98:	9a880288 	csel	x8, x20, x8, eq  // eq = none
    4010ea9c:	f9000268 	str	x8, [x19]
    4010eaa0:	aa1503e0 	mov	x0, x21
    4010eaa4:	a9424ff4 	ldp	x20, x19, [sp, #32]
    4010eaa8:	a94157f6 	ldp	x22, x21, [sp, #16]
    4010eaac:	a8c37bfd 	ldp	x29, x30, [sp], #48
    4010eab0:	d65f03c0 	ret
    4010eab4:	2a1203ee 	mov	w14, w18
    4010eab8:	36fffe6e 	tbz	w14, #31, 0x4010ea84
    4010eabc:	97fffb36 	bl	0x4010d794
    4010eac0:	52800448 	mov	w8, #0x22                  	// #34
    4010eac4:	1280000e 	mov	w14, #0xffffffff            	// #-1
    4010eac8:	b9000008 	str	w8, [x0]
    4010eacc:	b5fffe33 	cbnz	x19, 0x4010ea90
    4010ead0:	17fffff4 	b	0x4010eaa0
    4010ead4:	a9bd7bfd 	stp	x29, x30, [sp, #-48]!
    4010ead8:	a90157f6 	stp	x22, x21, [sp, #16]
    4010eadc:	a9024ff4 	stp	x20, x19, [sp, #32]
    4010eae0:	910003fd 	mov	x29, sp
    4010eae4:	aa0103f3 	mov	x19, x1
    4010eae8:	7100905f 	cmp	w2, #0x24
    4010eaec:	aa0003f4 	mov	x20, x0
    4010eaf0:	540001e8 	b.hi	0x4010eb2c  // b.pmore
    4010eaf4:	7100045f 	cmp	w2, #0x1
    4010eaf8:	540001a0 	b.eq	0x4010eb2c  // b.none
    4010eafc:	d0000049 	adrp	x9, 0x40118000
    4010eb00:	910ca129 	add	x9, x9, #0x328
    4010eb04:	aa1403f6 	mov	x22, x20
    4010eb08:	384016ca 	ldrb	w10, [x22], #1
    4010eb0c:	386a6928 	ldrb	w8, [x9, x10]
    4010eb10:	372fffc8 	tbnz	w8, #5, 0x4010eb08
    4010eb14:	7100ad5f 	cmp	w10, #0x2b
    4010eb18:	540001a0 	b.eq	0x4010eb4c  // b.none
    4010eb1c:	7100b55f 	cmp	w10, #0x2d
    4010eb20:	54000201 	b.ne	0x4010eb60  // b.any
    4010eb24:	52800028 	mov	w8, #0x1                   	// #1
    4010eb28:	1400000a 	b	0x4010eb50
    4010eb2c:	97fffb1a 	bl	0x4010d794
    4010eb30:	128002a8 	mov	w8, #0xffffffea            	// #-22
    4010eb34:	aa1f03f5 	mov	x21, xzr
    4010eb38:	2a1f03ee 	mov	w14, wzr
    4010eb3c:	b9000008 	str	w8, [x0]
    4010eb40:	aa1403f6 	mov	x22, x20
    4010eb44:	b5000a53 	cbnz	x19, 0x4010ec8c
    4010eb48:	14000055 	b	0x4010ec9c
    4010eb4c:	2a1f03e8 	mov	w8, wzr
    4010eb50:	384016ca 	ldrb	w10, [x22], #1
    4010eb54:	721b785f 	tst	w2, #0xffffffef
    4010eb58:	540000a0 	b.eq	0x4010eb6c  // b.none
    4010eb5c:	1400000e 	b	0x4010eb94
    4010eb60:	2a1f03e8 	mov	w8, wzr
    4010eb64:	721b785f 	tst	w2, #0xffffffef
    4010eb68:	54000161 	b.ne	0x4010eb94  // b.any
    4010eb6c:	7100c15f 	cmp	w10, #0x30
    4010eb70:	54000121 	b.ne	0x4010eb94  // b.any
    4010eb74:	394002ca 	ldrb	w10, [x22]
    4010eb78:	321b014a 	orr	w10, w10, #0x20
    4010eb7c:	7101e15f 	cmp	w10, #0x78
    4010eb80:	54000161 	b.ne	0x4010ebac  // b.any
    4010eb84:	394006ca 	ldrb	w10, [x22, #1]
    4010eb88:	91000ad6 	add	x22, x22, #0x2
    4010eb8c:	5280020e 	mov	w14, #0x10                  	// #16
    4010eb90:	1400000d 	b	0x4010ebc4
    4010eb94:	7100005f 	cmp	w2, #0x0
    4010eb98:	1a9f17eb 	cset	w11, eq  // eq = none
    4010eb9c:	7100c15f 	cmp	w10, #0x30
    4010eba0:	540000a0 	b.eq	0x4010ebb4  // b.none
    4010eba4:	5280014c 	mov	w12, #0xa                   	// #10
    4010eba8:	14000005 	b	0x4010ebbc
    4010ebac:	7100005f 	cmp	w2, #0x0
    4010ebb0:	1a9f17eb 	cset	w11, eq  // eq = none
    4010ebb4:	5280010c 	mov	w12, #0x8                   	// #8
    4010ebb8:	5280060a 	mov	w10, #0x30                  	// #48
    4010ebbc:	7100017f 	cmp	w11, #0x0
    4010ebc0:	1a82118e 	csel	w14, w12, w2, ne  // ne = any
    4010ebc4:	7100011f 	cmp	w8, #0x0
    4010ebc8:	d2f0000b 	mov	x11, #0x8000000000000000    	// #-9223372036854775808
    4010ebcc:	13001d4c 	sxtb	w12, w10
    4010ebd0:	da8b1175 	cinv	x21, x11, eq  // eq = none
    4010ebd4:	37f804cc 	tbnz	w12, #31, 0x4010ec6c
    4010ebd8:	2a0e03ec 	mov	w12, w14
    4010ebdc:	9acc0aaf 	udiv	x15, x21, x12
    4010ebe0:	2a1f03f2 	mov	w18, wzr
    4010ebe4:	aa1f03eb 	mov	x11, xzr
    4010ebe8:	528006ed 	mov	w13, #0x37                  	// #55
    4010ebec:	1b0ed5f0 	msub	w16, w15, w14, w21
    4010ebf0:	52800af1 	mov	w17, #0x57                  	// #87
    4010ebf4:	14000006 	b	0x4010ec0c
    4010ebf8:	9b0c296b 	madd	x11, x11, x12, x10
    4010ebfc:	5280002e 	mov	w14, #0x1                   	// #1
    4010ec00:	38c016ca 	ldrsb	w10, [x22], #1
    4010ec04:	2a0e03f2 	mov	w18, w14
    4010ec08:	37f803aa 	tbnz	w10, #31, 0x4010ec7c
    4010ec0c:	92401d4e 	and	x14, x10, #0xff
    4010ec10:	386e692e 	ldrb	w14, [x9, x14]
    4010ec14:	371000ee 	tbnz	w14, #2, 0x4010ec30
    4010ec18:	720005df 	tst	w14, #0x3
    4010ec1c:	540004a0 	b.eq	0x4010ecb0  // b.none
    4010ec20:	720001df 	tst	w14, #0x1
    4010ec24:	1a8d022e 	csel	w14, w17, w13, eq  // eq = none
    4010ec28:	4b0e014a 	sub	w10, w10, w14
    4010ec2c:	14000002 	b	0x4010ec34
    4010ec30:	5100c14a 	sub	w10, w10, #0x30
    4010ec34:	12001d4a 	and	w10, w10, #0xff
    4010ec38:	6b0a019f 	cmp	w12, w10
    4010ec3c:	540001ed 	b.le	0x4010ec78
    4010ec40:	eb0f017f 	cmp	x11, x15
    4010ec44:	1280000e 	mov	w14, #0xffffffff            	// #-1
    4010ec48:	54fffdc8 	b.hi	0x4010ec00  // b.pmore
    4010ec4c:	37fffdb2 	tbnz	w18, #31, 0x4010ec00
    4010ec50:	eb0f017f 	cmp	x11, x15
    4010ec54:	54fffd21 	b.ne	0x4010ebf8  // b.any
    4010ec58:	6b10015f 	cmp	w10, w16
    4010ec5c:	54fffced 	b.le	0x4010ebf8
    4010ec60:	1280000e 	mov	w14, #0xffffffff            	// #-1
    4010ec64:	aa0f03eb 	mov	x11, x15
    4010ec68:	17ffffe6 	b	0x4010ec00
    4010ec6c:	2a1f03ee 	mov	w14, wzr
    4010ec70:	aa1f03eb 	mov	x11, xzr
    4010ec74:	14000003 	b	0x4010ec80
    4010ec78:	2a1203ee 	mov	w14, w18
    4010ec7c:	37f801ee 	tbnz	w14, #31, 0x4010ecb8
    4010ec80:	7100011f 	cmp	w8, #0x0
    4010ec84:	da8b0575 	cneg	x21, x11, ne  // ne = any
    4010ec88:	b40000b3 	cbz	x19, 0x4010ec9c
    4010ec8c:	d10006c8 	sub	x8, x22, #0x1
    4010ec90:	710001df 	cmp	w14, #0x0
    4010ec94:	9a880288 	csel	x8, x20, x8, eq  // eq = none
    4010ec98:	f9000268 	str	x8, [x19]
    4010ec9c:	aa1503e0 	mov	x0, x21
    4010eca0:	a9424ff4 	ldp	x20, x19, [sp, #32]
    4010eca4:	a94157f6 	ldp	x22, x21, [sp, #16]
    4010eca8:	a8c37bfd 	ldp	x29, x30, [sp], #48
    4010ecac:	d65f03c0 	ret
    4010ecb0:	2a1203ee 	mov	w14, w18
    4010ecb4:	36fffe6e 	tbz	w14, #31, 0x4010ec80
    4010ecb8:	97fffab7 	bl	0x4010d794
    4010ecbc:	52800448 	mov	w8, #0x22                  	// #34
    4010ecc0:	1280000e 	mov	w14, #0xffffffff            	// #-1
    4010ecc4:	b9000008 	str	w8, [x0]
    4010ecc8:	b5fffe33 	cbnz	x19, 0x4010ec8c
    4010eccc:	17fffff4 	b	0x4010ec9c
    4010ecd0:	a9bd7bfd 	stp	x29, x30, [sp, #-48]!
    4010ecd4:	f9000bf5 	str	x21, [sp, #16]
    4010ecd8:	a9024ff4 	stp	x20, x19, [sp, #32]
    4010ecdc:	910003fd 	mov	x29, sp
    4010ece0:	aa0103f3 	mov	x19, x1
    4010ece4:	7100905f 	cmp	w2, #0x24
    4010ece8:	aa0003f4 	mov	x20, x0
    4010ecec:	540001e8 	b.hi	0x4010ed28  // b.pmore
    4010ecf0:	7100045f 	cmp	w2, #0x1
    4010ecf4:	540001a0 	b.eq	0x4010ed28  // b.none
    4010ecf8:	d0000049 	adrp	x9, 0x40118000
    4010ecfc:	910ca129 	add	x9, x9, #0x328
    4010ed00:	aa1403f5 	mov	x21, x20
    4010ed04:	384016aa 	ldrb	w10, [x21], #1
    4010ed08:	386a6928 	ldrb	w8, [x9, x10]
    4010ed0c:	372fffc8 	tbnz	w8, #5, 0x4010ed04
    4010ed10:	7100ad5f 	cmp	w10, #0x2b
    4010ed14:	540001c0 	b.eq	0x4010ed4c  // b.none
    4010ed18:	7100b55f 	cmp	w10, #0x2d
    4010ed1c:	54000221 	b.ne	0x4010ed60  // b.any
    4010ed20:	52800028 	mov	w8, #0x1                   	// #1
    4010ed24:	1400000b 	b	0x4010ed50
    4010ed28:	97fffa9b 	bl	0x4010d794
    4010ed2c:	aa0003e8 	mov	x8, x0
    4010ed30:	128002a9 	mov	w9, #0xffffffea            	// #-22
    4010ed34:	aa1f03e0 	mov	x0, xzr
    4010ed38:	2a1f03ed 	mov	w13, wzr
    4010ed3c:	b9000109 	str	w9, [x8]
    4010ed40:	aa1403f5 	mov	x21, x20
    4010ed44:	b5000a53 	cbnz	x19, 0x4010ee8c
    4010ed48:	14000055 	b	0x4010ee9c
    4010ed4c:	2a1f03e8 	mov	w8, wzr
    4010ed50:	384016aa 	ldrb	w10, [x21], #1
    4010ed54:	721b785f 	tst	w2, #0xffffffef
    4010ed58:	540000a0 	b.eq	0x4010ed6c  // b.none
    4010ed5c:	14000012 	b	0x4010eda4
    4010ed60:	2a1f03e8 	mov	w8, wzr
    4010ed64:	721b785f 	tst	w2, #0xffffffef
    4010ed68:	540001e1 	b.ne	0x4010eda4  // b.any
    4010ed6c:	7100c15f 	cmp	w10, #0x30
    4010ed70:	540001a1 	b.ne	0x4010eda4  // b.any
    4010ed74:	394002aa 	ldrb	w10, [x21]
    4010ed78:	321b014a 	orr	w10, w10, #0x20
    4010ed7c:	7101e15f 	cmp	w10, #0x78
    4010ed80:	540001e1 	b.ne	0x4010edbc  // b.any
    4010ed84:	394006aa 	ldrb	w10, [x21, #1]
    4010ed88:	91000ab5 	add	x21, x21, #0x2
    4010ed8c:	5280020d 	mov	w13, #0x10                  	// #16
    4010ed90:	13001d4b 	sxtb	w11, w10
    4010ed94:	36f8024b 	tbz	w11, #31, 0x4010eddc
    4010ed98:	2a1f03ed 	mov	w13, wzr
    4010ed9c:	aa1f03eb 	mov	x11, xzr
    4010eda0:	14000038 	b	0x4010ee80
    4010eda4:	7100005f 	cmp	w2, #0x0
    4010eda8:	1a9f17eb 	cset	w11, eq  // eq = none
    4010edac:	7100c15f 	cmp	w10, #0x30
    4010edb0:	540000a0 	b.eq	0x4010edc4  // b.none
    4010edb4:	5280014c 	mov	w12, #0xa                   	// #10
    4010edb8:	14000005 	b	0x4010edcc
    4010edbc:	7100005f 	cmp	w2, #0x0
    4010edc0:	1a9f17eb 	cset	w11, eq  // eq = none
    4010edc4:	5280010c 	mov	w12, #0x8                   	// #8
    4010edc8:	5280060a 	mov	w10, #0x30                  	// #48
    4010edcc:	7100017f 	cmp	w11, #0x0
    4010edd0:	1a82118d 	csel	w13, w12, w2, ne  // ne = any
    4010edd4:	13001d4b 	sxtb	w11, w10
    4010edd8:	37fffe0b 	tbnz	w11, #31, 0x4010ed98
    4010eddc:	2a0d03ec 	mov	w12, w13
    4010ede0:	9280000f 	mov	x15, #0xffffffffffffffff    	// #-1
    4010ede4:	9acc09ef 	udiv	x15, x15, x12
    4010ede8:	1b0d7ded 	mul	w13, w15, w13
    4010edec:	2a1f03f2 	mov	w18, wzr
    4010edf0:	aa1f03eb 	mov	x11, xzr
    4010edf4:	528006ee 	mov	w14, #0x37                  	// #55
    4010edf8:	2a2d03f0 	mvn	w16, w13
    4010edfc:	52800af1 	mov	w17, #0x57                  	// #87
    4010ee00:	14000006 	b	0x4010ee18
    4010ee04:	9b0c296b 	madd	x11, x11, x12, x10
    4010ee08:	5280002d 	mov	w13, #0x1                   	// #1
    4010ee0c:	38c016aa 	ldrsb	w10, [x21], #1
    4010ee10:	2a0d03f2 	mov	w18, w13
    4010ee14:	37f8034a 	tbnz	w10, #31, 0x4010ee7c
    4010ee18:	92401d4d 	and	x13, x10, #0xff
    4010ee1c:	386d692d 	ldrb	w13, [x9, x13]
    4010ee20:	371000ed 	tbnz	w13, #2, 0x4010ee3c
    4010ee24:	720005bf 	tst	w13, #0x3
    4010ee28:	54000420 	b.eq	0x4010eeac  // b.none
    4010ee2c:	720001bf 	tst	w13, #0x1
    4010ee30:	1a8e022d 	csel	w13, w17, w14, eq  // eq = none
    4010ee34:	4b0d014a 	sub	w10, w10, w13
    4010ee38:	14000002 	b	0x4010ee40
    4010ee3c:	5100c14a 	sub	w10, w10, #0x30
    4010ee40:	12001d4a 	and	w10, w10, #0xff
    4010ee44:	6b0a019f 	cmp	w12, w10
    4010ee48:	5400018d 	b.le	0x4010ee78
    4010ee4c:	eb0f017f 	cmp	x11, x15
    4010ee50:	1280000d 	mov	w13, #0xffffffff            	// #-1
    4010ee54:	54fffdc8 	b.hi	0x4010ee0c  // b.pmore
    4010ee58:	37fffdb2 	tbnz	w18, #31, 0x4010ee0c
    4010ee5c:	eb0f017f 	cmp	x11, x15
    4010ee60:	54fffd21 	b.ne	0x4010ee04  // b.any
    4010ee64:	6b10015f 	cmp	w10, w16
    4010ee68:	54fffced 	b.le	0x4010ee04
    4010ee6c:	1280000d 	mov	w13, #0xffffffff            	// #-1
    4010ee70:	aa0f03eb 	mov	x11, x15
    4010ee74:	17ffffe6 	b	0x4010ee0c
    4010ee78:	2a1203ed 	mov	w13, w18
    4010ee7c:	37f801cd 	tbnz	w13, #31, 0x4010eeb4
    4010ee80:	7100011f 	cmp	w8, #0x0
    4010ee84:	da8b0560 	cneg	x0, x11, ne  // ne = any
    4010ee88:	b40000b3 	cbz	x19, 0x4010ee9c
    4010ee8c:	d10006a8 	sub	x8, x21, #0x1
    4010ee90:	710001bf 	cmp	w13, #0x0
    4010ee94:	9a880288 	csel	x8, x20, x8, eq  // eq = none
    4010ee98:	f9000268 	str	x8, [x19]
    4010ee9c:	a9424ff4 	ldp	x20, x19, [sp, #32]
    4010eea0:	f9400bf5 	ldr	x21, [sp, #16]
    4010eea4:	a8c37bfd 	ldp	x29, x30, [sp], #48
    4010eea8:	d65f03c0 	ret
    4010eeac:	2a1203ed 	mov	w13, w18
    4010eeb0:	36fffe8d 	tbz	w13, #31, 0x4010ee80
    4010eeb4:	97fffa38 	bl	0x4010d794
    4010eeb8:	52800448 	mov	w8, #0x22                  	// #34
    4010eebc:	1280000d 	mov	w13, #0xffffffff            	// #-1
    4010eec0:	b9000008 	str	w8, [x0]
    4010eec4:	92800000 	mov	x0, #0xffffffffffffffff    	// #-1
    4010eec8:	b5fffe33 	cbnz	x19, 0x4010ee8c
    4010eecc:	17fffff4 	b	0x4010ee9c
    4010eed0:	a9bf7bfd 	stp	x29, x30, [sp, #-16]!
    4010eed4:	910003fd 	mov	x29, sp
    4010eed8:	52800142 	mov	w2, #0xa                   	// #10
    4010eedc:	aa1f03e1 	mov	x1, xzr
    4010eee0:	97fffefd 	bl	0x4010ead4
    4010eee4:	12b00008 	mov	w8, #0x7fffffff            	// #2147483647
    4010eee8:	eb08001f 	cmp	x0, x8
    4010eeec:	b26183e9 	mov	x9, #0xffffffff80000000    	// #-2147483648
    4010eef0:	9a88b008 	csel	x8, x0, x8, lt  // lt = tstop
    4010eef4:	eb09011f 	cmp	x8, x9
    4010eef8:	52b00009 	mov	w9, #0x80000000            	// #-2147483648
    4010eefc:	1a89c100 	csel	w0, w8, w9, gt
    4010ef00:	a8c17bfd 	ldp	x29, x30, [sp], #16
    4010ef04:	d65f03c0 	ret
    4010ef08:	a9bf7bfd 	stp	x29, x30, [sp, #-16]!
    4010ef0c:	910003fd 	mov	x29, sp
    4010ef10:	f0000041 	adrp	x1, 0x40119000
    4010ef14:	f0000042 	adrp	x2, 0x40119000
    4010ef18:	f0000044 	adrp	x4, 0x40119000
    4010ef1c:	912dec21 	add	x1, x1, #0xb7b
    4010ef20:	912e1442 	add	x2, x2, #0xb85
    4010ef24:	912e3884 	add	x4, x4, #0xb8e
    4010ef28:	52803483 	mov	w3, #0x1a4                 	// #420
    4010ef2c:	2a1f03e0 	mov	w0, wzr
    4010ef30:	940014f6 	bl	0x40114308
    4010ef34:	52800060 	mov	w0, #0x3                   	// #3
    4010ef38:	97ffd044 	bl	0x40103048
    4010ef3c:	b40000c2 	cbz	x2, 0x4010ef54
    4010ef40:	aa0003e8 	mov	x8, x0
    4010ef44:	38401429 	ldrb	w9, [x1], #1
    4010ef48:	f1000442 	subs	x2, x2, #0x1
    4010ef4c:	38001509 	strb	w9, [x8], #1
    4010ef50:	54ffffa1 	b.ne	0x4010ef44  // b.any
    4010ef54:	d65f03c0 	ret
    4010ef58:	b4000282 	cbz	x2, 0x4010efa8
    4010ef5c:	f100045f 	cmp	x2, #0x1
    4010ef60:	54000081 	b.ne	0x4010ef70  // b.any
    4010ef64:	aa0003e8 	mov	x8, x0
    4010ef68:	aa0203e9 	mov	x9, x2
    4010ef6c:	1400000c 	b	0x4010ef9c
    4010ef70:	927ff84a 	and	x10, x2, #0xfffffffffffffffe
    4010ef74:	92400049 	and	x9, x2, #0x1
    4010ef78:	8b0a0008 	add	x8, x0, x10
    4010ef7c:	9100040b 	add	x11, x0, #0x1
    4010ef80:	aa0a03ec 	mov	x12, x10
    4010ef84:	381ff161 	sturb	w1, [x11, #-1]
    4010ef88:	38002561 	strb	w1, [x11], #2
    4010ef8c:	f100098c 	subs	x12, x12, #0x2
    4010ef90:	54ffffa1 	b.ne	0x4010ef84  // b.any
    4010ef94:	eb02015f 	cmp	x10, x2
    4010ef98:	54000080 	b.eq	0x4010efa8  // b.none
    4010ef9c:	f1000529 	subs	x9, x9, #0x1
    4010efa0:	38001501 	strb	w1, [x8], #1
    4010efa4:	54ffffc1 	b.ne	0x4010ef9c  // b.any
    4010efa8:	d65f03c0 	ret
    4010efac:	b40000e2 	cbz	x2, 0x4010efc8
    4010efb0:	39400008 	ldrb	w8, [x0]
    4010efb4:	6b21011f 	cmp	w8, w1, uxtb
    4010efb8:	540000a0 	b.eq	0x4010efcc  // b.none
    4010efbc:	f1000442 	subs	x2, x2, #0x1
    4010efc0:	91000400 	add	x0, x0, #0x1
    4010efc4:	54ffff61 	b.ne	0x4010efb0  // b.any
    4010efc8:	aa1f03e0 	mov	x0, xzr
    4010efcc:	d65f03c0 	ret
    4010efd0:	b4000122 	cbz	x2, 0x4010eff4
    4010efd4:	8b020008 	add	x8, x0, x2
    4010efd8:	385ff109 	ldurb	w9, [x8, #-1]
    4010efdc:	d1000448 	sub	x8, x2, #0x1
    4010efe0:	aa0803e2 	mov	x2, x8
    4010efe4:	6b21013f 	cmp	w9, w1, uxtb
    4010efe8:	54ffff41 	b.ne	0x4010efd0  // b.any
    4010efec:	8b080000 	add	x0, x0, x8
    4010eff0:	d65f03c0 	ret
    4010eff4:	aa1f03e0 	mov	x0, xzr
    4010eff8:	d65f03c0 	ret
    4010effc:	eb00003f 	cmp	x1, x0
    4010f000:	54000109 	b.ls	0x4010f020  // b.plast
    4010f004:	b40001c2 	cbz	x2, 0x4010f03c
    4010f008:	aa0003e8 	mov	x8, x0
    4010f00c:	38401429 	ldrb	w9, [x1], #1
    4010f010:	f1000442 	subs	x2, x2, #0x1
    4010f014:	38001509 	strb	w9, [x8], #1
    4010f018:	54ffffa1 	b.ne	0x4010f00c  // b.any
    4010f01c:	14000008 	b	0x4010f03c
    4010f020:	b40000e2 	cbz	x2, 0x4010f03c
    4010f024:	d1000428 	sub	x8, x1, #0x1
    4010f028:	d1000409 	sub	x9, x0, #0x1
    4010f02c:	3862690a 	ldrb	w10, [x8, x2]
    4010f030:	3822692a 	strb	w10, [x9, x2]
    4010f034:	f1000442 	subs	x2, x2, #0x1
    4010f038:	54ffffa1 	b.ne	0x4010f02c  // b.any
    4010f03c:	d65f03c0 	ret
    4010f040:	b4000122 	cbz	x2, 0x4010f064
    4010f044:	39400008 	ldrb	w8, [x0]
    4010f048:	39400029 	ldrb	w9, [x1]
    4010f04c:	6b090108 	subs	w8, w8, w9
    4010f050:	540000c1 	b.ne	0x4010f068  // b.any
    4010f054:	f1000442 	subs	x2, x2, #0x1
    4010f058:	91000400 	add	x0, x0, #0x1
    4010f05c:	91000421 	add	x1, x1, #0x1
    4010f060:	54ffff21 	b.ne	0x4010f044  // b.any
    4010f064:	2a1f03e8 	mov	w8, wzr
    4010f068:	2a0803e0 	mov	w0, w8
    4010f06c:	d65f03c0 	ret
    4010f070:	92f00009 	mov	x9, #0x7fffffffffffffff    	// #9223372036854775807
    4010f074:	aa0003e8 	mov	x8, x0
    4010f078:	3940010a 	ldrb	w10, [x8]
    4010f07c:	340000aa 	cbz	w10, 0x4010f090
    4010f080:	f1000529 	subs	x9, x9, #0x1
    4010f084:	91000508 	add	x8, x8, #0x1
    4010f088:	54ffff81 	b.ne	0x4010f078  // b.any
    4010f08c:	aa1f03e8 	mov	x8, xzr
    4010f090:	cb000109 	sub	x9, x8, x0
    4010f094:	f100011f 	cmp	x8, #0x0
    4010f098:	92f00008 	mov	x8, #0x7fffffffffffffff    	// #9223372036854775807
    4010f09c:	9a890100 	csel	x0, x8, x9, eq  // eq = none
    4010f0a0:	d65f03c0 	ret
    4010f0a4:	b4000101 	cbz	x1, 0x4010f0c4
    4010f0a8:	aa0103e9 	mov	x9, x1
    4010f0ac:	aa0003e8 	mov	x8, x0
    4010f0b0:	3940010a 	ldrb	w10, [x8]
    4010f0b4:	340000aa 	cbz	w10, 0x4010f0c8
    4010f0b8:	f1000529 	subs	x9, x9, #0x1
    4010f0bc:	91000508 	add	x8, x8, #0x1
    4010f0c0:	54ffff81 	b.ne	0x4010f0b0  // b.any
    4010f0c4:	aa1f03e8 	mov	x8, xzr
    4010f0c8:	cb000109 	sub	x9, x8, x0
    4010f0cc:	f100011f 	cmp	x8, #0x0
    4010f0d0:	9a890020 	csel	x0, x1, x9, eq  // eq = none
    4010f0d4:	d65f03c0 	ret
    4010f0d8:	b4000102 	cbz	x2, 0x4010f0f8
    4010f0dc:	aa0203e9 	mov	x9, x2
    4010f0e0:	aa0103e8 	mov	x8, x1
    4010f0e4:	3940010a 	ldrb	w10, [x8]
    4010f0e8:	340000aa 	cbz	w10, 0x4010f0fc
    4010f0ec:	f1000529 	subs	x9, x9, #0x1
    4010f0f0:	91000508 	add	x8, x8, #0x1
    4010f0f4:	54ffff81 	b.ne	0x4010f0e4  // b.any
    4010f0f8:	aa1f03e8 	mov	x8, xzr
    4010f0fc:	cb010109 	sub	x9, x8, x1
    4010f100:	f100011f 	cmp	x8, #0x0
    4010f104:	9a890048 	csel	x8, x2, x9, eq  // eq = none
    4010f108:	b40000e8 	cbz	x8, 0x4010f124
    4010f10c:	aa0803e9 	mov	x9, x8
    4010f110:	aa0003ea 	mov	x10, x0
    4010f114:	3840142b 	ldrb	w11, [x1], #1
    4010f118:	f1000529 	subs	x9, x9, #0x1
    4010f11c:	3800154b 	strb	w11, [x10], #1
    4010f120:	54ffffa1 	b.ne	0x4010f114  // b.any
    4010f124:	eb02011f 	cmp	x8, x2
    4010f128:	540000a2 	b.cs	0x4010f13c  // b.hs, b.nlast
    4010f12c:	8b000109 	add	x9, x8, x0
    4010f130:	385ff129 	ldurb	w9, [x9, #-1]
    4010f134:	34000049 	cbz	w9, 0x4010f13c
    4010f138:	3828681f 	strb	wzr, [x0, x8]
    4010f13c:	d65f03c0 	ret
    4010f140:	aa1f03e8 	mov	x8, xzr
    4010f144:	38686829 	ldrb	w9, [x1, x8]
    4010f148:	340000e9 	cbz	w9, 0x4010f164
    4010f14c:	91000508 	add	x8, x8, #0x1
    4010f150:	92f00009 	mov	x9, #0x7fffffffffffffff    	// #9223372036854775807
    4010f154:	eb09011f 	cmp	x8, x9
    4010f158:	54ffff61 	b.ne	0x4010f144  // b.any
    4010f15c:	92f00008 	mov	x8, #0x7fffffffffffffff    	// #9223372036854775807
    4010f160:	14000002 	b	0x4010f168
    4010f164:	b4000148 	cbz	x8, 0x4010f18c
    4010f168:	aa1f03e9 	mov	x9, xzr
    4010f16c:	3869682a 	ldrb	w10, [x1, x9]
    4010f170:	3829680a 	strb	w10, [x0, x9]
    4010f174:	91000529 	add	x9, x9, #0x1
    4010f178:	eb09011f 	cmp	x8, x9
    4010f17c:	54ffff81 	b.ne	0x4010f16c  // b.any
    4010f180:	92f00009 	mov	x9, #0x7fffffffffffffff    	// #9223372036854775807
    4010f184:	eb09011f 	cmp	x8, x9
    4010f188:	540000a0 	b.eq	0x4010f19c  // b.none
    4010f18c:	8b000109 	add	x9, x8, x0
    4010f190:	385ff129 	ldurb	w9, [x9, #-1]
    4010f194:	34000049 	cbz	w9, 0x4010f19c
    4010f198:	3828681f 	strb	wzr, [x0, x8]
    4010f19c:	d65f03c0 	ret
    4010f1a0:	b4000142 	cbz	x2, 0x4010f1c8
    4010f1a4:	39400009 	ldrb	w9, [x0]
    4010f1a8:	39400028 	ldrb	w8, [x1]
    4010f1ac:	6b080128 	subs	w8, w9, w8
    4010f1b0:	540000e1 	b.ne	0x4010f1cc  // b.any
    4010f1b4:	340000a9 	cbz	w9, 0x4010f1c8
    4010f1b8:	f1000442 	subs	x2, x2, #0x1
    4010f1bc:	91000400 	add	x0, x0, #0x1
    4010f1c0:	91000421 	add	x1, x1, #0x1
    4010f1c4:	54ffff01 	b.ne	0x4010f1a4  // b.any
    4010f1c8:	2a1f03e8 	mov	w8, wzr
    4010f1cc:	2a0803e0 	mov	w0, w8
    4010f1d0:	d65f03c0 	ret
    4010f1d4:	39400009 	ldrb	w9, [x0]
    4010f1d8:	39400028 	ldrb	w8, [x1]
    4010f1dc:	4b080128 	sub	w8, w9, w8
    4010f1e0:	72001d1f 	tst	w8, #0xff
    4010f1e4:	54000081 	b.ne	0x4010f1f4  // b.any
    4010f1e8:	91000421 	add	x1, x1, #0x1
    4010f1ec:	91000400 	add	x0, x0, #0x1
    4010f1f0:	35ffff29 	cbnz	w9, 0x4010f1d4
    4010f1f4:	13001d00 	sxtb	w0, w8
    4010f1f8:	d65f03c0 	ret
    4010f1fc:	72001c28 	ands	w8, w1, #0xff
    4010f200:	54000460 	b.eq	0x4010f28c  // b.none
    4010f204:	f240081f 	tst	x0, #0x7
    4010f208:	54000100 	b.eq	0x4010f228  // b.none
    4010f20c:	39400009 	ldrb	w9, [x0]
    4010f210:	340003c9 	cbz	w9, 0x4010f288
    4010f214:	6b21013f 	cmp	w9, w1, uxtb
    4010f218:	54000380 	b.eq	0x4010f288  // b.none
    4010f21c:	91000400 	add	x0, x0, #0x1
    4010f220:	f240081f 	tst	x0, #0x7
    4010f224:	54ffff41 	b.ne	0x4010f20c  // b.any
    4010f228:	f940000a 	ldr	x10, [x0]
    4010f22c:	b207dbe9 	mov	x9, #0xfefefefefefefefe    	// #-72340172838076674
    4010f230:	f29fdfe9 	movk	x9, #0xfeff
    4010f234:	8b09014b 	add	x11, x10, x9
    4010f238:	8a2a016b 	bic	x11, x11, x10
    4010f23c:	f201c17f 	tst	x11, #0x8080808080808080
    4010f240:	540001a1 	b.ne	0x4010f274  // b.any
    4010f244:	b200c3eb 	mov	x11, #0x101010101010101     	// #72340172838076673
    4010f248:	9b0b7d08 	mul	x8, x8, x11
    4010f24c:	ca08014a 	eor	x10, x10, x8
    4010f250:	8b09014b 	add	x11, x10, x9
    4010f254:	8a2a016a 	bic	x10, x11, x10
    4010f258:	f201c15f 	tst	x10, #0x8080808080808080
    4010f25c:	540000c1 	b.ne	0x4010f274  // b.any
    4010f260:	f8408c0a 	ldr	x10, [x0, #8]!
    4010f264:	8b09014b 	add	x11, x10, x9
    4010f268:	8a2a016b 	bic	x11, x11, x10
    4010f26c:	f201c17f 	tst	x11, #0x8080808080808080
    4010f270:	54fffee0 	b.eq	0x4010f24c  // b.none
    4010f274:	d1000400 	sub	x0, x0, #0x1
    4010f278:	38401c08 	ldrb	w8, [x0, #1]!
    4010f27c:	34000068 	cbz	w8, 0x4010f288
    4010f280:	6b21011f 	cmp	w8, w1, uxtb
    4010f284:	54ffffa1 	b.ne	0x4010f278  // b.any
    4010f288:	d65f03c0 	ret
    4010f28c:	92f00009 	mov	x9, #0x7fffffffffffffff    	// #9223372036854775807
    4010f290:	aa0003e8 	mov	x8, x0
    4010f294:	3940010a 	ldrb	w10, [x8]
    4010f298:	340000aa 	cbz	w10, 0x4010f2ac
    4010f29c:	f1000529 	subs	x9, x9, #0x1
    4010f2a0:	91000508 	add	x8, x8, #0x1
    4010f2a4:	54ffff81 	b.ne	0x4010f294  // b.any
    4010f2a8:	aa1f03e8 	mov	x8, xzr
    4010f2ac:	cb000109 	sub	x9, x8, x0
    4010f2b0:	f100011f 	cmp	x8, #0x0
    4010f2b4:	92f00008 	mov	x8, #0x7fffffffffffffff    	// #9223372036854775807
    4010f2b8:	9a890108 	csel	x8, x8, x9, eq  // eq = none
    4010f2bc:	8b080000 	add	x0, x0, x8
    4010f2c0:	d65f03c0 	ret
    4010f2c4:	72001c28 	ands	w8, w1, #0xff
    4010f2c8:	54000460 	b.eq	0x4010f354  // b.none
    4010f2cc:	f240081f 	tst	x0, #0x7
    4010f2d0:	54000100 	b.eq	0x4010f2f0  // b.none
    4010f2d4:	39400009 	ldrb	w9, [x0]
    4010f2d8:	340005a9 	cbz	w9, 0x4010f38c
    4010f2dc:	6b21013f 	cmp	w9, w1, uxtb
    4010f2e0:	54000560 	b.eq	0x4010f38c  // b.none
    4010f2e4:	91000400 	add	x0, x0, #0x1
    4010f2e8:	f240081f 	tst	x0, #0x7
    4010f2ec:	54ffff41 	b.ne	0x4010f2d4  // b.any
    4010f2f0:	f940000a 	ldr	x10, [x0]
    4010f2f4:	b207dbe9 	mov	x9, #0xfefefefefefefefe    	// #-72340172838076674
    4010f2f8:	f29fdfe9 	movk	x9, #0xfeff
    4010f2fc:	8b09014b 	add	x11, x10, x9
    4010f300:	8a2a016b 	bic	x11, x11, x10
    4010f304:	f201c17f 	tst	x11, #0x8080808080808080
    4010f308:	540001a1 	b.ne	0x4010f33c  // b.any
    4010f30c:	b200c3eb 	mov	x11, #0x101010101010101     	// #72340172838076673
    4010f310:	9b0b7d08 	mul	x8, x8, x11
    4010f314:	ca08014a 	eor	x10, x10, x8
    4010f318:	8b09014b 	add	x11, x10, x9
    4010f31c:	8a2a016a 	bic	x10, x11, x10
    4010f320:	f201c15f 	tst	x10, #0x8080808080808080
    4010f324:	540000c1 	b.ne	0x4010f33c  // b.any
    4010f328:	f8408c0a 	ldr	x10, [x0, #8]!
    4010f32c:	8b09014b 	add	x11, x10, x9
    4010f330:	8a2a016b 	bic	x11, x11, x10
    4010f334:	f201c17f 	tst	x11, #0x8080808080808080
    4010f338:	54fffee0 	b.eq	0x4010f314  // b.none
    4010f33c:	d1000400 	sub	x0, x0, #0x1
    4010f340:	38401c09 	ldrb	w9, [x0, #1]!
    4010f344:	34000249 	cbz	w9, 0x4010f38c
    4010f348:	6b21013f 	cmp	w9, w1, uxtb
    4010f34c:	54ffffa1 	b.ne	0x4010f340  // b.any
    4010f350:	1400000f 	b	0x4010f38c
    4010f354:	92f00009 	mov	x9, #0x7fffffffffffffff    	// #9223372036854775807
    4010f358:	aa0003e8 	mov	x8, x0
    4010f35c:	3940010a 	ldrb	w10, [x8]
    4010f360:	340000aa 	cbz	w10, 0x4010f374
    4010f364:	f1000529 	subs	x9, x9, #0x1
    4010f368:	91000508 	add	x8, x8, #0x1
    4010f36c:	54ffff81 	b.ne	0x4010f35c  // b.any
    4010f370:	aa1f03e8 	mov	x8, xzr
    4010f374:	cb000109 	sub	x9, x8, x0
    4010f378:	f100011f 	cmp	x8, #0x0
    4010f37c:	92f00008 	mov	x8, #0x7fffffffffffffff    	// #9223372036854775807
    4010f380:	9a890108 	csel	x8, x8, x9, eq  // eq = none
    4010f384:	8b080000 	add	x0, x0, x8
    4010f388:	39400009 	ldrb	w9, [x0]
    4010f38c:	6b21013f 	cmp	w9, w1, uxtb
    4010f390:	9a9f0000 	csel	x0, x0, xzr, eq  // eq = none
    4010f394:	d65f03c0 	ret
    4010f398:	aa1f03e9 	mov	x9, xzr
    4010f39c:	92f0000a 	mov	x10, #0x7fffffffffffffff    	// #9223372036854775807
    4010f3a0:	3869680b 	ldrb	w11, [x0, x9]
    4010f3a4:	91000528 	add	x8, x9, #0x1
    4010f3a8:	340000ab 	cbz	w11, 0x4010f3bc
    4010f3ac:	eb0a011f 	cmp	x8, x10
    4010f3b0:	aa0803e9 	mov	x9, x8
    4010f3b4:	54ffff61 	b.ne	0x4010f3a0  // b.any
    4010f3b8:	14000003 	b	0x4010f3c4
    4010f3bc:	ab09001f 	cmn	x0, x9
    4010f3c0:	54000041 	b.ne	0x4010f3c8  // b.any
    4010f3c4:	d2f00008 	mov	x8, #0x8000000000000000    	// #-9223372036854775808
    4010f3c8:	b4000128 	cbz	x8, 0x4010f3ec
    4010f3cc:	8b080009 	add	x9, x0, x8
    4010f3d0:	385ff12a 	ldurb	w10, [x9, #-1]
    4010f3d4:	d1000509 	sub	x9, x8, #0x1
    4010f3d8:	aa0903e8 	mov	x8, x9
    4010f3dc:	6b21015f 	cmp	w10, w1, uxtb
    4010f3e0:	54ffff41 	b.ne	0x4010f3c8  // b.any
    4010f3e4:	8b090000 	add	x0, x0, x9
    4010f3e8:	d65f03c0 	ret
    4010f3ec:	aa1f03e0 	mov	x0, xzr
    4010f3f0:	d65f03c0 	ret
    4010f3f4:	d10083ff 	sub	sp, sp, #0x20
    4010f3f8:	39400029 	ldrb	w9, [x1]
    4010f3fc:	b40003e9 	cbz	x9, 0x4010f478
    4010f400:	39400428 	ldrb	w8, [x1, #1]
    4010f404:	340004c8 	cbz	w8, 0x4010f49c
    4010f408:	a9007fff 	stp	xzr, xzr, [sp]
    4010f40c:	a9017fff 	stp	xzr, xzr, [sp, #16]
    4010f410:	39400028 	ldrb	w8, [x1]
    4010f414:	34000188 	cbz	w8, 0x4010f444
    4010f418:	91000429 	add	x9, x1, #0x1
    4010f41c:	5280002a 	mov	w10, #0x1                   	// #1
    4010f420:	910003eb 	mov	x11, sp
    4010f424:	53037d0c 	lsr	w12, w8, #3
    4010f428:	927d058c 	and	x12, x12, #0x18
    4010f42c:	f86c696d 	ldr	x13, [x11, x12]
    4010f430:	9ac82148 	lsl	x8, x10, x8
    4010f434:	aa0801a8 	orr	x8, x13, x8
    4010f438:	f82c6968 	str	x8, [x11, x12]
    4010f43c:	38401528 	ldrb	w8, [x9], #1
    4010f440:	35ffff28 	cbnz	w8, 0x4010f424
    4010f444:	39400009 	ldrb	w9, [x0]
    4010f448:	aa0003e8 	mov	x8, x0
    4010f44c:	340007c9 	cbz	w9, 0x4010f544
    4010f450:	910003ea 	mov	x10, sp
    4010f454:	aa0003e8 	mov	x8, x0
    4010f458:	53037d2b 	lsr	w11, w9, #3
    4010f45c:	927d056b 	and	x11, x11, #0x18
    4010f460:	f86b694b 	ldr	x11, [x10, x11]
    4010f464:	9ac92569 	lsr	x9, x11, x9
    4010f468:	370006e9 	tbnz	w9, #0, 0x4010f544
    4010f46c:	38401d09 	ldrb	w9, [x8, #1]!
    4010f470:	35ffff49 	cbnz	w9, 0x4010f458
    4010f474:	14000034 	b	0x4010f544
    4010f478:	aa1f03e8 	mov	x8, xzr
    4010f47c:	92f00009 	mov	x9, #0x7fffffffffffffff    	// #9223372036854775807
    4010f480:	3868680a 	ldrb	w10, [x0, x8]
    4010f484:	3400054a 	cbz	w10, 0x4010f52c
    4010f488:	91000508 	add	x8, x8, #0x1
    4010f48c:	eb09011f 	cmp	x8, x9
    4010f490:	54ffff81 	b.ne	0x4010f480  // b.any
    4010f494:	aa1f03e8 	mov	x8, xzr
    4010f498:	14000026 	b	0x4010f530
    4010f49c:	f240081f 	tst	x0, #0x7
    4010f4a0:	aa0003e8 	mov	x8, x0
    4010f4a4:	54000120 	b.eq	0x4010f4c8  // b.none
    4010f4a8:	aa0003e8 	mov	x8, x0
    4010f4ac:	3940010a 	ldrb	w10, [x8]
    4010f4b0:	340004aa 	cbz	w10, 0x4010f544
    4010f4b4:	6b09015f 	cmp	w10, w9
    4010f4b8:	54000460 	b.eq	0x4010f544  // b.none
    4010f4bc:	91000508 	add	x8, x8, #0x1
    4010f4c0:	f240091f 	tst	x8, #0x7
    4010f4c4:	54ffff41 	b.ne	0x4010f4ac  // b.any
    4010f4c8:	f940010b 	ldr	x11, [x8]
    4010f4cc:	b207dbea 	mov	x10, #0xfefefefefefefefe    	// #-72340172838076674
    4010f4d0:	f29fdfea 	movk	x10, #0xfeff
    4010f4d4:	8b0a016c 	add	x12, x11, x10
    4010f4d8:	8a2b018c 	bic	x12, x12, x11
    4010f4dc:	f201c19f 	tst	x12, #0x8080808080808080
    4010f4e0:	540001a1 	b.ne	0x4010f514  // b.any
    4010f4e4:	b200c3ec 	mov	x12, #0x101010101010101     	// #72340172838076673
    4010f4e8:	9b0c7d2c 	mul	x12, x9, x12
    4010f4ec:	ca0c016b 	eor	x11, x11, x12
    4010f4f0:	8b0a016d 	add	x13, x11, x10
    4010f4f4:	8a2b01ab 	bic	x11, x13, x11
    4010f4f8:	f201c17f 	tst	x11, #0x8080808080808080
    4010f4fc:	540000c1 	b.ne	0x4010f514  // b.any
    4010f500:	f8408d0b 	ldr	x11, [x8, #8]!
    4010f504:	8b0a016d 	add	x13, x11, x10
    4010f508:	8a2b01ad 	bic	x13, x13, x11
    4010f50c:	f201c1bf 	tst	x13, #0x8080808080808080
    4010f510:	54fffee0 	b.eq	0x4010f4ec  // b.none
    4010f514:	d1000508 	sub	x8, x8, #0x1
    4010f518:	38401d0a 	ldrb	w10, [x8, #1]!
    4010f51c:	3400014a 	cbz	w10, 0x4010f544
    4010f520:	6b09015f 	cmp	w10, w9
    4010f524:	54ffffa1 	b.ne	0x4010f518  // b.any
    4010f528:	14000007 	b	0x4010f544
    4010f52c:	8b080008 	add	x8, x0, x8
    4010f530:	cb000109 	sub	x9, x8, x0
    4010f534:	f100011f 	cmp	x8, #0x0
    4010f538:	92f00008 	mov	x8, #0x7fffffffffffffff    	// #9223372036854775807
    4010f53c:	9a890108 	csel	x8, x8, x9, eq  // eq = none
    4010f540:	8b080008 	add	x8, x0, x8
    4010f544:	cb000100 	sub	x0, x8, x0
    4010f548:	910083ff 	add	sp, sp, #0x20
    4010f54c:	d65f03c0 	ret
    4010f550:	d10083ff 	sub	sp, sp, #0x20
    4010f554:	a9017fff 	stp	xzr, xzr, [sp, #16]
    4010f558:	a9007fff 	stp	xzr, xzr, [sp]
    4010f55c:	39400028 	ldrb	w8, [x1]
    4010f560:	340003a8 	cbz	w8, 0x4010f5d4
    4010f564:	39400429 	ldrb	w9, [x1, #1]
    4010f568:	340003c9 	cbz	w9, 0x4010f5e0
    4010f56c:	91000429 	add	x9, x1, #0x1
    4010f570:	5280002a 	mov	w10, #0x1                   	// #1
    4010f574:	910003eb 	mov	x11, sp
    4010f578:	53037d0c 	lsr	w12, w8, #3
    4010f57c:	927d058c 	and	x12, x12, #0x18
    4010f580:	f86c696d 	ldr	x13, [x11, x12]
    4010f584:	9ac82148 	lsl	x8, x10, x8
    4010f588:	aa0801a8 	orr	x8, x13, x8
    4010f58c:	f82c6968 	str	x8, [x11, x12]
    4010f590:	38401528 	ldrb	w8, [x9], #1
    4010f594:	35ffff28 	cbnz	w8, 0x4010f578
    4010f598:	39400009 	ldrb	w9, [x0]
    4010f59c:	aa0003e8 	mov	x8, x0
    4010f5a0:	34000149 	cbz	w9, 0x4010f5c8
    4010f5a4:	910003ea 	mov	x10, sp
    4010f5a8:	aa0003e8 	mov	x8, x0
    4010f5ac:	53037d2b 	lsr	w11, w9, #3
    4010f5b0:	927d056b 	and	x11, x11, #0x18
    4010f5b4:	f86b694b 	ldr	x11, [x10, x11]
    4010f5b8:	9ac92569 	lsr	x9, x11, x9
    4010f5bc:	36000069 	tbz	w9, #0, 0x4010f5c8
    4010f5c0:	38401d09 	ldrb	w9, [x8, #1]!
    4010f5c4:	35ffff49 	cbnz	w9, 0x4010f5ac
    4010f5c8:	cb000100 	sub	x0, x8, x0
    4010f5cc:	910083ff 	add	sp, sp, #0x20
    4010f5d0:	d65f03c0 	ret
    4010f5d4:	aa1f03e0 	mov	x0, xzr
    4010f5d8:	910083ff 	add	sp, sp, #0x20
    4010f5dc:	d65f03c0 	ret
    4010f5e0:	d1000409 	sub	x9, x0, #0x1
    4010f5e4:	38401d2a 	ldrb	w10, [x9, #1]!
    4010f5e8:	6b08015f 	cmp	w10, w8
    4010f5ec:	54ffffc0 	b.eq	0x4010f5e4  // b.none
    4010f5f0:	cb000120 	sub	x0, x9, x0
    4010f5f4:	910083ff 	add	sp, sp, #0x20
    4010f5f8:	d65f03c0 	ret
    4010f5fc:	d10103ff 	sub	sp, sp, #0x40
    4010f600:	a9027bfd 	stp	x29, x30, [sp, #32]
    4010f604:	f9001bf3 	str	x19, [sp, #48]
    4010f608:	910083fd 	add	x29, sp, #0x20
    4010f60c:	b5000080 	cbnz	x0, 0x4010f61c
    4010f610:	b0000168 	adrp	x8, 0x4013c000
    4010f614:	f941b900 	ldr	x0, [x8, #880]
    4010f618:	b40005c0 	cbz	x0, 0x4010f6d0
    4010f61c:	39400029 	ldrb	w9, [x1]
    4010f620:	a9017fff 	stp	xzr, xzr, [sp, #16]
    4010f624:	a9007fff 	stp	xzr, xzr, [sp]
    4010f628:	34000349 	cbz	w9, 0x4010f690
    4010f62c:	39400428 	ldrb	w8, [x1, #1]
    4010f630:	340003a8 	cbz	w8, 0x4010f6a4
    4010f634:	91000428 	add	x8, x1, #0x1
    4010f638:	5280002a 	mov	w10, #0x1                   	// #1
    4010f63c:	910003eb 	mov	x11, sp
    4010f640:	53037d2c 	lsr	w12, w9, #3
    4010f644:	927d058c 	and	x12, x12, #0x18
    4010f648:	f86c696d 	ldr	x13, [x11, x12]
    4010f64c:	9ac92149 	lsl	x9, x10, x9
    4010f650:	aa0d0129 	orr	x9, x9, x13
    4010f654:	f82c6969 	str	x9, [x11, x12]
    4010f658:	38401509 	ldrb	w9, [x8], #1
    4010f65c:	35ffff29 	cbnz	w9, 0x4010f640
    4010f660:	39400008 	ldrb	w8, [x0]
    4010f664:	340003a8 	cbz	w8, 0x4010f6d8
    4010f668:	910003ea 	mov	x10, sp
    4010f66c:	aa0003e9 	mov	x9, x0
    4010f670:	53037d0b 	lsr	w11, w8, #3
    4010f674:	927d056b 	and	x11, x11, #0x18
    4010f678:	f86b694b 	ldr	x11, [x10, x11]
    4010f67c:	9ac8256b 	lsr	x11, x11, x8
    4010f680:	360002eb 	tbz	w11, #0, 0x4010f6dc
    4010f684:	38401d28 	ldrb	w8, [x9, #1]!
    4010f688:	35ffff48 	cbnz	w8, 0x4010f670
    4010f68c:	14000014 	b	0x4010f6dc
    4010f690:	39400008 	ldrb	w8, [x0]
    4010f694:	aa1f03e9 	mov	x9, xzr
    4010f698:	72001d1f 	tst	w8, #0xff
    4010f69c:	54000261 	b.ne	0x4010f6e8  // b.any
    4010f6a0:	14000008 	b	0x4010f6c0
    4010f6a4:	d100040a 	sub	x10, x0, #0x1
    4010f6a8:	38401d48 	ldrb	w8, [x10, #1]!
    4010f6ac:	6b09011f 	cmp	w8, w9
    4010f6b0:	54ffffc0 	b.eq	0x4010f6a8  // b.none
    4010f6b4:	cb000149 	sub	x9, x10, x0
    4010f6b8:	72001d1f 	tst	w8, #0xff
    4010f6bc:	54000161 	b.ne	0x4010f6e8  // b.any
    4010f6c0:	b0000168 	adrp	x8, 0x4013c000
    4010f6c4:	aa1f03f3 	mov	x19, xzr
    4010f6c8:	f901b91f 	str	xzr, [x8, #880]
    4010f6cc:	14000014 	b	0x4010f71c
    4010f6d0:	aa1f03f3 	mov	x19, xzr
    4010f6d4:	14000012 	b	0x4010f71c
    4010f6d8:	aa0003e9 	mov	x9, x0
    4010f6dc:	cb000129 	sub	x9, x9, x0
    4010f6e0:	72001d1f 	tst	w8, #0xff
    4010f6e4:	54fffee0 	b.eq	0x4010f6c0  // b.none
    4010f6e8:	8b090013 	add	x19, x0, x9
    4010f6ec:	aa1303e0 	mov	x0, x19
    4010f6f0:	97ffff41 	bl	0x4010f3f4
    4010f6f4:	8b000268 	add	x8, x19, x0
    4010f6f8:	b0000169 	adrp	x9, 0x4013c000
    4010f6fc:	f901b928 	str	x8, [x9, #880]
    4010f700:	3940010a 	ldrb	w10, [x8]
    4010f704:	340000aa 	cbz	w10, 0x4010f718
    4010f708:	9100050a 	add	x10, x8, #0x1
    4010f70c:	f901b92a 	str	x10, [x9, #880]
    4010f710:	3900011f 	strb	wzr, [x8]
    4010f714:	14000002 	b	0x4010f71c
    4010f718:	f901b93f 	str	xzr, [x9, #880]
    4010f71c:	aa1303e0 	mov	x0, x19
    4010f720:	f9401bf3 	ldr	x19, [sp, #48]
    4010f724:	a9427bfd 	ldp	x29, x30, [sp, #32]
    4010f728:	910103ff 	add	sp, sp, #0x40
    4010f72c:	d65f03c0 	ret
    4010f730:	d10103ff 	sub	sp, sp, #0x40
    4010f734:	a9027bfd 	stp	x29, x30, [sp, #32]
    4010f738:	a9034ff4 	stp	x20, x19, [sp, #48]
    4010f73c:	910083fd 	add	x29, sp, #0x20
    4010f740:	aa0203f3 	mov	x19, x2
    4010f744:	b5000060 	cbnz	x0, 0x4010f750
    4010f748:	f9400260 	ldr	x0, [x19]
    4010f74c:	b4000580 	cbz	x0, 0x4010f7fc
    4010f750:	39400029 	ldrb	w9, [x1]
    4010f754:	a9017fff 	stp	xzr, xzr, [sp, #16]
    4010f758:	a9007fff 	stp	xzr, xzr, [sp]
    4010f75c:	34000349 	cbz	w9, 0x4010f7c4
    4010f760:	39400428 	ldrb	w8, [x1, #1]
    4010f764:	340003a8 	cbz	w8, 0x4010f7d8
    4010f768:	91000428 	add	x8, x1, #0x1
    4010f76c:	5280002a 	mov	w10, #0x1                   	// #1
    4010f770:	910003eb 	mov	x11, sp
    4010f774:	53037d2c 	lsr	w12, w9, #3
    4010f778:	927d058c 	and	x12, x12, #0x18
    4010f77c:	f86c696d 	ldr	x13, [x11, x12]
    4010f780:	9ac92149 	lsl	x9, x10, x9
    4010f784:	aa0d0129 	orr	x9, x9, x13
    4010f788:	f82c6969 	str	x9, [x11, x12]
    4010f78c:	38401509 	ldrb	w9, [x8], #1
    4010f790:	35ffff29 	cbnz	w9, 0x4010f774
    4010f794:	39400008 	ldrb	w8, [x0]
    4010f798:	34000368 	cbz	w8, 0x4010f804
    4010f79c:	910003ea 	mov	x10, sp
    4010f7a0:	aa0003e9 	mov	x9, x0
    4010f7a4:	53037d0b 	lsr	w11, w8, #3
    4010f7a8:	927d056b 	and	x11, x11, #0x18
    4010f7ac:	f86b694b 	ldr	x11, [x10, x11]
    4010f7b0:	9ac8256b 	lsr	x11, x11, x8
    4010f7b4:	360002ab 	tbz	w11, #0, 0x4010f808
    4010f7b8:	38401d28 	ldrb	w8, [x9, #1]!
    4010f7bc:	35ffff48 	cbnz	w8, 0x4010f7a4
    4010f7c0:	14000012 	b	0x4010f808
    4010f7c4:	39400008 	ldrb	w8, [x0]
    4010f7c8:	aa1f03e9 	mov	x9, xzr
    4010f7cc:	72001d1f 	tst	w8, #0xff
    4010f7d0:	54000221 	b.ne	0x4010f814  // b.any
    4010f7d4:	14000008 	b	0x4010f7f4
    4010f7d8:	d100040a 	sub	x10, x0, #0x1
    4010f7dc:	38401d48 	ldrb	w8, [x10, #1]!
    4010f7e0:	6b09011f 	cmp	w8, w9
    4010f7e4:	54ffffc0 	b.eq	0x4010f7dc  // b.none
    4010f7e8:	cb000149 	sub	x9, x10, x0
    4010f7ec:	72001d1f 	tst	w8, #0xff
    4010f7f0:	54000121 	b.ne	0x4010f814  // b.any
    4010f7f4:	aa1f03f4 	mov	x20, xzr
    4010f7f8:	14000012 	b	0x4010f840
    4010f7fc:	aa1f03f4 	mov	x20, xzr
    4010f800:	14000011 	b	0x4010f844
    4010f804:	aa0003e9 	mov	x9, x0
    4010f808:	cb000129 	sub	x9, x9, x0
    4010f80c:	72001d1f 	tst	w8, #0xff
    4010f810:	54ffff20 	b.eq	0x4010f7f4  // b.none
    4010f814:	8b090014 	add	x20, x0, x9
    4010f818:	aa1403e0 	mov	x0, x20
    4010f81c:	97fffef6 	bl	0x4010f3f4
    4010f820:	8b000288 	add	x8, x20, x0
    4010f824:	f9000268 	str	x8, [x19]
    4010f828:	39400109 	ldrb	w9, [x8]
    4010f82c:	340000a9 	cbz	w9, 0x4010f840
    4010f830:	91000509 	add	x9, x8, #0x1
    4010f834:	f9000269 	str	x9, [x19]
    4010f838:	3900011f 	strb	wzr, [x8]
    4010f83c:	14000002 	b	0x4010f844
    4010f840:	f900027f 	str	xzr, [x19]
    4010f844:	aa1403e0 	mov	x0, x20
    4010f848:	a9434ff4 	ldp	x20, x19, [sp, #48]
    4010f84c:	a9427bfd 	ldp	x29, x30, [sp, #32]
    4010f850:	910103ff 	add	sp, sp, #0x40
    4010f854:	d65f03c0 	ret
    4010f858:	a9bd7bfd 	stp	x29, x30, [sp, #-48]!
    4010f85c:	f9000bf5 	str	x21, [sp, #16]
    4010f860:	a9024ff4 	stp	x20, x19, [sp, #32]
    4010f864:	910003fd 	mov	x29, sp
    4010f868:	aa0003f3 	mov	x19, x0
    4010f86c:	b4000101 	cbz	x1, 0x4010f88c
    4010f870:	aa0103e9 	mov	x9, x1
    4010f874:	aa1303e8 	mov	x8, x19
    4010f878:	3940010a 	ldrb	w10, [x8]
    4010f87c:	340000aa 	cbz	w10, 0x4010f890
    4010f880:	f1000529 	subs	x9, x9, #0x1
    4010f884:	91000508 	add	x8, x8, #0x1
    4010f888:	54ffff81 	b.ne	0x4010f878  // b.any
    4010f88c:	aa1f03e8 	mov	x8, xzr
    4010f890:	b0000169 	adrp	x9, 0x4013c000
    4010f894:	f941e520 	ldr	x0, [x9, #968]
    4010f898:	cb130109 	sub	x9, x8, x19
    4010f89c:	f100011f 	cmp	x8, #0x0
    4010f8a0:	9a890034 	csel	x20, x1, x9, eq  // eq = none
    4010f8a4:	b40002a0 	cbz	x0, 0x4010f8f8
    4010f8a8:	f9400008 	ldr	x8, [x0]
    4010f8ac:	d3607e95 	lsl	x21, x20, #32
    4010f8b0:	d2c00029 	mov	x9, #0x100000000           	// #4294967296
    4010f8b4:	8b0902a9 	add	x9, x21, x9
    4010f8b8:	9360fd21 	asr	x1, x9, #32
    4010f8bc:	d63f0100 	blr	x8
    4010f8c0:	b4000140 	cbz	x0, 0x4010f8e8
    4010f8c4:	9360fea8 	asr	x8, x21, #32
    4010f8c8:	b40000f5 	cbz	x21, 0x4010f8e4
    4010f8cc:	93407e89 	sxtw	x9, w20
    4010f8d0:	aa0003ea 	mov	x10, x0
    4010f8d4:	3840166b 	ldrb	w11, [x19], #1
    4010f8d8:	f1000529 	subs	x9, x9, #0x1
    4010f8dc:	3800154b 	strb	w11, [x10], #1
    4010f8e0:	54ffffa1 	b.ne	0x4010f8d4  // b.any
    4010f8e4:	3828681f 	strb	wzr, [x0, x8]
    4010f8e8:	a9424ff4 	ldp	x20, x19, [sp, #32]
    4010f8ec:	f9400bf5 	ldr	x21, [sp, #16]
    4010f8f0:	a8c37bfd 	ldp	x29, x30, [sp], #48
    4010f8f4:	d65f03c0 	ret
    4010f8f8:	97fff7a7 	bl	0x4010d794
    4010f8fc:	aa0003e8 	mov	x8, x0
    4010f900:	52800189 	mov	w9, #0xc                   	// #12
    4010f904:	aa1f03e0 	mov	x0, xzr
    4010f908:	b9000109 	str	w9, [x8]
    4010f90c:	17fffff7 	b	0x4010f8e8
    4010f910:	a9be7bfd 	stp	x29, x30, [sp, #-32]!
    4010f914:	a9014ff4 	stp	x20, x19, [sp, #16]
    4010f918:	910003fd 	mov	x29, sp
    4010f91c:	aa0003f3 	mov	x19, x0
    4010f920:	92f00009 	mov	x9, #0x7fffffffffffffff    	// #9223372036854775807
    4010f924:	aa0003e8 	mov	x8, x0
    4010f928:	3940010a 	ldrb	w10, [x8]
    4010f92c:	340000aa 	cbz	w10, 0x4010f940
    4010f930:	f1000529 	subs	x9, x9, #0x1
    4010f934:	91000508 	add	x8, x8, #0x1
    4010f938:	54ffff81 	b.ne	0x4010f928  // b.any
    4010f93c:	aa1f03e8 	mov	x8, xzr
    4010f940:	b000016a 	adrp	x10, 0x4013c000
    4010f944:	f941e540 	ldr	x0, [x10, #968]
    4010f948:	4b130109 	sub	w9, w8, w19
    4010f94c:	d3607d29 	lsl	x9, x9, #32
    4010f950:	f100011f 	cmp	x8, #0x0
    4010f954:	b2607fe8 	mov	x8, #0xffffffff00000000    	// #-4294967296
    4010f958:	9a890114 	csel	x20, x8, x9, eq  // eq = none
    4010f95c:	b4000260 	cbz	x0, 0x4010f9a8
    4010f960:	f9400008 	ldr	x8, [x0]
    4010f964:	d2c00029 	mov	x9, #0x100000000           	// #4294967296
    4010f968:	8b090289 	add	x9, x20, x9
    4010f96c:	9360fd21 	asr	x1, x9, #32
    4010f970:	d63f0100 	blr	x8
    4010f974:	b4000140 	cbz	x0, 0x4010f99c
    4010f978:	9360fe88 	asr	x8, x20, #32
    4010f97c:	b40000f4 	cbz	x20, 0x4010f998
    4010f980:	aa0803e9 	mov	x9, x8
    4010f984:	aa0003ea 	mov	x10, x0
    4010f988:	3840166b 	ldrb	w11, [x19], #1
    4010f98c:	f1000529 	subs	x9, x9, #0x1
    4010f990:	3800154b 	strb	w11, [x10], #1
    4010f994:	54ffffa1 	b.ne	0x4010f988  // b.any
    4010f998:	3828681f 	strb	wzr, [x0, x8]
    4010f99c:	a9414ff4 	ldp	x20, x19, [sp, #16]
    4010f9a0:	a8c27bfd 	ldp	x29, x30, [sp], #32
    4010f9a4:	d65f03c0 	ret
    4010f9a8:	97fff77b 	bl	0x4010d794
    4010f9ac:	aa0003e8 	mov	x8, x0
    4010f9b0:	52800189 	mov	w9, #0xc                   	// #12
    4010f9b4:	aa1f03e0 	mov	x0, xzr
    4010f9b8:	b9000109 	str	w9, [x8]
    4010f9bc:	17fffff8 	b	0x4010f99c
    4010f9c0:	b40001e2 	cbz	x2, 0x4010f9fc
    4010f9c4:	4a000028 	eor	w8, w1, w0
    4010f9c8:	f240091f 	tst	x8, #0x7
    4010f9cc:	d1000449 	sub	x9, x2, #0x1
    4010f9d0:	540001a0 	b.eq	0x4010fa04  // b.none
    4010f9d4:	aa0003e8 	mov	x8, x0
    4010f9d8:	b40004c9 	cbz	x9, 0x4010fa70
    4010f9dc:	3940002a 	ldrb	w10, [x1]
    4010f9e0:	3900010a 	strb	w10, [x8]
    4010f9e4:	3400046a 	cbz	w10, 0x4010fa70
    4010f9e8:	f1000529 	subs	x9, x9, #0x1
    4010f9ec:	91000421 	add	x1, x1, #0x1
    4010f9f0:	91000508 	add	x8, x8, #0x1
    4010f9f4:	54ffff41 	b.ne	0x4010f9dc  // b.any
    4010f9f8:	1400001e 	b	0x4010fa70
    4010f9fc:	aa0003e8 	mov	x8, x0
    4010fa00:	1400001d 	b	0x4010fa74
    4010fa04:	f100013f 	cmp	x9, #0x0
    4010fa08:	1a9f07ea 	cset	w10, ne  // ne = any
    4010fa0c:	b40002e9 	cbz	x9, 0x4010fa68
    4010fa10:	92400828 	and	x8, x1, #0x7
    4010fa14:	b40002a8 	cbz	x8, 0x4010fa68
    4010fa18:	aa1f03eb 	mov	x11, xzr
    4010fa1c:	d1000848 	sub	x8, x2, #0x2
    4010fa20:	386b6829 	ldrb	w9, [x1, x11]
    4010fa24:	382b6809 	strb	w9, [x0, x11]
    4010fa28:	34000449 	cbz	w9, 0x4010fab0
    4010fa2c:	eb0b011f 	cmp	x8, x11
    4010fa30:	1a9f07ea 	cset	w10, ne  // ne = any
    4010fa34:	9100056c 	add	x12, x11, #0x1
    4010fa38:	540000c0 	b.eq	0x4010fa50  // b.none
    4010fa3c:	0b0b0029 	add	w9, w1, w11
    4010fa40:	11000529 	add	w9, w9, #0x1
    4010fa44:	92400929 	and	x9, x9, #0x7
    4010fa48:	aa0c03eb 	mov	x11, x12
    4010fa4c:	b5fffea9 	cbnz	x9, 0x4010fa20
    4010fa50:	aa2c03e9 	mvn	x9, x12
    4010fa54:	8b0c0008 	add	x8, x0, x12
    4010fa58:	8b020129 	add	x9, x9, x2
    4010fa5c:	8b0c0021 	add	x1, x1, x12
    4010fa60:	3600008a 	tbz	w10, #0, 0x4010fa70
    4010fa64:	14000017 	b	0x4010fac0
    4010fa68:	aa0003e8 	mov	x8, x0
    4010fa6c:	370002aa 	tbnz	w10, #0, 0x4010fac0
    4010fa70:	3900011f 	strb	wzr, [x8]
    4010fa74:	cb000108 	sub	x8, x8, x0
    4010fa78:	92f0000a 	mov	x10, #0x7fffffffffffffff    	// #9223372036854775807
    4010fa7c:	aa0103e9 	mov	x9, x1
    4010fa80:	3940012b 	ldrb	w11, [x9]
    4010fa84:	340000ab 	cbz	w11, 0x4010fa98
    4010fa88:	f100054a 	subs	x10, x10, #0x1
    4010fa8c:	91000529 	add	x9, x9, #0x1
    4010fa90:	54ffff81 	b.ne	0x4010fa80  // b.any
    4010fa94:	aa1f03e9 	mov	x9, xzr
    4010fa98:	cb01012a 	sub	x10, x9, x1
    4010fa9c:	f100013f 	cmp	x9, #0x0
    4010faa0:	92f00009 	mov	x9, #0x7fffffffffffffff    	// #9223372036854775807
    4010faa4:	9a8a0129 	csel	x9, x9, x10, eq  // eq = none
    4010faa8:	8b090100 	add	x0, x8, x9
    4010faac:	d65f03c0 	ret
    4010fab0:	aa2b03e9 	mvn	x9, x11
    4010fab4:	8b0b0008 	add	x8, x0, x11
    4010fab8:	8b020129 	add	x9, x9, x2
    4010fabc:	8b0b0021 	add	x1, x1, x11
    4010fac0:	3940002a 	ldrb	w10, [x1]
    4010fac4:	34fff8aa 	cbz	w10, 0x4010f9d8
    4010fac8:	f100213f 	cmp	x9, #0x8
    4010facc:	54fff863 	b.cc	0x4010f9d8  // b.lo, b.ul, b.last
    4010fad0:	b207dbeb 	mov	x11, #0xfefefefefefefefe    	// #-72340172838076674
    4010fad4:	9240092a 	and	x10, x9, #0x7
    4010fad8:	f29fdfeb 	movk	x11, #0xfeff
    4010fadc:	f940002c 	ldr	x12, [x1]
    4010fae0:	8b0b018d 	add	x13, x12, x11
    4010fae4:	8a2c01ad 	bic	x13, x13, x12
    4010fae8:	f201c1bf 	tst	x13, #0x8080808080808080
    4010faec:	54fff761 	b.ne	0x4010f9d8  // b.any
    4010faf0:	d1002129 	sub	x9, x9, #0x8
    4010faf4:	f800850c 	str	x12, [x8], #8
    4010faf8:	f1001d3f 	cmp	x9, #0x7
    4010fafc:	91002021 	add	x1, x1, #0x8
    4010fb00:	54fffee8 	b.hi	0x4010fadc  // b.pmore
    4010fb04:	aa0a03e9 	mov	x9, x10
    4010fb08:	17ffffb4 	b	0x4010f9d8
    4010fb0c:	a9be7bfd 	stp	x29, x30, [sp, #-32]!
    4010fb10:	f9000bf3 	str	x19, [sp, #16]
    4010fb14:	910003fd 	mov	x29, sp
    4010fb18:	b4000102 	cbz	x2, 0x4010fb38
    4010fb1c:	aa0203e9 	mov	x9, x2
    4010fb20:	aa0003e8 	mov	x8, x0
    4010fb24:	3940010a 	ldrb	w10, [x8]
    4010fb28:	340000aa 	cbz	w10, 0x4010fb3c
    4010fb2c:	f1000529 	subs	x9, x9, #0x1
    4010fb30:	91000508 	add	x8, x8, #0x1
    4010fb34:	54ffff81 	b.ne	0x4010fb24  // b.any
    4010fb38:	aa1f03e8 	mov	x8, xzr
    4010fb3c:	cb000109 	sub	x9, x8, x0
    4010fb40:	f100011f 	cmp	x8, #0x0
    4010fb44:	9a890053 	csel	x19, x2, x9, eq  // eq = none
    4010fb48:	eb02027f 	cmp	x19, x2
    4010fb4c:	540001c1 	b.ne	0x4010fb84  // b.any
    4010fb50:	92f00009 	mov	x9, #0x7fffffffffffffff    	// #9223372036854775807
    4010fb54:	aa0103e8 	mov	x8, x1
    4010fb58:	3940010a 	ldrb	w10, [x8]
    4010fb5c:	340000aa 	cbz	w10, 0x4010fb70
    4010fb60:	f1000529 	subs	x9, x9, #0x1
    4010fb64:	91000508 	add	x8, x8, #0x1
    4010fb68:	54ffff81 	b.ne	0x4010fb58  // b.any
    4010fb6c:	aa1f03e8 	mov	x8, xzr
    4010fb70:	cb010109 	sub	x9, x8, x1
    4010fb74:	f100011f 	cmp	x8, #0x0
    4010fb78:	92f00008 	mov	x8, #0x7fffffffffffffff    	// #9223372036854775807
    4010fb7c:	9a890100 	csel	x0, x8, x9, eq  // eq = none
    4010fb80:	14000004 	b	0x4010fb90
    4010fb84:	8b130000 	add	x0, x0, x19
    4010fb88:	cb130042 	sub	x2, x2, x19
    4010fb8c:	97ffff8d 	bl	0x4010f9c0
    4010fb90:	8b130000 	add	x0, x0, x19
    4010fb94:	f9400bf3 	ldr	x19, [sp, #16]
    4010fb98:	a8c27bfd 	ldp	x29, x30, [sp], #32
    4010fb9c:	d65f03c0 	ret
    4010fba0:	a9bd7bfd 	stp	x29, x30, [sp, #-48]!
    4010fba4:	f9000bf5 	str	x21, [sp, #16]
    4010fba8:	a9024ff4 	stp	x20, x19, [sp, #32]
    4010fbac:	910003fd 	mov	x29, sp
    4010fbb0:	51000408 	sub	w8, w0, #0x1
    4010fbb4:	aa0203f3 	mov	x19, x2
    4010fbb8:	2a0003f5 	mov	w21, w0
    4010fbbc:	7101811f 	cmp	w8, #0x60
    4010fbc0:	aa0103f4 	mov	x20, x1
    4010fbc4:	54001688 	b.hi	0x4010fe94  // b.pmore
    4010fbc8:	b0000049 	adrp	x9, 0x40118000
    4010fbcc:	9110a129 	add	x9, x9, #0x428
    4010fbd0:	100000ca 	adr	x10, 0x4010fbe8
    4010fbd4:	7868792b 	ldrh	w11, [x9, x8, lsl #1]
    4010fbd8:	8b0b094a 	add	x10, x10, x11, lsl #2
    4010fbdc:	d0000048 	adrp	x8, 0x40119000
    4010fbe0:	912e9508 	add	x8, x8, #0xba5
    4010fbe4:	d61f0140 	br	x10
    4010fbe8:	d0000048 	adrp	x8, 0x40119000
    4010fbec:	912ef508 	add	x8, x8, #0xbbd
    4010fbf0:	1400011c 	b	0x40110060
    4010fbf4:	d0000048 	adrp	x8, 0x40119000
    4010fbf8:	912f5d08 	add	x8, x8, #0xbd7
    4010fbfc:	14000119 	b	0x40110060
    4010fc00:	d0000048 	adrp	x8, 0x40119000
    4010fc04:	912f9d08 	add	x8, x8, #0xbe7
    4010fc08:	14000116 	b	0x40110060
    4010fc0c:	d0000048 	adrp	x8, 0x40119000
    4010fc10:	912ffd08 	add	x8, x8, #0xbff
    4010fc14:	14000113 	b	0x40110060
    4010fc18:	d0000048 	adrp	x8, 0x40119000
    4010fc1c:	91304908 	add	x8, x8, #0xc12
    4010fc20:	14000110 	b	0x40110060
    4010fc24:	d0000048 	adrp	x8, 0x40119000
    4010fc28:	9130a108 	add	x8, x8, #0xc28
    4010fc2c:	1400010d 	b	0x40110060
    4010fc30:	d0000048 	adrp	x8, 0x40119000
    4010fc34:	9130fd08 	add	x8, x8, #0xc3f
    4010fc38:	1400010a 	b	0x40110060
    4010fc3c:	d0000048 	adrp	x8, 0x40119000
    4010fc40:	91314508 	add	x8, x8, #0xc51
    4010fc44:	14000107 	b	0x40110060
    4010fc48:	d0000048 	adrp	x8, 0x40119000
    4010fc4c:	91319508 	add	x8, x8, #0xc65
    4010fc50:	14000104 	b	0x40110060
    4010fc54:	d0000048 	adrp	x8, 0x40119000
    4010fc58:	9131e108 	add	x8, x8, #0xc78
    4010fc5c:	14000101 	b	0x40110060
    4010fc60:	d0000048 	adrp	x8, 0x40119000
    4010fc64:	91324908 	add	x8, x8, #0xc92
    4010fc68:	140000fe 	b	0x40110060
    4010fc6c:	d0000048 	adrp	x8, 0x40119000
    4010fc70:	9132a508 	add	x8, x8, #0xca9
    4010fc74:	140000fb 	b	0x40110060
    4010fc78:	d0000048 	adrp	x8, 0x40119000
    4010fc7c:	9132ed08 	add	x8, x8, #0xcbb
    4010fc80:	140000f8 	b	0x40110060
    4010fc84:	d0000048 	adrp	x8, 0x40119000
    4010fc88:	91331d08 	add	x8, x8, #0xcc7
    4010fc8c:	140000f5 	b	0x40110060
    4010fc90:	d0000048 	adrp	x8, 0x40119000
    4010fc94:	91337508 	add	x8, x8, #0xcdd
    4010fc98:	140000f2 	b	0x40110060
    4010fc9c:	d0000048 	adrp	x8, 0x40119000
    4010fca0:	9133a508 	add	x8, x8, #0xce9
    4010fca4:	140000ef 	b	0x40110060
    4010fca8:	d0000048 	adrp	x8, 0x40119000
    4010fcac:	9133d508 	add	x8, x8, #0xcf5
    4010fcb0:	140000ec 	b	0x40110060
    4010fcb4:	d0000048 	adrp	x8, 0x40119000
    4010fcb8:	91341d08 	add	x8, x8, #0xd07
    4010fcbc:	140000e9 	b	0x40110060
    4010fcc0:	d0000048 	adrp	x8, 0x40119000
    4010fcc4:	9134a508 	add	x8, x8, #0xd29
    4010fcc8:	140000e6 	b	0x40110060
    4010fccc:	d0000048 	adrp	x8, 0x40119000
    4010fcd0:	9134e508 	add	x8, x8, #0xd39
    4010fcd4:	140000e3 	b	0x40110060
    4010fcd8:	d0000048 	adrp	x8, 0x40119000
    4010fcdc:	91352108 	add	x8, x8, #0xd48
    4010fce0:	140000e0 	b	0x40110060
    4010fce4:	d0000048 	adrp	x8, 0x40119000
    4010fce8:	91356508 	add	x8, x8, #0xd59
    4010fcec:	140000dd 	b	0x40110060
    4010fcf0:	d0000048 	adrp	x8, 0x40119000
    4010fcf4:	9135dd08 	add	x8, x8, #0xd77
    4010fcf8:	140000da 	b	0x40110060
    4010fcfc:	d0000048 	adrp	x8, 0x40119000
    4010fd00:	91362d08 	add	x8, x8, #0xd8b
    4010fd04:	140000d7 	b	0x40110060
    4010fd08:	d0000048 	adrp	x8, 0x40119000
    4010fd0c:	9136a908 	add	x8, x8, #0xdaa
    4010fd10:	140000d4 	b	0x40110060
    4010fd14:	d0000048 	adrp	x8, 0x40119000
    4010fd18:	9136e508 	add	x8, x8, #0xdb9
    4010fd1c:	140000d1 	b	0x40110060
    4010fd20:	d0000048 	adrp	x8, 0x40119000
    4010fd24:	91372108 	add	x8, x8, #0xdc8
    4010fd28:	140000ce 	b	0x40110060
    4010fd2c:	d0000048 	adrp	x8, 0x40119000
    4010fd30:	91378108 	add	x8, x8, #0xde0
    4010fd34:	140000cb 	b	0x40110060
    4010fd38:	d0000048 	adrp	x8, 0x40119000
    4010fd3c:	9137b508 	add	x8, x8, #0xded
    4010fd40:	140000c8 	b	0x40110060
    4010fd44:	d0000048 	adrp	x8, 0x40119000
    4010fd48:	91380d08 	add	x8, x8, #0xe03
    4010fd4c:	140000c5 	b	0x40110060
    4010fd50:	d0000048 	adrp	x8, 0x40119000
    4010fd54:	91384908 	add	x8, x8, #0xe12
    4010fd58:	140000c2 	b	0x40110060
    4010fd5c:	d0000048 	adrp	x8, 0x40119000
    4010fd60:	91387908 	add	x8, x8, #0xe1e
    4010fd64:	140000bf 	b	0x40110060
    4010fd68:	d0000048 	adrp	x8, 0x40119000
    4010fd6c:	9138fd08 	add	x8, x8, #0xe3f
    4010fd70:	140000bc 	b	0x40110060
    4010fd74:	d0000048 	adrp	x8, 0x40119000
    4010fd78:	91394108 	add	x8, x8, #0xe50
    4010fd7c:	140000b9 	b	0x40110060
    4010fd80:	d0000048 	adrp	x8, 0x40119000
    4010fd84:	9139c508 	add	x8, x8, #0xe71
    4010fd88:	140000b6 	b	0x40110060
    4010fd8c:	d0000048 	adrp	x8, 0x40119000
    4010fd90:	913a2d08 	add	x8, x8, #0xe8b
    4010fd94:	140000b3 	b	0x40110060
    4010fd98:	d0000048 	adrp	x8, 0x40119000
    4010fd9c:	913aa508 	add	x8, x8, #0xea9
    4010fda0:	140000b0 	b	0x40110060
    4010fda4:	d0000048 	adrp	x8, 0x40119000
    4010fda8:	913b2108 	add	x8, x8, #0xec8
    4010fdac:	140000ad 	b	0x40110060
    4010fdb0:	d0000048 	adrp	x8, 0x40119000
    4010fdb4:	913b9508 	add	x8, x8, #0xee5
    4010fdb8:	140000aa 	b	0x40110060
    4010fdbc:	d0000048 	adrp	x8, 0x40119000
    4010fdc0:	913bd908 	add	x8, x8, #0xef6
    4010fdc4:	140000a7 	b	0x40110060
    4010fdc8:	d0000048 	adrp	x8, 0x40119000
    4010fdcc:	913c5508 	add	x8, x8, #0xf15
    4010fdd0:	140000a4 	b	0x40110060
    4010fdd4:	d0000048 	adrp	x8, 0x40119000
    4010fdd8:	913cb108 	add	x8, x8, #0xf2c
    4010fddc:	140000a1 	b	0x40110060
    4010fde0:	d0000048 	adrp	x8, 0x40119000
    4010fde4:	913d0d08 	add	x8, x8, #0xf43
    4010fde8:	1400009e 	b	0x40110060
    4010fdec:	d0000048 	adrp	x8, 0x40119000
    4010fdf0:	913d7508 	add	x8, x8, #0xf5d
    4010fdf4:	1400009b 	b	0x40110060
    4010fdf8:	d0000048 	adrp	x8, 0x40119000
    4010fdfc:	913dfd08 	add	x8, x8, #0xf7f
    4010fe00:	14000098 	b	0x40110060
    4010fe04:	d0000048 	adrp	x8, 0x40119000
    4010fe08:	913e7508 	add	x8, x8, #0xf9d
    4010fe0c:	14000095 	b	0x40110060
    4010fe10:	d0000048 	adrp	x8, 0x40119000
    4010fe14:	913f3508 	add	x8, x8, #0xfcd
    4010fe18:	14000092 	b	0x40110060
    4010fe1c:	d0000048 	adrp	x8, 0x40119000
    4010fe20:	913f9108 	add	x8, x8, #0xfe4
    4010fe24:	1400008f 	b	0x40110060
    4010fe28:	f0000048 	adrp	x8, 0x4011a000
    4010fe2c:	91000d08 	add	x8, x8, #0x3
    4010fe30:	1400008c 	b	0x40110060
    4010fe34:	f0000048 	adrp	x8, 0x4011a000
    4010fe38:	91004d08 	add	x8, x8, #0x13
    4010fe3c:	14000089 	b	0x40110060
    4010fe40:	f0000048 	adrp	x8, 0x4011a000
    4010fe44:	9100a908 	add	x8, x8, #0x2a
    4010fe48:	14000086 	b	0x40110060
    4010fe4c:	f0000048 	adrp	x8, 0x4011a000
    4010fe50:	91013908 	add	x8, x8, #0x4e
    4010fe54:	14000083 	b	0x40110060
    4010fe58:	f0000048 	adrp	x8, 0x4011a000
    4010fe5c:	9101bd08 	add	x8, x8, #0x6f
    4010fe60:	14000080 	b	0x40110060
    4010fe64:	f0000048 	adrp	x8, 0x4011a000
    4010fe68:	91022108 	add	x8, x8, #0x88
    4010fe6c:	1400007d 	b	0x40110060
    4010fe70:	f0000048 	adrp	x8, 0x4011a000
    4010fe74:	91028908 	add	x8, x8, #0xa2
    4010fe78:	1400007a 	b	0x40110060
    4010fe7c:	f0000048 	adrp	x8, 0x4011a000
    4010fe80:	9102f908 	add	x8, x8, #0xbe
    4010fe84:	14000077 	b	0x40110060
    4010fe88:	f0000048 	adrp	x8, 0x4011a000
    4010fe8c:	91035908 	add	x8, x8, #0xd6
    4010fe90:	14000074 	b	0x40110060
    4010fe94:	97fff640 	bl	0x4010d794
    4010fe98:	aa1f03e8 	mov	x8, xzr
    4010fe9c:	528002c9 	mov	w9, #0x16                  	// #22
    4010fea0:	b9000009 	str	w9, [x0]
    4010fea4:	1400006f 	b	0x40110060
    4010fea8:	f0000048 	adrp	x8, 0x4011a000
    4010feac:	9103dd08 	add	x8, x8, #0xf7
    4010feb0:	1400006c 	b	0x40110060
    4010feb4:	f0000048 	adrp	x8, 0x4011a000
    4010feb8:	91042d08 	add	x8, x8, #0x10b
    4010febc:	14000069 	b	0x40110060
    4010fec0:	f0000048 	adrp	x8, 0x4011a000
    4010fec4:	91047908 	add	x8, x8, #0x11e
    4010fec8:	14000066 	b	0x40110060
    4010fecc:	f0000048 	adrp	x8, 0x4011a000
    4010fed0:	91050108 	add	x8, x8, #0x140
    4010fed4:	14000063 	b	0x40110060
    4010fed8:	f0000048 	adrp	x8, 0x4011a000
    4010fedc:	91054d08 	add	x8, x8, #0x153
    4010fee0:	14000060 	b	0x40110060
    4010fee4:	f0000048 	adrp	x8, 0x4011a000
    4010fee8:	91058108 	add	x8, x8, #0x160
    4010feec:	1400005d 	b	0x40110060
    4010fef0:	f0000048 	adrp	x8, 0x4011a000
    4010fef4:	9105c508 	add	x8, x8, #0x171
    4010fef8:	1400005a 	b	0x40110060
    4010fefc:	f0000048 	adrp	x8, 0x4011a000
    4010ff00:	91061508 	add	x8, x8, #0x185
    4010ff04:	14000057 	b	0x40110060
    4010ff08:	f0000048 	adrp	x8, 0x4011a000
    4010ff0c:	91066108 	add	x8, x8, #0x198
    4010ff10:	14000054 	b	0x40110060
    4010ff14:	f0000048 	adrp	x8, 0x4011a000
    4010ff18:	91069d08 	add	x8, x8, #0x1a7
    4010ff1c:	14000051 	b	0x40110060
    4010ff20:	f0000048 	adrp	x8, 0x4011a000
    4010ff24:	9106ed08 	add	x8, x8, #0x1bb
    4010ff28:	1400004e 	b	0x40110060
    4010ff2c:	f0000048 	adrp	x8, 0x4011a000
    4010ff30:	91074508 	add	x8, x8, #0x1d1
    4010ff34:	1400004b 	b	0x40110060
    4010ff38:	f0000048 	adrp	x8, 0x4011a000
    4010ff3c:	91078d08 	add	x8, x8, #0x1e3
    4010ff40:	14000048 	b	0x40110060
    4010ff44:	f0000048 	adrp	x8, 0x4011a000
    4010ff48:	9107d508 	add	x8, x8, #0x1f5
    4010ff4c:	14000045 	b	0x40110060
    4010ff50:	f0000048 	adrp	x8, 0x4011a000
    4010ff54:	9107f908 	add	x8, x8, #0x1fe
    4010ff58:	14000042 	b	0x40110060
    4010ff5c:	f0000048 	adrp	x8, 0x4011a000
    4010ff60:	91085108 	add	x8, x8, #0x214
    4010ff64:	1400003f 	b	0x40110060
    4010ff68:	f0000048 	adrp	x8, 0x4011a000
    4010ff6c:	9108b908 	add	x8, x8, #0x22e
    4010ff70:	1400003c 	b	0x40110060
    4010ff74:	f0000048 	adrp	x8, 0x4011a000
    4010ff78:	91090508 	add	x8, x8, #0x241
    4010ff7c:	14000039 	b	0x40110060
    4010ff80:	f0000048 	adrp	x8, 0x4011a000
    4010ff84:	91096908 	add	x8, x8, #0x25a
    4010ff88:	14000036 	b	0x40110060
    4010ff8c:	f0000048 	adrp	x8, 0x4011a000
    4010ff90:	9109f108 	add	x8, x8, #0x27c
    4010ff94:	14000033 	b	0x40110060
    4010ff98:	f0000048 	adrp	x8, 0x4011a000
    4010ff9c:	910a4508 	add	x8, x8, #0x291
    4010ffa0:	14000030 	b	0x40110060
    4010ffa4:	f0000048 	adrp	x8, 0x4011a000
    4010ffa8:	910a9108 	add	x8, x8, #0x2a4
    4010ffac:	1400002d 	b	0x40110060
    4010ffb0:	f0000048 	adrp	x8, 0x4011a000
    4010ffb4:	910add08 	add	x8, x8, #0x2b7
    4010ffb8:	1400002a 	b	0x40110060
    4010ffbc:	f0000048 	adrp	x8, 0x4011a000
    4010ffc0:	910b4908 	add	x8, x8, #0x2d2
    4010ffc4:	14000027 	b	0x40110060
    4010ffc8:	f0000048 	adrp	x8, 0x4011a000
    4010ffcc:	910bf108 	add	x8, x8, #0x2fc
    4010ffd0:	14000024 	b	0x40110060
    4010ffd4:	f0000048 	adrp	x8, 0x4011a000
    4010ffd8:	910c3d08 	add	x8, x8, #0x30f
    4010ffdc:	14000021 	b	0x40110060
    4010ffe0:	f0000048 	adrp	x8, 0x4011a000
    4010ffe4:	910c9508 	add	x8, x8, #0x325
    4010ffe8:	1400001e 	b	0x40110060
    4010ffec:	f0000048 	adrp	x8, 0x4011a000
    4010fff0:	910ce508 	add	x8, x8, #0x339
    4010fff4:	1400001b 	b	0x40110060
    4010fff8:	f0000048 	adrp	x8, 0x4011a000
    4010fffc:	910d2d08 	add	x8, x8, #0x34b
    40110000:	14000018 	b	0x40110060
    40110004:	d0000048 	adrp	x8, 0x4011a000
    40110008:	910d5d08 	add	x8, x8, #0x357
    4011000c:	14000015 	b	0x40110060
    40110010:	d0000048 	adrp	x8, 0x4011a000
    40110014:	910da908 	add	x8, x8, #0x36a
    40110018:	14000012 	b	0x40110060
    4011001c:	d0000048 	adrp	x8, 0x4011a000
    40110020:	910e0108 	add	x8, x8, #0x380
    40110024:	1400000f 	b	0x40110060
    40110028:	d0000048 	adrp	x8, 0x4011a000
    4011002c:	910e3d08 	add	x8, x8, #0x38f
    40110030:	1400000c 	b	0x40110060
    40110034:	d0000048 	adrp	x8, 0x4011a000
    40110038:	910ea508 	add	x8, x8, #0x3a9
    4011003c:	14000009 	b	0x40110060
    40110040:	d0000048 	adrp	x8, 0x4011a000
    40110044:	910f2908 	add	x8, x8, #0x3ca
    40110048:	14000006 	b	0x40110060
    4011004c:	d0000048 	adrp	x8, 0x4011a000
    40110050:	910f8108 	add	x8, x8, #0x3e0
    40110054:	14000003 	b	0x40110060
    40110058:	d0000048 	adrp	x8, 0x4011a000
    4011005c:	910fd108 	add	x8, x8, #0x3f4
    40110060:	b4000493 	cbz	x19, 0x401100f0
    40110064:	b4000128 	cbz	x8, 0x40110088
    40110068:	aa1f03e9 	mov	x9, xzr
    4011006c:	3869690a 	ldrb	w10, [x8, x9]
    40110070:	340001aa 	cbz	w10, 0x401100a4
    40110074:	91000529 	add	x9, x9, #0x1
    40110078:	eb09027f 	cmp	x19, x9
    4011007c:	54ffff81 	b.ne	0x4011006c  // b.any
    40110080:	aa1f03e9 	mov	x9, xzr
    40110084:	14000009 	b	0x401100a8
    40110088:	d0000042 	adrp	x2, 0x4011a000
    4011008c:	91100842 	add	x2, x2, #0x402
    40110090:	aa1403e0 	mov	x0, x20
    40110094:	aa1303e1 	mov	x1, x19
    40110098:	2a1503e3 	mov	w3, w21
    4011009c:	97fff87a 	bl	0x4010e284
    401100a0:	14000012 	b	0x401100e8
    401100a4:	8b090109 	add	x9, x8, x9
    401100a8:	cb08012a 	sub	x10, x9, x8
    401100ac:	f100013f 	cmp	x9, #0x0
    401100b0:	9a8a0269 	csel	x9, x19, x10, eq  // eq = none
    401100b4:	b40000e9 	cbz	x9, 0x401100d0
    401100b8:	aa0903ea 	mov	x10, x9
    401100bc:	aa1403eb 	mov	x11, x20
    401100c0:	3840150c 	ldrb	w12, [x8], #1
    401100c4:	f100054a 	subs	x10, x10, #0x1
    401100c8:	3800156c 	strb	w12, [x11], #1
    401100cc:	54ffffa1 	b.ne	0x401100c0  // b.any
    401100d0:	eb13013f 	cmp	x9, x19
    401100d4:	540000a2 	b.cs	0x401100e8  // b.hs, b.nlast
    401100d8:	8b140128 	add	x8, x9, x20
    401100dc:	385ff108 	ldurb	w8, [x8, #-1]
    401100e0:	34000048 	cbz	w8, 0x401100e8
    401100e4:	38296a9f 	strb	wzr, [x20, x9]
    401100e8:	8b140268 	add	x8, x19, x20
    401100ec:	381ff11f 	sturb	wzr, [x8, #-1]
    401100f0:	aa1403e0 	mov	x0, x20
    401100f4:	a9424ff4 	ldp	x20, x19, [sp, #32]
    401100f8:	f9400bf5 	ldr	x21, [sp, #16]
    401100fc:	a8c37bfd 	ldp	x29, x30, [sp], #48
    40110100:	d65f03c0 	ret
    40110104:	90000161 	adrp	x1, 0x4013c000
    40110108:	910de021 	add	x1, x1, #0x378
    4011010c:	52800802 	mov	w2, #0x40                  	// #64
    40110110:	17fffea4 	b	0x4010fba0
    40110114:	92f00009 	mov	x9, #0x7fffffffffffffff    	// #9223372036854775807
    40110118:	aa0003e8 	mov	x8, x0
    4011011c:	3940010a 	ldrb	w10, [x8]
    40110120:	340000aa 	cbz	w10, 0x40110134
    40110124:	f1000529 	subs	x9, x9, #0x1
    40110128:	91000508 	add	x8, x8, #0x1
    4011012c:	54ffff81 	b.ne	0x4011011c  // b.any
    40110130:	aa1f03e8 	mov	x8, xzr
    40110134:	cb000109 	sub	x9, x8, x0
    40110138:	f100011f 	cmp	x8, #0x0
    4011013c:	92f00008 	mov	x8, #0x7fffffffffffffff    	// #9223372036854775807
    40110140:	9a890108 	csel	x8, x8, x9, eq  // eq = none
    40110144:	8b080008 	add	x8, x0, x8
    40110148:	b4000101 	cbz	x1, 0x40110168
    4011014c:	b40000e2 	cbz	x2, 0x40110168
    40110150:	39400029 	ldrb	w9, [x1]
    40110154:	340000a9 	cbz	w9, 0x40110168
    40110158:	f1000442 	subs	x2, x2, #0x1
    4011015c:	91000421 	add	x1, x1, #0x1
    40110160:	38001509 	strb	w9, [x8], #1
    40110164:	54ffff61 	b.ne	0x40110150  // b.any
    40110168:	3900011f 	strb	wzr, [x8]
    4011016c:	d65f03c0 	ret
    40110170:	f0000049 	adrp	x9, 0x4011b000
    40110174:	2a0003e8 	mov	w8, w0
    40110178:	f9419120 	ldr	x0, [x9, #800]
    4011017c:	51000509 	sub	w9, w8, #0x1
    40110180:	7100793f 	cmp	w9, #0x1e
    40110184:	540000c8 	b.hi	0x4011019c  // b.pmore
    40110188:	340000a8 	cbz	w8, 0x4011019c
    4011018c:	38401409 	ldrb	w9, [x0], #1
    40110190:	35ffffe9 	cbnz	w9, 0x4011018c
    40110194:	71000508 	subs	w8, w8, #0x1
    40110198:	54ffffa1 	b.ne	0x4011018c  // b.any
    4011019c:	d65f03c0 	ret
    401101a0:	a9bd7bfd 	stp	x29, x30, [sp, #-48]!
    401101a4:	a90157f6 	stp	x22, x21, [sp, #16]
    401101a8:	a9024ff4 	stp	x20, x19, [sp, #32]
    401101ac:	910003fd 	mov	x29, sp
    401101b0:	f0000048 	adrp	x8, 0x4011b000
    401101b4:	f9418d14 	ldr	x20, [x8, #792]
    401101b8:	aa0103f3 	mov	x19, x1
    401101bc:	97ffffed 	bl	0x40110170
    401101c0:	aa0003f5 	mov	x21, x0
    401101c4:	97fff574 	bl	0x4010d794
    401101c8:	b9400016 	ldr	w22, [x0]
    401101cc:	90000048 	adrp	x8, 0x40118000
    401101d0:	d0000049 	adrp	x9, 0x4011a000
    401101d4:	91393108 	add	x8, x8, #0xe4c
    401101d8:	f100027f 	cmp	x19, #0x0
    401101dc:	91252129 	add	x9, x9, #0x948
    401101e0:	d0000041 	adrp	x1, 0x4011a000
    401101e4:	9a881262 	csel	x2, x19, x8, ne  // ne = any
    401101e8:	9a881123 	csel	x3, x9, x8, ne  // ne = any
    401101ec:	91104c21 	add	x1, x1, #0x413
    401101f0:	aa1403e0 	mov	x0, x20
    401101f4:	aa1503e4 	mov	x4, x21
    401101f8:	97fff87a 	bl	0x4010e3e0
    401101fc:	37f80060 	tbnz	w0, #31, 0x40110208
    40110200:	97fff565 	bl	0x4010d794
    40110204:	b9000016 	str	w22, [x0]
    40110208:	a9424ff4 	ldp	x20, x19, [sp, #32]
    4011020c:	a94157f6 	ldp	x22, x21, [sp, #16]
    40110210:	a8c37bfd 	ldp	x29, x30, [sp], #48
    40110214:	d65f03c0 	ret
    40110218:	aa1f03e3 	mov	x3, xzr
    4011021c:	aa1f03e4 	mov	x4, xzr
    40110220:	2a1f03e5 	mov	w5, wzr
    40110224:	14000001 	b	0x40110228
    40110228:	a9ba7bfd 	stp	x29, x30, [sp, #-96]!
    4011022c:	a9016ffc 	stp	x28, x27, [sp, #16]
    40110230:	a90267fa 	stp	x26, x25, [sp, #32]
    40110234:	a9035ff8 	stp	x24, x23, [sp, #48]
    40110238:	a90457f6 	stp	x22, x21, [sp, #64]
    4011023c:	a9054ff4 	stp	x20, x19, [sp, #80]
    40110240:	910003fd 	mov	x29, sp
    40110244:	b40023c2 	cbz	x2, 0x401106bc
    40110248:	39400048 	ldrb	w8, [x2]
    4011024c:	2a0503f6 	mov	w22, w5
    40110250:	aa0403f7 	mov	x23, x4
    40110254:	aa0303f8 	mov	x24, x3
    40110258:	aa0203f4 	mov	x20, x2
    4011025c:	aa0103f3 	mov	x19, x1
    40110260:	2a0003f5 	mov	w21, w0
    40110264:	7100ad1f 	cmp	w8, #0x2b
    40110268:	540000a0 	b.eq	0x4011027c  // b.none
    4011026c:	7100b51f 	cmp	w8, #0x2d
    40110270:	540000a1 	b.ne	0x40110284  // b.any
    40110274:	321f02d6 	orr	w22, w22, #0x2
    40110278:	14000002 	b	0x40110280
    4011027c:	121f7ad6 	and	w22, w22, #0xfffffffe
    40110280:	91000694 	add	x20, x20, #0x1
    40110284:	f000005a 	adrp	x26, 0x4011b000
    40110288:	b9432f4a 	ldr	w10, [x26, #812]
    4011028c:	9000016b 	adrp	x11, 0x4013c000
    40110290:	f0000049 	adrp	x9, 0x4011b000
    40110294:	f0000048 	adrp	x8, 0x4011b000
    40110298:	90000167 	adrp	x7, 0x4013c000
    4011029c:	340000aa 	cbz	w10, 0x401102b0
    401102a0:	b943c16d 	ldr	w13, [x11, #960]
    401102a4:	f901dcff 	str	xzr, [x7, #952]
    401102a8:	350000ed 	cbnz	w13, 0x401102c4
    401102ac:	14000009 	b	0x401102d0
    401102b0:	5280002a 	mov	w10, #0x1                   	// #1
    401102b4:	f901dcff 	str	xzr, [x7, #952]
    401102b8:	b903c16a 	str	w10, [x11, #960]
    401102bc:	b9032f4a 	str	w10, [x26, #812]
    401102c0:	5280002d 	mov	w13, #0x1                   	// #1
    401102c4:	1280000c 	mov	w12, #0xffffffff            	// #-1
    401102c8:	b903352c 	str	w12, [x9, #820]
    401102cc:	b903390c 	str	w12, [x8, #824]
    401102d0:	9000005c 	adrp	x28, 0x40118000
    401102d4:	f000005b 	adrp	x27, 0x4011b000
    401102d8:	9139339c 	add	x28, x28, #0xe4c
    401102dc:	1280000c 	mov	w12, #0xffffffff            	// #-1
    401102e0:	14000008 	b	0x40110300
    401102e4:	0b0a01ad 	add	w13, w13, w10
    401102e8:	4b0e01ad 	sub	w13, w13, w14
    401102ec:	b903390d 	str	w13, [x8, #824]
    401102f0:	b903352c 	str	w12, [x9, #820]
    401102f4:	1100054a 	add	w10, w10, #0x1
    401102f8:	2a1f03ed 	mov	w13, wzr
    401102fc:	b9032f4a 	str	w10, [x26, #812]
    40110300:	3500008d 	cbnz	w13, 0x40110310
    40110304:	f941a36d 	ldr	x13, [x27, #832]
    40110308:	394001b9 	ldrb	w25, [x13]
    4011030c:	35000d19 	cbnz	w25, 0x401104ac
    40110310:	6b15015f 	cmp	w10, w21
    40110314:	b903c17f 	str	wzr, [x11, #960]
    40110318:	540007ca 	b.ge	0x40110410  // b.tcont
    4011031c:	f86ada6e 	ldr	x14, [x19, w10, sxtw #3]
    40110320:	f901a36e 	str	x14, [x27, #832]
    40110324:	394001cd 	ldrb	w13, [x14]
    40110328:	7100b5bf 	cmp	w13, #0x2d
    4011032c:	54000061 	b.ne	0x40110338  // b.any
    40110330:	394005d9 	ldrb	w25, [x14, #1]
    40110334:	350009f9 	cbnz	w25, 0x40110470
    40110338:	f901a37c 	str	x28, [x27, #832]
    4011033c:	37080916 	tbnz	w22, #1, 0x4011045c
    40110340:	36001bf6 	tbz	w22, #0, 0x401106bc
    40110344:	b943390d 	ldr	w13, [x8, #824]
    40110348:	310005bf 	cmn	w13, #0x1
    4011034c:	54000240 	b.eq	0x40110394  // b.none
    40110350:	b983352e 	ldrsw	x14, [x9, #820]
    40110354:	310005df 	cmn	w14, #0x1
    40110358:	54fffce0 	b.eq	0x401102f4  // b.none
    4011035c:	4b0d01d1 	sub	w17, w14, w13
    40110360:	4b0e014f 	sub	w15, w10, w14
    40110364:	1acf0e30 	sdiv	w16, w17, w15
    40110368:	1b0fc610 	msub	w16, w16, w15, w17
    4011036c:	34000190 	cbz	w16, 0x4011039c
    40110370:	2a0f03f2 	mov	w18, w15
    40110374:	2a1003e0 	mov	w0, w16
    40110378:	1ad00e50 	sdiv	w16, w18, w16
    4011037c:	1b00ca10 	msub	w16, w16, w0, w18
    40110380:	2a0003f2 	mov	w18, w0
    40110384:	35ffff90 	cbnz	w16, 0x40110374
    40110388:	7100041f 	cmp	w0, #0x1
    4011038c:	540000ea 	b.ge	0x401103a8  // b.tcont
    40110390:	17ffffd5 	b	0x401102e4
    40110394:	b903390a 	str	w10, [x8, #824]
    40110398:	17ffffd7 	b	0x401102f4
    4011039c:	2a0f03e0 	mov	w0, w15
    401103a0:	7100041f 	cmp	w0, #0x1
    401103a4:	54fffa0b 	b.lt	0x401102e4  // b.tstop
    401103a8:	4b0d0152 	sub	w18, w10, w13
    401103ac:	aa1f03f0 	mov	x16, xzr
    401103b0:	4b1103f1 	neg	w17, w17
    401103b4:	1ac00e52 	sdiv	w18, w18, w0
    401103b8:	2a0003e0 	mov	w0, w0
    401103bc:	14000004 	b	0x401103cc
    401103c0:	91000610 	add	x16, x16, #0x1
    401103c4:	eb00021f 	cmp	x16, x0
    401103c8:	54fff8e0 	b.eq	0x401102e4  // b.none
    401103cc:	7100065f 	cmp	w18, #0x1
    401103d0:	54ffff8b 	b.lt	0x401103c0  // b.tstop
    401103d4:	8b0e0201 	add	x1, x16, x14
    401103d8:	f8617a64 	ldr	x4, [x19, x1, lsl #3]
    401103dc:	2a1203e2 	mov	w2, w18
    401103e0:	2a0103e3 	mov	w3, w1
    401103e4:	6b0e007f 	cmp	w3, w14
    401103e8:	1a91b1e5 	csel	w5, w15, w17, lt  // lt = tstop
    401103ec:	0b0300a3 	add	w3, w5, w3
    401103f0:	937d7c65 	sbfiz	x5, x3, #3, #32
    401103f4:	f8656a66 	ldr	x6, [x19, x5]
    401103f8:	f8256a64 	str	x4, [x19, x5]
    401103fc:	71000442 	subs	w2, w2, #0x1
    40110400:	aa0603e4 	mov	x4, x6
    40110404:	f8217a66 	str	x6, [x19, x1, lsl #3]
    40110408:	54fffee1 	b.ne	0x401103e4  // b.any
    4011040c:	17ffffed 	b	0x401103c0
    40110410:	b983352c 	ldrsw	x12, [x9, #820]
    40110414:	b943390b 	ldr	w11, [x8, #824]
    40110418:	f901a37c 	str	x28, [x27, #832]
    4011041c:	3100059f 	cmn	w12, #0x1
    40110420:	54000640 	b.eq	0x401104e8  // b.none
    40110424:	4b0b018f 	sub	w15, w12, w11
    40110428:	4b0c014d 	sub	w13, w10, w12
    4011042c:	1acd0dee 	sdiv	w14, w15, w13
    40110430:	1b0dbdce 	msub	w14, w14, w13, w15
    40110434:	3400060e 	cbz	w14, 0x401104f4
    40110438:	2a0d03f1 	mov	w17, w13
    4011043c:	2a0e03f0 	mov	w16, w14
    40110440:	1ace0e2e 	sdiv	w14, w17, w14
    40110444:	1b10c5ce 	msub	w14, w14, w16, w17
    40110448:	2a1003f1 	mov	w17, w16
    4011044c:	35ffff8e 	cbnz	w14, 0x4011043c
    40110450:	7100061f 	cmp	w16, #0x1
    40110454:	5400056a 	b.ge	0x40110500  // b.tcont
    40110458:	14000044 	b	0x40110568
    4011045c:	11000548 	add	w8, w10, #0x1
    40110460:	f901dcee 	str	x14, [x7, #952]
    40110464:	b9032f48 	str	w8, [x26, #812]
    40110468:	52800039 	mov	w25, #0x1                   	// #1
    4011046c:	14000095 	b	0x401106c0
    40110470:	b943390b 	ldr	w11, [x8, #824]
    40110474:	b943352c 	ldr	w12, [x9, #820]
    40110478:	910005cd 	add	x13, x14, #0x1
    4011047c:	3100057f 	cmn	w11, #0x1
    40110480:	540000a0 	b.eq	0x40110494  // b.none
    40110484:	3100059f 	cmn	w12, #0x1
    40110488:	54000061 	b.ne	0x40110494  // b.any
    4011048c:	2a0a03ec 	mov	w12, w10
    40110490:	b903352a 	str	w10, [x9, #820]
    40110494:	7100b73f 	cmp	w25, #0x2d
    40110498:	f901a36d 	str	x13, [x27, #832]
    4011049c:	54000081 	b.ne	0x401104ac  // b.any
    401104a0:	394009ce 	ldrb	w14, [x14, #2]
    401104a4:	340006ee 	cbz	w14, 0x40110580
    401104a8:	528005b9 	mov	w25, #0x2d                  	// #45
    401104ac:	b4000b58 	cbz	x24, 0x40110614
    401104b0:	f86ada68 	ldr	x8, [x19, w10, sxtw #3]
    401104b4:	eb0801bf 	cmp	x13, x8
    401104b8:	54000ae0 	b.eq	0x40110614  // b.none
    401104bc:	37100076 	tbnz	w22, #2, 0x401104c8
    401104c0:	7100b73f 	cmp	w25, #0x2d
    401104c4:	54000a81 	b.ne	0x40110614  // b.any
    401104c8:	7100eb3f 	cmp	w25, #0x3a
    401104cc:	540007c0 	b.eq	0x401105c4  // b.none
    401104d0:	7100b73f 	cmp	w25, #0x2d
    401104d4:	540007c1 	b.ne	0x401105cc  // b.any
    401104d8:	910005a8 	add	x8, x13, #0x1
    401104dc:	2a1f03e4 	mov	w4, wzr
    401104e0:	f901a368 	str	x8, [x27, #832]
    401104e4:	1400003f 	b	0x401105e0
    401104e8:	3100057f 	cmn	w11, #0x1
    401104ec:	54000401 	b.ne	0x4011056c  // b.any
    401104f0:	14000020 	b	0x40110570
    401104f4:	2a0d03f0 	mov	w16, w13
    401104f8:	7100061f 	cmp	w16, #0x1
    401104fc:	5400036b 	b.lt	0x40110568  // b.tstop
    40110500:	4b0b0151 	sub	w17, w10, w11
    40110504:	aa1f03ee 	mov	x14, xzr
    40110508:	4b0f03ea 	neg	w10, w15
    4011050c:	1ad00e2f 	sdiv	w15, w17, w16
    40110510:	2a1003f0 	mov	w16, w16
    40110514:	14000004 	b	0x40110524
    40110518:	910005ce 	add	x14, x14, #0x1
    4011051c:	eb1001df 	cmp	x14, x16
    40110520:	54000240 	b.eq	0x40110568  // b.none
    40110524:	710005ff 	cmp	w15, #0x1
    40110528:	54ffff8b 	b.lt	0x40110518  // b.tstop
    4011052c:	8b0c01d1 	add	x17, x14, x12
    40110530:	f8717a61 	ldr	x1, [x19, x17, lsl #3]
    40110534:	2a0f03f2 	mov	w18, w15
    40110538:	2a1103e0 	mov	w0, w17
    4011053c:	6b0c001f 	cmp	w0, w12
    40110540:	1a8ab1a2 	csel	w2, w13, w10, lt  // lt = tstop
    40110544:	0b000040 	add	w0, w2, w0
    40110548:	937d7c02 	sbfiz	x2, x0, #3, #32
    4011054c:	f8626a63 	ldr	x3, [x19, x2]
    40110550:	f8226a61 	str	x1, [x19, x2]
    40110554:	71000652 	subs	w18, w18, #0x1
    40110558:	aa0303e1 	mov	x1, x3
    4011055c:	f8317a63 	str	x3, [x19, x17, lsl #3]
    40110560:	54fffee1 	b.ne	0x4011053c  // b.any
    40110564:	17ffffed 	b	0x40110518
    40110568:	0b0b01ab 	add	w11, w13, w11
    4011056c:	b9032f4b 	str	w11, [x26, #812]
    40110570:	12800019 	mov	w25, #0xffffffff            	// #-1
    40110574:	b9033539 	str	w25, [x9, #820]
    40110578:	b9033919 	str	w25, [x8, #824]
    4011057c:	14000051 	b	0x401106c0
    40110580:	1100054a 	add	w10, w10, #0x1
    40110584:	3100059f 	cmn	w12, #0x1
    40110588:	b9032f4a 	str	w10, [x26, #812]
    4011058c:	f901a37c 	str	x28, [x27, #832]
    40110590:	54ffff00 	b.eq	0x40110570  // b.none
    40110594:	4b0b018f 	sub	w15, w12, w11
    40110598:	4b0c014d 	sub	w13, w10, w12
    4011059c:	1acd0dee 	sdiv	w14, w15, w13
    401105a0:	1b0dbdce 	msub	w14, w14, w13, w15
    401105a4:	34000d4e 	cbz	w14, 0x4011074c
    401105a8:	2a0d03f0 	mov	w16, w13
    401105ac:	2a0e03f2 	mov	w18, w14
    401105b0:	1ace0e0e 	sdiv	w14, w16, w14
    401105b4:	1b12c1ce 	msub	w14, w14, w18, w16
    401105b8:	2a1203f0 	mov	w16, w18
    401105bc:	35ffff8e 	cbnz	w14, 0x401105ac
    401105c0:	14000064 	b	0x40110750
    401105c4:	2a1f03e4 	mov	w4, wzr
    401105c8:	14000006 	b	0x401105e0
    401105cc:	aa1403e0 	mov	x0, x20
    401105d0:	2a1903e1 	mov	w1, w25
    401105d4:	97fffb3c 	bl	0x4010f2c4
    401105d8:	f100001f 	cmp	x0, #0x0
    401105dc:	1a9f07e4 	cset	w4, ne  // ne = any
    401105e0:	aa1303e0 	mov	x0, x19
    401105e4:	aa1403e1 	mov	x1, x20
    401105e8:	aa1803e2 	mov	x2, x24
    401105ec:	aa1703e3 	mov	x3, x23
    401105f0:	2a1603e5 	mov	w5, w22
    401105f4:	94000093 	bl	0x40110840
    401105f8:	3100041f 	cmn	w0, #0x1
    401105fc:	54000080 	b.eq	0x4011060c  // b.none
    40110600:	2a0003f9 	mov	w25, w0
    40110604:	f901a37c 	str	x28, [x27, #832]
    40110608:	1400002e 	b	0x401106c0
    4011060c:	f941a36d 	ldr	x13, [x27, #832]
    40110610:	394001b9 	ldrb	w25, [x13]
    40110614:	910005a8 	add	x8, x13, #0x1
    40110618:	7100eb3f 	cmp	w25, #0x3a
    4011061c:	f901a368 	str	x8, [x27, #832]
    40110620:	54000600 	b.eq	0x401106e0  // b.none
    40110624:	7100b73f 	cmp	w25, #0x2d
    40110628:	54000061 	b.ne	0x40110634  // b.any
    4011062c:	39400108 	ldrb	w8, [x8]
    40110630:	35000628 	cbnz	w8, 0x401106f4
    40110634:	aa1403e0 	mov	x0, x20
    40110638:	2a1903e1 	mov	w1, w25
    4011063c:	97fffb22 	bl	0x4010f2c4
    40110640:	b4000340 	cbz	x0, 0x401106a8
    40110644:	39400408 	ldrb	w8, [x0, #1]
    40110648:	b40005f8 	cbz	x24, 0x40110704
    4011064c:	71015f3f 	cmp	w25, #0x57
    40110650:	540005a1 	b.ne	0x40110704  // b.any
    40110654:	7100ed1f 	cmp	w8, #0x3b
    40110658:	54000561 	b.ne	0x40110704  // b.any
    4011065c:	f941a368 	ldr	x8, [x27, #832]
    40110660:	39400108 	ldrb	w8, [x8]
    40110664:	35000108 	cbnz	w8, 0x40110684
    40110668:	b9832f48 	ldrsw	x8, [x26, #812]
    4011066c:	91000508 	add	x8, x8, #0x1
    40110670:	6b15011f 	cmp	w8, w21
    40110674:	b9032f48 	str	w8, [x26, #812]
    40110678:	54000aea 	b.ge	0x401107d4  // b.tcont
    4011067c:	f8687a68 	ldr	x8, [x19, x8, lsl #3]
    40110680:	f901a368 	str	x8, [x27, #832]
    40110684:	aa1303e0 	mov	x0, x19
    40110688:	aa1403e1 	mov	x1, x20
    4011068c:	aa1803e2 	mov	x2, x24
    40110690:	aa1703e3 	mov	x3, x23
    40110694:	2a1f03e4 	mov	w4, wzr
    40110698:	2a1603e5 	mov	w5, w22
    4011069c:	94000069 	bl	0x40110840
    401106a0:	f901a37c 	str	x28, [x27, #832]
    401106a4:	14000008 	b	0x401106c4
    401106a8:	f941a368 	ldr	x8, [x27, #832]
    401106ac:	7100b73f 	cmp	w25, #0x2d
    401106b0:	54000181 	b.ne	0x401106e0  // b.any
    401106b4:	39400108 	ldrb	w8, [x8]
    401106b8:	350001e8 	cbnz	w8, 0x401106f4
    401106bc:	12800019 	mov	w25, #0xffffffff            	// #-1
    401106c0:	2a1903e0 	mov	w0, w25
    401106c4:	a9454ff4 	ldp	x20, x19, [sp, #80]
    401106c8:	a94457f6 	ldp	x22, x21, [sp, #64]
    401106cc:	a9435ff8 	ldp	x24, x23, [sp, #48]
    401106d0:	a94267fa 	ldp	x26, x25, [sp, #32]
    401106d4:	a9416ffc 	ldp	x28, x27, [sp, #16]
    401106d8:	a8c67bfd 	ldp	x29, x30, [sp], #96
    401106dc:	d65f03c0 	ret
    401106e0:	39400108 	ldrb	w8, [x8]
    401106e4:	35000088 	cbnz	w8, 0x401106f4
    401106e8:	b9432f48 	ldr	w8, [x26, #812]
    401106ec:	11000508 	add	w8, w8, #0x1
    401106f0:	b9032f48 	str	w8, [x26, #812]
    401106f4:	f0000048 	adrp	x8, 0x4011b000
    401106f8:	b9033119 	str	w25, [x8, #816]
    401106fc:	528007f9 	mov	w25, #0x3f                  	// #63
    40110700:	17fffff0 	b	0x401106c0
    40110704:	7100e91f 	cmp	w8, #0x3a
    40110708:	54000141 	b.ne	0x40110730  // b.any
    4011070c:	f941a368 	ldr	x8, [x27, #832]
    40110710:	9000016a 	adrp	x10, 0x4013c000
    40110714:	f901dd5f 	str	xzr, [x10, #952]
    40110718:	39400109 	ldrb	w9, [x8]
    4011071c:	34000669 	cbz	w9, 0x401107e8
    40110720:	f901dd48 	str	x8, [x10, #952]
    40110724:	b9432f48 	ldr	w8, [x26, #812]
    40110728:	f901a37c 	str	x28, [x27, #832]
    4011072c:	14000005 	b	0x40110740
    40110730:	f941a368 	ldr	x8, [x27, #832]
    40110734:	39400108 	ldrb	w8, [x8]
    40110738:	35fffc48 	cbnz	w8, 0x401106c0
    4011073c:	b9432f48 	ldr	w8, [x26, #812]
    40110740:	11000508 	add	w8, w8, #0x1
    40110744:	b9032f48 	str	w8, [x26, #812]
    40110748:	17ffffde 	b	0x401106c0
    4011074c:	2a0d03f2 	mov	w18, w13
    40110750:	7100065f 	cmp	w18, #0x1
    40110754:	5400038b 	b.lt	0x401107c4  // b.tstop
    40110758:	4b0b0151 	sub	w17, w10, w11
    4011075c:	aa1f03ee 	mov	x14, xzr
    40110760:	4b0f03ef 	neg	w15, w15
    40110764:	93407d90 	sxtw	x16, w12
    40110768:	1ad20e31 	sdiv	w17, w17, w18
    4011076c:	2a1203f2 	mov	w18, w18
    40110770:	14000004 	b	0x40110780
    40110774:	910005ce 	add	x14, x14, #0x1
    40110778:	eb1201df 	cmp	x14, x18
    4011077c:	54000240 	b.eq	0x401107c4  // b.none
    40110780:	7100063f 	cmp	w17, #0x1
    40110784:	54ffff8b 	b.lt	0x40110774  // b.tstop
    40110788:	8b1001c0 	add	x0, x14, x16
    4011078c:	f8607a63 	ldr	x3, [x19, x0, lsl #3]
    40110790:	2a1103e1 	mov	w1, w17
    40110794:	2a0003e2 	mov	w2, w0
    40110798:	6b0c005f 	cmp	w2, w12
    4011079c:	1a8fb1a4 	csel	w4, w13, w15, lt  // lt = tstop
    401107a0:	0b020082 	add	w2, w4, w2
    401107a4:	937d7c44 	sbfiz	x4, x2, #3, #32
    401107a8:	f8646a65 	ldr	x5, [x19, x4]
    401107ac:	f8246a63 	str	x3, [x19, x4]
    401107b0:	71000421 	subs	w1, w1, #0x1
    401107b4:	aa0503e3 	mov	x3, x5
    401107b8:	f8207a65 	str	x5, [x19, x0, lsl #3]
    401107bc:	54fffee1 	b.ne	0x40110798  // b.any
    401107c0:	17ffffed 	b	0x40110774
    401107c4:	0b0a016a 	add	w10, w11, w10
    401107c8:	4b0c014a 	sub	w10, w10, w12
    401107cc:	b9032f4a 	str	w10, [x26, #812]
    401107d0:	17ffff68 	b	0x40110570
    401107d4:	f0000048 	adrp	x8, 0x4011b000
    401107d8:	52800ae9 	mov	w9, #0x57                  	// #87
    401107dc:	f901a37c 	str	x28, [x27, #832]
    401107e0:	b9033109 	str	w9, [x8, #816]
    401107e4:	1400000e 	b	0x4011081c
    401107e8:	39400808 	ldrb	w8, [x0, #2]
    401107ec:	7100e91f 	cmp	w8, #0x3a
    401107f0:	54fff9a0 	b.eq	0x40110724  // b.none
    401107f4:	b9832f48 	ldrsw	x8, [x26, #812]
    401107f8:	91000508 	add	x8, x8, #0x1
    401107fc:	6b15011f 	cmp	w8, w21
    40110800:	b9032f48 	str	w8, [x26, #812]
    40110804:	5400006a 	b.ge	0x40110810  // b.tcont
    40110808:	f8687a68 	ldr	x8, [x19, x8, lsl #3]
    4011080c:	17ffffc5 	b	0x40110720
    40110810:	f0000048 	adrp	x8, 0x4011b000
    40110814:	f901a37c 	str	x28, [x27, #832]
    40110818:	b9033119 	str	w25, [x8, #816]
    4011081c:	39400288 	ldrb	w8, [x20]
    40110820:	528007e9 	mov	w9, #0x3f                  	// #63
    40110824:	7100e91f 	cmp	w8, #0x3a
    40110828:	1a890119 	csel	w25, w8, w9, eq  // eq = none
    4011082c:	17ffffa5 	b	0x401106c0
    40110830:	52800025 	mov	w5, #0x1                   	// #1
    40110834:	17fffe7d 	b	0x40110228
    40110838:	528000a5 	mov	w5, #0x5                   	// #5
    4011083c:	17fffe7b 	b	0x40110228
    40110840:	d10203ff 	sub	sp, sp, #0x80
    40110844:	a9027bfd 	stp	x29, x30, [sp, #32]
    40110848:	a9036ffc 	stp	x28, x27, [sp, #48]
    4011084c:	a90467fa 	stp	x26, x25, [sp, #64]
    40110850:	a9055ff8 	stp	x24, x23, [sp, #80]
    40110854:	a90657f6 	stp	x22, x21, [sp, #96]
    40110858:	a9074ff4 	stp	x20, x19, [sp, #112]
    4011085c:	910083fd 	add	x29, sp, #0x20
    40110860:	f0000053 	adrp	x19, 0x4011b000
    40110864:	f0000049 	adrp	x9, 0x4011b000
    40110868:	b9432e68 	ldr	w8, [x19, #812]
    4011086c:	f941a139 	ldr	x25, [x9, #832]
    40110870:	aa0103f5 	mov	x21, x1
    40110874:	aa0003fb 	mov	x27, x0
    40110878:	11000508 	add	w8, w8, #0x1
    4011087c:	528007a1 	mov	w1, #0x3d                  	// #61
    40110880:	aa1903e0 	mov	x0, x25
    40110884:	2a0503f8 	mov	w24, w5
    40110888:	2a0403f7 	mov	w23, w4
    4011088c:	aa0303f6 	mov	x22, x3
    40110890:	aa0203f4 	mov	x20, x2
    40110894:	b9032e68 	str	w8, [x19, #812]
    40110898:	97fffa8b 	bl	0x4010f2c4
    4011089c:	b40000e0 	cbz	x0, 0x401108b8
    401108a0:	91000408 	add	x8, x0, #0x1
    401108a4:	cb19001a 	sub	x26, x0, x25
    401108a8:	f81f83a8 	stur	x8, [x29, #-8]
    401108ac:	f9400281 	ldr	x1, [x20]
    401108b0:	b5000101 	cbnz	x1, 0x401108d0
    401108b4:	1400003c 	b	0x401109a4
    401108b8:	aa1903e0 	mov	x0, x25
    401108bc:	97fff9ed 	bl	0x4010f070
    401108c0:	aa0003fa 	mov	x26, x0
    401108c4:	f81f83bf 	stur	xzr, [x29, #-8]
    401108c8:	f9400281 	ldr	x1, [x20]
    401108cc:	b40006c1 	cbz	x1, 0x401109a4
    401108d0:	710002ff 	cmp	w23, #0x0
    401108d4:	1a9f07e8 	cset	w8, ne  // ne = any
    401108d8:	f100075f 	cmp	x26, #0x1
    401108dc:	1a9f17e9 	cset	w9, eq  // eq = none
    401108e0:	a9005bfb 	stp	x27, x22, [sp]
    401108e4:	f9000bf5 	str	x21, [sp, #16]
    401108e8:	2a1f03f6 	mov	w22, wzr
    401108ec:	2a1f03f5 	mov	w21, wzr
    401108f0:	9100429b 	add	x27, x20, #0x10
    401108f4:	0a090113 	and	w19, w8, w9
    401108f8:	1280001c 	mov	w28, #0xffffffff            	// #-1
    401108fc:	14000006 	b	0x40110914
    40110900:	52800035 	mov	w21, #0x1                   	// #1
    40110904:	f9400b61 	ldr	x1, [x27, #16]
    40110908:	110006d6 	add	w22, w22, #0x1
    4011090c:	9100837b 	add	x27, x27, #0x20
    40110910:	b40003e1 	cbz	x1, 0x4011098c
    40110914:	aa1903e0 	mov	x0, x25
    40110918:	aa1a03e2 	mov	x2, x26
    4011091c:	97fffa21 	bl	0x4010f1a0
    40110920:	35ffff20 	cbnz	w0, 0x40110904
    40110924:	f85f0360 	ldur	x0, [x27, #-16]
    40110928:	97fff9d2 	bl	0x4010f070
    4011092c:	eb1a001f 	cmp	x0, x26
    40110930:	540004e0 	b.eq	0x401109cc  // b.none
    40110934:	3707fe93 	tbnz	w19, #0, 0x40110904
    40110938:	3100079f 	cmn	w28, #0x1
    4011093c:	54000240 	b.eq	0x40110984  // b.none
    40110940:	3717fe18 	tbnz	w24, #2, 0x40110900
    40110944:	93407f88 	sxtw	x8, w28
    40110948:	8b081689 	add	x9, x20, x8, lsl #5
    4011094c:	b85f836a 	ldur	w10, [x27, #-8]
    40110950:	b940092b 	ldr	w11, [x9, #8]
    40110954:	6b0b015f 	cmp	w10, w11
    40110958:	54fffd41 	b.ne	0x40110900  // b.any
    4011095c:	f940036a 	ldr	x10, [x27]
    40110960:	f9400929 	ldr	x9, [x9, #16]
    40110964:	eb09015f 	cmp	x10, x9
    40110968:	54fffcc1 	b.ne	0x40110900  // b.any
    4011096c:	8b081688 	add	x8, x20, x8, lsl #5
    40110970:	b9400b69 	ldr	w9, [x27, #8]
    40110974:	b9401908 	ldr	w8, [x8, #24]
    40110978:	6b08013f 	cmp	w9, w8
    4011097c:	54fffc21 	b.ne	0x40110900  // b.any
    40110980:	17ffffe1 	b	0x40110904
    40110984:	2a1603fc 	mov	w28, w22
    40110988:	17ffffdf 	b	0x40110904
    4011098c:	35000195 	cbnz	w21, 0x401109bc
    40110990:	a940b3ed 	ldp	x13, x12, [sp, #8]
    40110994:	f94003ee 	ldr	x14, [sp]
    40110998:	3100079f 	cmn	w28, #0x1
    4011099c:	f0000053 	adrp	x19, 0x4011b000
    401109a0:	540001e1 	b.ne	0x401109dc  // b.any
    401109a4:	340000d7 	cbz	w23, 0x401109bc
    401109a8:	b9432e68 	ldr	w8, [x19, #812]
    401109ac:	12800000 	mov	w0, #0xffffffff            	// #-1
    401109b0:	51000508 	sub	w8, w8, #0x1
    401109b4:	b9032e68 	str	w8, [x19, #812]
    401109b8:	14000048 	b	0x40110ad8
    401109bc:	f0000048 	adrp	x8, 0x4011b000
    401109c0:	b903311f 	str	wzr, [x8, #816]
    401109c4:	528007e0 	mov	w0, #0x3f                  	// #63
    401109c8:	14000044 	b	0x40110ad8
    401109cc:	a940b3ed 	ldp	x13, x12, [sp, #8]
    401109d0:	f94003ee 	ldr	x14, [sp]
    401109d4:	2a1603fc 	mov	w28, w22
    401109d8:	f0000053 	adrp	x19, 0x4011b000
    401109dc:	93407f88 	sxtw	x8, w28
    401109e0:	8b081689 	add	x9, x20, x8, lsl #5
    401109e4:	b8408d2a 	ldr	w10, [x9, #8]!
    401109e8:	f85f83af 	ldur	x15, [x29, #-8]
    401109ec:	b40000ef 	cbz	x15, 0x40110a08
    401109f0:	350000ca 	cbnz	w10, 0x40110a08
    401109f4:	8b081688 	add	x8, x20, x8, lsl #5
    401109f8:	f9400909 	ldr	x9, [x8, #16]
    401109fc:	b4000189 	cbz	x9, 0x40110a2c
    40110a00:	2a1f03e8 	mov	w8, wzr
    40110a04:	1400000b 	b	0x40110a30
    40110a08:	5100054b 	sub	w11, w10, #0x1
    40110a0c:	7100057f 	cmp	w11, #0x1
    40110a10:	540003e8 	b.hi	0x40110a8c  // b.pmore
    40110a14:	b400016f 	cbz	x15, 0x40110a40
    40110a18:	90000169 	adrp	x9, 0x4013c000
    40110a1c:	f901dd2f 	str	x15, [x9, #952]
    40110a20:	7100055f 	cmp	w10, #0x1
    40110a24:	54000240 	b.eq	0x40110a6c  // b.none
    40110a28:	14000019 	b	0x40110a8c
    40110a2c:	b9401908 	ldr	w8, [x8, #24]
    40110a30:	f0000049 	adrp	x9, 0x4011b000
    40110a34:	b9033128 	str	w8, [x9, #816]
    40110a38:	528007e0 	mov	w0, #0x3f                  	// #63
    40110a3c:	14000027 	b	0x40110ad8
    40110a40:	7100055f 	cmp	w10, #0x1
    40110a44:	54000241 	b.ne	0x40110a8c  // b.any
    40110a48:	b9832e6a 	ldrsw	x10, [x19, #812]
    40110a4c:	1100054b 	add	w11, w10, #0x1
    40110a50:	b9032e6b 	str	w11, [x19, #812]
    40110a54:	f86a79ca 	ldr	x10, [x14, x10, lsl #3]
    40110a58:	9000016b 	adrp	x11, 0x4013c000
    40110a5c:	f901dd6a 	str	x10, [x11, #952]
    40110a60:	b940012a 	ldr	w10, [x9]
    40110a64:	7100055f 	cmp	w10, #0x1
    40110a68:	54000121 	b.ne	0x40110a8c  // b.any
    40110a6c:	90000169 	adrp	x9, 0x4013c000
    40110a70:	f941dd29 	ldr	x9, [x9, #952]
    40110a74:	b50000c9 	cbnz	x9, 0x40110a8c
    40110a78:	8b081688 	add	x8, x20, x8, lsl #5
    40110a7c:	f9400909 	ldr	x9, [x8, #16]
    40110a80:	b4000189 	cbz	x9, 0x40110ab0
    40110a84:	2a1f03e8 	mov	w8, wzr
    40110a88:	1400000b 	b	0x40110ab4
    40110a8c:	b400004d 	cbz	x13, 0x40110a94
    40110a90:	b90001bc 	str	w28, [x13]
    40110a94:	8b081689 	add	x9, x20, x8, lsl #5
    40110a98:	f9400928 	ldr	x8, [x9, #16]
    40110a9c:	b9401920 	ldr	w0, [x9, #24]
    40110aa0:	b40001c8 	cbz	x8, 0x40110ad8
    40110aa4:	b9000100 	str	w0, [x8]
    40110aa8:	2a1f03e0 	mov	w0, wzr
    40110aac:	1400000b 	b	0x40110ad8
    40110ab0:	b9401908 	ldr	w8, [x8, #24]
    40110ab4:	b9432e69 	ldr	w9, [x19, #812]
    40110ab8:	f000004a 	adrp	x10, 0x4011b000
    40110abc:	b9033148 	str	w8, [x10, #816]
    40110ac0:	51000528 	sub	w8, w9, #0x1
    40110ac4:	b9032e68 	str	w8, [x19, #812]
    40110ac8:	39400188 	ldrb	w8, [x12]
    40110acc:	528007e9 	mov	w9, #0x3f                  	// #63
    40110ad0:	7100e91f 	cmp	w8, #0x3a
    40110ad4:	1a890100 	csel	w0, w8, w9, eq  // eq = none
    40110ad8:	a9474ff4 	ldp	x20, x19, [sp, #112]
    40110adc:	a94657f6 	ldp	x22, x21, [sp, #96]
    40110ae0:	a9455ff8 	ldp	x24, x23, [sp, #80]
    40110ae4:	a94467fa 	ldp	x26, x25, [sp, #64]
    40110ae8:	a9436ffc 	ldp	x28, x27, [sp, #48]
    40110aec:	a9427bfd 	ldp	x29, x30, [sp, #32]
    40110af0:	910203ff 	add	sp, sp, #0x80
    40110af4:	d65f03c0 	ret
    40110af8:	d10703ff 	sub	sp, sp, #0x1c0
    40110afc:	a9167bfd 	stp	x29, x30, [sp, #352]
    40110b00:	a9176ffc 	stp	x28, x27, [sp, #368]
    40110b04:	a91867fa 	stp	x26, x25, [sp, #384]
    40110b08:	a9195ff8 	stp	x24, x23, [sp, #400]
    40110b0c:	a91a57f6 	stp	x22, x21, [sp, #416]
    40110b10:	a91b4ff4 	stp	x20, x19, [sp, #432]
    40110b14:	910583fd 	add	x29, sp, #0x160
    40110b18:	aa0203f5 	mov	x21, x2
    40110b1c:	aa0103f6 	mov	x22, x1
    40110b20:	aa0003f7 	mov	x23, x0
    40110b24:	97fff953 	bl	0x4010f070
    40110b28:	394002ca 	ldrb	w10, [x22]
    40110b2c:	3400036a 	cbz	w10, 0x40110b98
    40110b30:	910163f4 	add	x20, sp, #0x58
    40110b34:	90000044 	adrp	x4, 0x40118000
    40110b38:	90000041 	adrp	x1, 0x40118000
    40110b3c:	90000047 	adrp	x7, 0x40118000
    40110b40:	9000005c 	adrp	x28, 0x40118000
    40110b44:	90000053 	adrp	x19, 0x40118000
    40110b48:	aa0003f8 	mov	x24, x0
    40110b4c:	2a1f03e2 	mov	w2, wzr
    40110b50:	2a1f03fb 	mov	w27, wzr
    40110b54:	2a1f03f2 	mov	w18, wzr
    40110b58:	2a1f03e0 	mov	w0, wzr
    40110b5c:	910062a8 	add	x8, x21, #0x18
    40110b60:	910ca084 	add	x4, x4, #0x328
    40110b64:	911f7821 	add	x1, x1, #0x7de
    40110b68:	52805803 	mov	w3, #0x2c0                 	// #704
    40110b6c:	528003e5 	mov	w5, #0x1f                  	// #31
    40110b70:	9100e3e6 	add	x6, sp, #0x38
    40110b74:	911f88e7 	add	x7, x7, #0x7e2
    40110b78:	9120c39c 	add	x28, x28, #0x830
    40110b7c:	911e2a73 	add	x19, x19, #0x78a
    40110b80:	5280015e 	mov	w30, #0xa                   	// #10
    40110b84:	b27f0299 	orr	x25, x20, #0x2
    40110b88:	b240029a 	orr	x26, x20, #0x1
    40110b8c:	a902ffe8 	stp	x8, xzr, [sp, #40]
    40110b90:	a901d7f9 	stp	x25, x21, [sp, #24]
    40110b94:	1400000b 	b	0x40110bc0
    40110b98:	2a1f03e0 	mov	w0, wzr
    40110b9c:	140002e2 	b	0x40111724
    40110ba0:	8b0902f7 	add	x23, x23, x9
    40110ba4:	2a1803e8 	mov	w8, w24
    40110ba8:	2a0903ea 	mov	w10, w9
    40110bac:	0b1b015b 	add	w27, w10, w27
    40110bb0:	11000652 	add	w18, w18, #0x1
    40110bb4:	2a0803f8 	mov	w24, w8
    40110bb8:	394002ca 	ldrb	w10, [x22]
    40110bbc:	34005b4a 	cbz	w10, 0x40111724
    40110bc0:	93407f6b 	sxtw	x11, w27
    40110bc4:	92401d48 	and	x8, x10, #0xff
    40110bc8:	38686888 	ldrb	w8, [x4, x8]
    40110bcc:	910006d6 	add	x22, x22, #0x1
    40110bd0:	37283c68 	tbnz	w8, #5, 0x4011135c
    40110bd4:	12001d48 	and	w8, w10, #0xff
    40110bd8:	7100951f 	cmp	w8, #0x25
    40110bdc:	54000e81 	b.ne	0x40110dac  // b.any
    40110be0:	aa1f03e9 	mov	x9, xzr
    40110be4:	2a1f03e8 	mov	w8, wzr
    40110be8:	14000006 	b	0x40110c00
    40110bec:	121d790a 	and	w10, w8, #0xfffffffb
    40110bf0:	321e010c 	orr	w12, w8, #0x4
    40110bf4:	3212014a 	orr	w10, w10, #0x4000
    40110bf8:	721e011f 	tst	w8, #0x4
    40110bfc:	1a8a0188 	csel	w8, w12, w10, eq  // eq = none
    40110c00:	910006d6 	add	x22, x22, #0x1
    40110c04:	385ff2ca 	ldurb	w10, [x22, #-1]
    40110c08:	5100954c 	sub	w12, w10, #0x25
    40110c0c:	71014d9f 	cmp	w12, #0x53
    40110c10:	540012e8 	b.hi	0x40110e6c  // b.pmore
    40110c14:	10fffecd 	adr	x13, 0x40110bec
    40110c18:	386c6a6e 	ldrb	w14, [x19, x12]
    40110c1c:	8b0e09ad 	add	x13, x13, x14, lsl #2
    40110c20:	d61f01a0 	br	x13
    40110c24:	321d0108 	orr	w8, w8, #0x8
    40110c28:	17fffff6 	b	0x40110c00
    40110c2c:	121f790a 	and	w10, w8, #0xfffffffe
    40110c30:	3200010c 	orr	w12, w8, #0x1
    40110c34:	3216014a 	orr	w10, w10, #0x400
    40110c38:	7200011f 	tst	w8, #0x1
    40110c3c:	1a8a0188 	csel	w8, w12, w10, eq  // eq = none
    40110c40:	17fffff0 	b	0x40110c00
    40110c44:	32160108 	orr	w8, w8, #0x400
    40110c48:	17ffffee 	b	0x40110c00
    40110c4c:	9b1e2929 	madd	x9, x9, x30, x10
    40110c50:	d100c129 	sub	x9, x9, #0x30
    40110c54:	17ffffeb 	b	0x40110c00
    40110c58:	11000652 	add	w18, w18, #0x1
    40110c5c:	37180a28 	tbnz	w8, #3, 0x40110da0
    40110c60:	377001e8 	tbnz	w8, #14, 0x40110c9c
    40110c64:	371003e8 	tbnz	w8, #2, 0x40110ce0
    40110c68:	370005e8 	tbnz	w8, #0, 0x40110d24
    40110c6c:	f94017e9 	ldr	x9, [sp, #40]
    40110c70:	b9800129 	ldrsw	x9, [x9]
    40110c74:	375006e8 	tbnz	w8, #10, 0x40110d50
    40110c78:	36f808a9 	tbz	w9, #31, 0x40110d8c
    40110c7c:	f94017ea 	ldr	x10, [sp, #40]
    40110c80:	11002128 	add	w8, w9, #0x8
    40110c84:	3100213f 	cmn	w9, #0x8
    40110c88:	b9000148 	str	w8, [x10]
    40110c8c:	5400080c 	b.gt	0x40110d8c
    40110c90:	f94006a8 	ldr	x8, [x21, #8]
    40110c94:	8b090108 	add	x8, x8, x9
    40110c98:	14000040 	b	0x40110d98
    40110c9c:	f94017e8 	ldr	x8, [sp, #40]
    40110ca0:	b9800108 	ldrsw	x8, [x8]
    40110ca4:	36f80128 	tbz	w8, #31, 0x40110cc8
    40110ca8:	f94017ea 	ldr	x10, [sp, #40]
    40110cac:	11002109 	add	w9, w8, #0x8
    40110cb0:	3100211f 	cmn	w8, #0x8
    40110cb4:	b9000149 	str	w9, [x10]
    40110cb8:	5400008c 	b.gt	0x40110cc8
    40110cbc:	f94006a9 	ldr	x9, [x21, #8]
    40110cc0:	8b080128 	add	x8, x9, x8
    40110cc4:	14000004 	b	0x40110cd4
    40110cc8:	f94002a8 	ldr	x8, [x21]
    40110ccc:	91002109 	add	x9, x8, #0x8
    40110cd0:	f90002a9 	str	x9, [x21]
    40110cd4:	f9400108 	ldr	x8, [x8]
    40110cd8:	3900011b 	strb	w27, [x8]
    40110cdc:	14000031 	b	0x40110da0
    40110ce0:	f94017e8 	ldr	x8, [sp, #40]
    40110ce4:	b9800108 	ldrsw	x8, [x8]
    40110ce8:	36f80128 	tbz	w8, #31, 0x40110d0c
    40110cec:	f94017ea 	ldr	x10, [sp, #40]
    40110cf0:	11002109 	add	w9, w8, #0x8
    40110cf4:	3100211f 	cmn	w8, #0x8
    40110cf8:	b9000149 	str	w9, [x10]
    40110cfc:	5400008c 	b.gt	0x40110d0c
    40110d00:	f94006a9 	ldr	x9, [x21, #8]
    40110d04:	8b080128 	add	x8, x9, x8
    40110d08:	14000004 	b	0x40110d18
    40110d0c:	f94002a8 	ldr	x8, [x21]
    40110d10:	91002109 	add	x9, x8, #0x8
    40110d14:	f90002a9 	str	x9, [x21]
    40110d18:	f9400108 	ldr	x8, [x8]
    40110d1c:	7900011b 	strh	w27, [x8]
    40110d20:	14000020 	b	0x40110da0
    40110d24:	f94017e8 	ldr	x8, [sp, #40]
    40110d28:	b9800108 	ldrsw	x8, [x8]
    40110d2c:	36f80248 	tbz	w8, #31, 0x40110d74
    40110d30:	f94017ea 	ldr	x10, [sp, #40]
    40110d34:	11002109 	add	w9, w8, #0x8
    40110d38:	3100211f 	cmn	w8, #0x8
    40110d3c:	b9000149 	str	w9, [x10]
    40110d40:	540001ac 	b.gt	0x40110d74
    40110d44:	f94006a9 	ldr	x9, [x21, #8]
    40110d48:	8b080128 	add	x8, x9, x8
    40110d4c:	1400000d 	b	0x40110d80
    40110d50:	36f80129 	tbz	w9, #31, 0x40110d74
    40110d54:	f94017ea 	ldr	x10, [sp, #40]
    40110d58:	11002128 	add	w8, w9, #0x8
    40110d5c:	3100213f 	cmn	w9, #0x8
    40110d60:	b9000148 	str	w8, [x10]
    40110d64:	5400008c 	b.gt	0x40110d74
    40110d68:	f94006a8 	ldr	x8, [x21, #8]
    40110d6c:	8b090108 	add	x8, x8, x9
    40110d70:	14000004 	b	0x40110d80
    40110d74:	f94002a8 	ldr	x8, [x21]
    40110d78:	91002109 	add	x9, x8, #0x8
    40110d7c:	f90002a9 	str	x9, [x21]
    40110d80:	f9400108 	ldr	x8, [x8]
    40110d84:	f900010b 	str	x11, [x8]
    40110d88:	14000006 	b	0x40110da0
    40110d8c:	f94002a8 	ldr	x8, [x21]
    40110d90:	91002109 	add	x9, x8, #0x8
    40110d94:	f90002a9 	str	x9, [x21]
    40110d98:	f9400108 	ldr	x8, [x8]
    40110d9c:	b900011b 	str	w27, [x8]
    40110da0:	394002ca 	ldrb	w10, [x22]
    40110da4:	35fff10a 	cbnz	w10, 0x40110bc4
    40110da8:	1400025f 	b	0x40111724
    40110dac:	71000718 	subs	w24, w24, #0x1
    40110db0:	54004b6b 	b.lt	0x4011171c  // b.tstop
    40110db4:	394002e8 	ldrb	w8, [x23]
    40110db8:	6b2a011f 	cmp	w8, w10, uxtb
    40110dbc:	54004b41 	b.ne	0x40111724  // b.any
    40110dc0:	910006f7 	add	x23, x23, #0x1
    40110dc4:	1100077b 	add	w27, w27, #0x1
    40110dc8:	17ffff7c 	b	0x40110bb8
    40110dcc:	aa1603eb 	mov	x11, x22
    40110dd0:	3840156c 	ldrb	w12, [x11], #1
    40110dd4:	7101799f 	cmp	w12, #0x5e
    40110dd8:	540023c1 	b.ne	0x40111250  // b.any
    40110ddc:	394006cc 	ldrb	w12, [x22, #1]
    40110de0:	91000ad6 	add	x22, x22, #0x2
    40110de4:	5280002a 	mov	w10, #0x1                   	// #1
    40110de8:	1400011c 	b	0x40111258
    40110dec:	2a1f03ea 	mov	w10, wzr
    40110df0:	321b0108 	orr	w8, w8, #0x20
    40110df4:	7100071f 	cmp	w24, #0x1
    40110df8:	540003ea 	b.ge	0x40110e74  // b.tcont
    40110dfc:	14000248 	b	0x4011171c
    40110e00:	52800142 	mov	w2, #0xa                   	// #10
    40110e04:	14000002 	b	0x40110e0c
    40110e08:	2a1f03e2 	mov	w2, wzr
    40110e0c:	d0ffffeb 	adrp	x11, 0x4010e000
    40110e10:	912b516b 	add	x11, x11, #0xad4
    40110e14:	5280006a 	mov	w10, #0x3                   	// #3
    40110e18:	f9001beb 	str	x11, [sp, #48]
    40110e1c:	7100071f 	cmp	w24, #0x1
    40110e20:	540002aa 	b.ge	0x40110e74  // b.tcont
    40110e24:	1400023e 	b	0x4011171c
    40110e28:	52800102 	mov	w2, #0x8                   	// #8
    40110e2c:	1400000c 	b	0x40110e5c
    40110e30:	5280220a 	mov	w10, #0x110                 	// #272
    40110e34:	2a0a0108 	orr	w8, w8, w10
    40110e38:	14000008 	b	0x40110e58
    40110e3c:	5280004a 	mov	w10, #0x2                   	// #2
    40110e40:	7100071f 	cmp	w24, #0x1
    40110e44:	5400018a 	b.ge	0x40110e74  // b.tcont
    40110e48:	14000235 	b	0x4011171c
    40110e4c:	52800142 	mov	w2, #0xa                   	// #10
    40110e50:	14000003 	b	0x40110e5c
    40110e54:	32180108 	orr	w8, w8, #0x100
    40110e58:	52800202 	mov	w2, #0x10                  	// #16
    40110e5c:	d0ffffeb 	adrp	x11, 0x4010e000
    40110e60:	9133416b 	add	x11, x11, #0xcd0
    40110e64:	5280006a 	mov	w10, #0x3                   	// #3
    40110e68:	f9001beb 	str	x11, [sp, #48]
    40110e6c:	7100071f 	cmp	w24, #0x1
    40110e70:	5400456b 	b.lt	0x4011171c  // b.tstop
    40110e74:	37280168 	tbnz	w8, #5, 0x40110ea0
    40110e78:	394002eb 	ldrb	w11, [x23]
    40110e7c:	386b688b 	ldrb	w11, [x4, x11]
    40110e80:	3628010b 	tbz	w11, #5, 0x40110ea0
    40110e84:	71000b1f 	cmp	w24, #0x2
    40110e88:	540044ab 	b.lt	0x4011171c  // b.tstop
    40110e8c:	38401eeb 	ldrb	w11, [x23, #1]!
    40110e90:	51000718 	sub	w24, w24, #0x1
    40110e94:	1100077b 	add	w27, w27, #0x1
    40110e98:	386b688b 	ldrb	w11, [x4, x11]
    40110e9c:	372fff4b 	tbnz	w11, #5, 0x40110e84
    40110ea0:	71000d5f 	cmp	w10, #0x3
    40110ea4:	54ffe8a8 	b.hi	0x40110bb8  // b.pmore
    40110ea8:	1000008b 	adr	x11, 0x40110eb8
    40110eac:	386a682c 	ldrb	w12, [x1, x10]
    40110eb0:	8b0c096b 	add	x11, x11, x12, lsl #2
    40110eb4:	d61f0160 	br	x11
    40110eb8:	f100013f 	cmp	x9, #0x0
    40110ebc:	9a9f1539 	csinc	x25, x9, xzr, ne  // ne = any
    40110ec0:	37180d48 	tbnz	w8, #3, 0x40111068
    40110ec4:	f94017e8 	ldr	x8, [sp, #40]
    40110ec8:	f9000be2 	str	x2, [sp, #16]
    40110ecc:	b9800108 	ldrsw	x8, [x8]
    40110ed0:	36f81168 	tbz	w8, #31, 0x401110fc
    40110ed4:	f94017ea 	ldr	x10, [sp, #40]
    40110ed8:	11002109 	add	w9, w8, #0x8
    40110edc:	3100211f 	cmn	w8, #0x8
    40110ee0:	b9000149 	str	w9, [x10]
    40110ee4:	540010cc 	b.gt	0x401110fc
    40110ee8:	f94013e9 	ldr	x9, [sp, #32]
    40110eec:	2a1203fc 	mov	w28, w18
    40110ef0:	2a0003f5 	mov	w21, w0
    40110ef4:	f9400529 	ldr	x9, [x9, #8]
    40110ef8:	8b080128 	add	x8, x9, x8
    40110efc:	14000086 	b	0x40111114
    40110f00:	f100013f 	cmp	x9, #0x0
    40110f04:	da9f112b 	csinv	x11, x9, xzr, ne  // ne = any
    40110f08:	37180bc8 	tbnz	w8, #3, 0x40111080
    40110f0c:	f94017e8 	ldr	x8, [sp, #40]
    40110f10:	b9800108 	ldrsw	x8, [x8]
    40110f14:	36f813c8 	tbz	w8, #31, 0x4011118c
    40110f18:	f94017ea 	ldr	x10, [sp, #40]
    40110f1c:	11002109 	add	w9, w8, #0x8
    40110f20:	3100211f 	cmn	w8, #0x8
    40110f24:	b9000149 	str	w9, [x10]
    40110f28:	5400132c 	b.gt	0x4011118c
    40110f2c:	f94006a9 	ldr	x9, [x21, #8]
    40110f30:	8b080128 	add	x8, x9, x8
    40110f34:	14000099 	b	0x40111198
    40110f38:	f100013f 	cmp	x9, #0x0
    40110f3c:	da9f112b 	csinv	x11, x9, xzr, ne  // ne = any
    40110f40:	37180c08 	tbnz	w8, #3, 0x401110c0
    40110f44:	f94017e8 	ldr	x8, [sp, #40]
    40110f48:	b9800108 	ldrsw	x8, [x8]
    40110f4c:	36f81508 	tbz	w8, #31, 0x401111ec
    40110f50:	f94017ea 	ldr	x10, [sp, #40]
    40110f54:	11002109 	add	w9, w8, #0x8
    40110f58:	3100211f 	cmn	w8, #0x8
    40110f5c:	b9000149 	str	w9, [x10]
    40110f60:	5400146c 	b.gt	0x401111ec
    40110f64:	f94006a9 	ldr	x9, [x21, #8]
    40110f68:	8b080128 	add	x8, x9, x8
    40110f6c:	140000a3 	b	0x401111f8
    40110f70:	d100052a 	sub	x10, x9, #0x1
    40110f74:	f100795f 	cmp	x10, #0x1e
    40110f78:	9a85312a 	csel	x10, x9, x5, cc  // cc = lo, ul, last
    40110f7c:	2a030119 	orr	w25, w8, w3
    40110f80:	b400160a 	cbz	x10, 0x40111240
    40110f84:	aa1f03ed 	mov	x13, xzr
    40110f88:	4b0a030b 	sub	w11, w24, w10
    40110f8c:	aa1703e8 	mov	x8, x23
    40110f90:	386d6aec 	ldrb	w12, [x23, x13]
    40110f94:	aa0d03e9 	mov	x9, x13
    40110f98:	5100ad8d 	sub	w13, w12, #0x2b
    40110f9c:	710135bf 	cmp	w13, #0x4d
    40110fa0:	54002068 	b.hi	0x401113ac  // b.pmore
    40110fa4:	1000008e 	adr	x14, 0x40110fb4
    40110fa8:	386d68ef 	ldrb	w15, [x7, x13]
    40110fac:	8b0f09ce 	add	x14, x14, x15, lsl #2
    40110fb0:	d61f01c0 	br	x14
    40110fb4:	71002c5f 	cmp	w2, #0xb
    40110fb8:	5400300b 	b.lt	0x401115b8  // b.tstop
    40110fbc:	12177339 	and	w25, w25, #0xfffffe3f
    40110fc0:	1400001d 	b	0x40111034
    40110fc4:	78e2db82 	ldrsh	w2, [x28, w2, sxtw #1]
    40110fc8:	12177339 	and	w25, w25, #0xfffffe3f
    40110fcc:	1400001a 	b	0x40111034
    40110fd0:	36301ef9 	tbz	w25, #6, 0x401113ac
    40110fd4:	12197b39 	and	w25, w25, #0xffffffbf
    40110fd8:	14000017 	b	0x40111034
    40110fdc:	93407c4d 	sxtw	x13, w2
    40110fe0:	78e2db82 	ldrsh	w2, [x28, w2, sxtw #1]
    40110fe4:	d10005ad 	sub	x13, x13, #0x1
    40110fe8:	f10021bf 	cmp	x13, #0x8
    40110fec:	54fffe82 	b.cs	0x40110fbc  // b.hs, b.nlast
    40110ff0:	14000172 	b	0x401115b8
    40110ff4:	f100053f 	cmp	x9, #0x1
    40110ff8:	54001da1 	b.ne	0x401113ac  // b.any
    40110ffc:	36401d99 	tbz	w25, #8, 0x401113ac
    40111000:	12177b39 	and	w25, w25, #0xfffffeff
    40111004:	52800202 	mov	w2, #0x10                  	// #16
    40111008:	1400000b 	b	0x40111034
    4011100c:	3218032d 	orr	w13, w25, #0x100
    40111010:	7100005f 	cmp	w2, #0x0
    40111014:	5280010e 	mov	w14, #0x8                   	// #8
    40111018:	1a9901ad 	csel	w13, w13, w25, eq  // eq = none
    4011101c:	1a8201c2 	csel	w2, w14, w2, eq  // eq = none
    40111020:	3748006d 	tbnz	w13, #9, 0x4011102c
    40111024:	121771b9 	and	w25, w13, #0xfffffe3f
    40111028:	14000003 	b	0x40111034
    4011102c:	1280580e 	mov	w14, #0xfffffd3f            	// #-705
    40111030:	0a0e01b9 	and	w25, w13, w14
    40111034:	9100052d 	add	x13, x9, #0x1
    40111038:	382968cc 	strb	w12, [x6, x9]
    4011103c:	71000b1f 	cmp	w24, #0x2
    40111040:	5100070c 	sub	w12, w24, #0x1
    40111044:	54001b0b 	b.lt	0x401113a4  // b.tstop
    40111048:	eb0d015f 	cmp	x10, x13
    4011104c:	91000508 	add	x8, x8, #0x1
    40111050:	2a0c03f8 	mov	w24, w12
    40111054:	54fff9e1 	b.ne	0x40110f90  // b.any
    40111058:	91000529 	add	x9, x9, #0x1
    4011105c:	2a0b03f8 	mov	w24, w11
    40111060:	36381a99 	tbz	w25, #7, 0x401113b0
    40111064:	140001b0 	b	0x40111724
    40111068:	2a1803e8 	mov	w8, w24
    4011106c:	6b19031f 	cmp	w24, w25
    40111070:	9a99b109 	csel	x9, x8, x25, lt  // lt = tstop
    40111074:	1a99b3e8 	csel	w8, wzr, w25, lt  // lt = tstop
    40111078:	aa0903f9 	mov	x25, x9
    4011107c:	1400003e 	b	0x40111174
    40111080:	aa1f03ea 	mov	x10, xzr
    40111084:	d100056b 	sub	x11, x11, #0x1
    40111088:	386a6ae8 	ldrb	w8, [x23, x10]
    4011108c:	38686a88 	ldrb	w8, [x20, x8]
    40111090:	34001508 	cbz	w8, 0x40111330
    40111094:	51000708 	sub	w8, w24, #0x1
    40111098:	71000b1f 	cmp	w24, #0x2
    4011109c:	91000549 	add	x9, x10, #0x1
    401110a0:	540000ab 	b.lt	0x401110b4  // b.tstop
    401110a4:	eb0a017f 	cmp	x11, x10
    401110a8:	aa0903ea 	mov	x10, x9
    401110ac:	2a0803f8 	mov	w24, w8
    401110b0:	54fffec1 	b.ne	0x40111088  // b.any
    401110b4:	8b0902f7 	add	x23, x23, x9
    401110b8:	0b1b013b 	add	w27, w9, w27
    401110bc:	17fffebd 	b	0x40110bb0
    401110c0:	aa1f03e9 	mov	x9, xzr
    401110c4:	d100056b 	sub	x11, x11, #0x1
    401110c8:	38696ae8 	ldrb	w8, [x23, x9]
    401110cc:	38686888 	ldrb	w8, [x4, x8]
    401110d0:	372fd688 	tbnz	w8, #5, 0x40110ba0
    401110d4:	51000708 	sub	w8, w24, #0x1
    401110d8:	71000b1f 	cmp	w24, #0x2
    401110dc:	9100052a 	add	x10, x9, #0x1
    401110e0:	540000ab 	b.lt	0x401110f4  // b.tstop
    401110e4:	eb09017f 	cmp	x11, x9
    401110e8:	aa0a03e9 	mov	x9, x10
    401110ec:	2a0803f8 	mov	w24, w8
    401110f0:	54fffec1 	b.ne	0x401110c8  // b.any
    401110f4:	8b0a02f7 	add	x23, x23, x10
    401110f8:	17fffead 	b	0x40110bac
    401110fc:	f94013ea 	ldr	x10, [sp, #32]
    40111100:	2a1203fc 	mov	w28, w18
    40111104:	2a0003f5 	mov	w21, w0
    40111108:	f9400148 	ldr	x8, [x10]
    4011110c:	91002109 	add	x9, x8, #0x8
    40111110:	f9000149 	str	x9, [x10]
    40111114:	f9400100 	ldr	x0, [x8]
    40111118:	aa1703e1 	mov	x1, x23
    4011111c:	aa1903e2 	mov	x2, x25
    40111120:	97fff7b7 	bl	0x4010effc
    40111124:	2a1503e0 	mov	w0, w21
    40111128:	110006a0 	add	w0, w21, #0x1
    4011112c:	f94013f5 	ldr	x21, [sp, #32]
    40111130:	f9400be2 	ldr	x2, [sp, #16]
    40111134:	2a1c03f2 	mov	w18, w28
    40111138:	f0000024 	adrp	x4, 0x40118000
    4011113c:	f0000021 	adrp	x1, 0x40118000
    40111140:	f0000027 	adrp	x7, 0x40118000
    40111144:	f000003c 	adrp	x28, 0x40118000
    40111148:	2a1903e8 	mov	w8, w25
    4011114c:	2a1903e9 	mov	w9, w25
    40111150:	910163f4 	add	x20, sp, #0x58
    40111154:	910ca084 	add	x4, x4, #0x328
    40111158:	911f7821 	add	x1, x1, #0x7de
    4011115c:	52805803 	mov	w3, #0x2c0                 	// #704
    40111160:	528003e5 	mov	w5, #0x1f                  	// #31
    40111164:	9100e3e6 	add	x6, sp, #0x38
    40111168:	911f88e7 	add	x7, x7, #0x7e2
    4011116c:	9120c39c 	add	x28, x28, #0x830
    40111170:	5280015e 	mov	w30, #0xa                   	// #10
    40111174:	8b1902f7 	add	x23, x23, x25
    40111178:	f9400ff9 	ldr	x25, [sp, #24]
    4011117c:	0b1b013b 	add	w27, w9, w27
    40111180:	4b080318 	sub	w24, w24, w8
    40111184:	11000652 	add	w18, w18, #0x1
    40111188:	17fffe8c 	b	0x40110bb8
    4011118c:	f94002a8 	ldr	x8, [x21]
    40111190:	91002109 	add	x9, x8, #0x8
    40111194:	f90002a9 	str	x9, [x21]
    40111198:	f9400108 	ldr	x8, [x8]
    4011119c:	aa1f03e9 	mov	x9, xzr
    401111a0:	4b0b030a 	sub	w10, w24, w11
    401111a4:	d100056b 	sub	x11, x11, #0x1
    401111a8:	38696aec 	ldrb	w12, [x23, x9]
    401111ac:	386c6a8d 	ldrb	w13, [x20, x12]
    401111b0:	3400014d 	cbz	w13, 0x401111d8
    401111b4:	eb09017f 	cmp	x11, x9
    401111b8:	3829690c 	strb	w12, [x8, x9]
    401111bc:	54001aa0 	b.eq	0x40111510  // b.none
    401111c0:	51000718 	sub	w24, w24, #0x1
    401111c4:	1100070c 	add	w12, w24, #0x1
    401111c8:	7100059f 	cmp	w12, #0x1
    401111cc:	91000529 	add	x9, x9, #0x1
    401111d0:	54fffecc 	b.gt	0x401111a8
    401111d4:	b4002a49 	cbz	x9, 0x4011171c
    401111d8:	8b0902f7 	add	x23, x23, x9
    401111dc:	8b09010b 	add	x11, x8, x9
    401111e0:	6b080169 	subs	w9, w11, w8
    401111e4:	54001a41 	b.ne	0x4011152c  // b.any
    401111e8:	1400014f 	b	0x40111724
    401111ec:	f94002a8 	ldr	x8, [x21]
    401111f0:	91002109 	add	x9, x8, #0x8
    401111f4:	f90002a9 	str	x9, [x21]
    401111f8:	f9400109 	ldr	x9, [x8]
    401111fc:	aa1f03ea 	mov	x10, xzr
    40111200:	d100056b 	sub	x11, x11, #0x1
    40111204:	386a6aec 	ldrb	w12, [x23, x10]
    40111208:	386c6888 	ldrb	w8, [x4, x12]
    4011120c:	372809a8 	tbnz	w8, #5, 0x40111340
    40111210:	51000708 	sub	w8, w24, #0x1
    40111214:	382a692c 	strb	w12, [x9, x10]
    40111218:	71000b1f 	cmp	w24, #0x2
    4011121c:	9100054c 	add	x12, x10, #0x1
    40111220:	540000ab 	b.lt	0x40111234  // b.tstop
    40111224:	eb0a017f 	cmp	x11, x10
    40111228:	aa0c03ea 	mov	x10, x12
    4011122c:	2a0803f8 	mov	w24, w8
    40111230:	54fffea1 	b.ne	0x40111204  // b.any
    40111234:	8b0c02f7 	add	x23, x23, x12
    40111238:	8b0c012a 	add	x10, x9, x12
    4011123c:	14000044 	b	0x4011134c
    40111240:	aa1f03e9 	mov	x9, xzr
    40111244:	aa1703e8 	mov	x8, x23
    40111248:	36380b59 	tbz	w25, #7, 0x401113b0
    4011124c:	14000136 	b	0x40111724
    40111250:	2a1f03ea 	mov	w10, wzr
    40111254:	aa0b03f6 	mov	x22, x11
    40111258:	aa1f03eb 	mov	x11, xzr
    4011125c:	8b0b028d 	add	x13, x20, x11
    40111260:	9100096b 	add	x11, x11, #0x2
    40111264:	f104017f 	cmp	x11, #0x100
    40111268:	390001aa 	strb	w10, [x13]
    4011126c:	390005aa 	strb	w10, [x13, #1]
    40111270:	54ffff61 	b.ne	0x4011125c  // b.any
    40111274:	3400088c 	cbz	w12, 0x40111384
    40111278:	5200014a 	eor	w10, w10, #0x1
    4011127c:	92401d8b 	and	x11, x12, #0xff
    40111280:	12001d8e 	and	w14, w12, #0xff
    40111284:	382b6a8a 	strb	w10, [x20, x11]
    40111288:	aa1603eb 	mov	x11, x22
    4011128c:	14000004 	b	0x4011129c
    40111290:	9100096b 	add	x11, x11, #0x2
    40111294:	2a0d03ee 	mov	w14, w13
    40111298:	aa0b03f6 	mov	x22, x11
    4011129c:	384016cc 	ldrb	w12, [x22], #1
    401112a0:	7100b59f 	cmp	w12, #0x2d
    401112a4:	540003e1 	b.ne	0x40111320  // b.any
    401112a8:	394002cd 	ldrb	w13, [x22]
    401112ac:	528005ac 	mov	w12, #0x2d                  	// #45
    401112b0:	710175bf 	cmp	w13, #0x5d
    401112b4:	54fffe40 	b.eq	0x4011127c  // b.none
    401112b8:	6b0d01df 	cmp	w14, w13
    401112bc:	54fffe08 	b.hi	0x4011127c  // b.pmore
    401112c0:	2a0e03f0 	mov	w16, w14
    401112c4:	eb0d021f 	cmp	x16, x13
    401112c8:	9a9035ac 	csinc	x12, x13, x16, cc  // cc = lo, ul, last
    401112cc:	cb10018e 	sub	x14, x12, x16
    401112d0:	f10009df 	cmp	x14, #0x2
    401112d4:	54000062 	b.cs	0x401112e0  // b.hs, b.nlast
    401112d8:	aa1003ec 	mov	x12, x16
    401112dc:	1400000b 	b	0x40111308
    401112e0:	927ff9cf 	and	x15, x14, #0xfffffffffffffffe
    401112e4:	8b1001ec 	add	x12, x15, x16
    401112e8:	8b100330 	add	x16, x25, x16
    401112ec:	aa0f03f1 	mov	x17, x15
    401112f0:	381ff20a 	sturb	w10, [x16, #-1]
    401112f4:	3800260a 	strb	w10, [x16], #2
    401112f8:	f1000a31 	subs	x17, x17, #0x2
    401112fc:	54ffffa1 	b.ne	0x401112f0  // b.any
    40111300:	eb0f01df 	cmp	x14, x15
    40111304:	54fffc60 	b.eq	0x40111290  // b.none
    40111308:	9100058e 	add	x14, x12, #0x1
    4011130c:	eb0d01df 	cmp	x14, x13
    40111310:	382c6b4a 	strb	w10, [x26, x12]
    40111314:	aa0e03ec 	mov	x12, x14
    40111318:	54ffff83 	b.cc	0x40111308  // b.lo, b.ul, b.last
    4011131c:	17ffffdd 	b	0x40111290
    40111320:	3400036c 	cbz	w12, 0x4011138c
    40111324:	7101759f 	cmp	w12, #0x5d
    40111328:	54fffaa1 	b.ne	0x4011127c  // b.any
    4011132c:	14000019 	b	0x40111390
    40111330:	34001faa 	cbz	w10, 0x40111724
    40111334:	2a0a03e9 	mov	w9, w10
    40111338:	8b0a02f7 	add	x23, x23, x10
    4011133c:	1400007e 	b	0x40111534
    40111340:	8b0a02f7 	add	x23, x23, x10
    40111344:	8b0a012a 	add	x10, x9, x10
    40111348:	2a1803e8 	mov	w8, w24
    4011134c:	3900015f 	strb	wzr, [x10]
    40111350:	4b09014a 	sub	w10, w10, w9
    40111354:	11000400 	add	w0, w0, #0x1
    40111358:	17fffe15 	b	0x40110bac
    4011135c:	7100071f 	cmp	w24, #0x1
    40111360:	54ffc2cb 	b.lt	0x40110bb8  // b.tstop
    40111364:	394002e8 	ldrb	w8, [x23]
    40111368:	38686888 	ldrb	w8, [x4, x8]
    4011136c:	362fc268 	tbz	w8, #5, 0x40110bb8
    40111370:	1100077b 	add	w27, w27, #0x1
    40111374:	71000718 	subs	w24, w24, #0x1
    40111378:	910006f7 	add	x23, x23, #0x1
    4011137c:	54ffff4c 	b.gt	0x40111364
    40111380:	17fffe0e 	b	0x40110bb8
    40111384:	d10006d6 	sub	x22, x22, #0x1
    40111388:	14000002 	b	0x40111390
    4011138c:	aa0b03f6 	mov	x22, x11
    40111390:	321b0108 	orr	w8, w8, #0x20
    40111394:	5280002a 	mov	w10, #0x1                   	// #1
    40111398:	7100071f 	cmp	w24, #0x1
    4011139c:	54ffd6ca 	b.ge	0x40110e74  // b.tcont
    401113a0:	140000df 	b	0x4011171c
    401113a4:	2a0c03f8 	mov	w24, w12
    401113a8:	aa0d03e9 	mov	x9, x13
    401113ac:	37381bd9 	tbnz	w25, #7, 0x40111724
    401113b0:	8b0900c9 	add	x9, x6, x9
    401113b4:	aa0903ea 	mov	x10, x9
    401113b8:	385ffd4b 	ldrb	w11, [x10, #-1]!
    401113bc:	d100050c 	sub	x12, x8, #0x1
    401113c0:	321b016b 	orr	w11, w11, #0x20
    401113c4:	7101e17f 	cmp	w11, #0x78
    401113c8:	9a880197 	csel	x23, x12, x8, eq  // eq = none
    401113cc:	1a981718 	cinc	w24, w24, eq  // eq = none
    401113d0:	9a890149 	csel	x9, x10, x9, eq  // eq = none
    401113d4:	37180539 	tbnz	w25, #3, 0x40111478
    401113d8:	f9401be8 	ldr	x8, [sp, #48]
    401113dc:	b90013e0 	str	w0, [sp, #16]
    401113e0:	9100e3e0 	add	x0, sp, #0x38
    401113e4:	aa1f03e1 	mov	x1, xzr
    401113e8:	2a1203fc 	mov	w28, w18
    401113ec:	f90007e9 	str	x9, [sp, #8]
    401113f0:	3900013f 	strb	wzr, [x9]
    401113f4:	aa0203f5 	mov	x21, x2
    401113f8:	d63f0100 	blr	x8
    401113fc:	37200439 	tbnz	w25, #4, 0x40111480
    40111400:	37700a19 	tbnz	w25, #14, 0x40111540
    40111404:	f0000024 	adrp	x4, 0x40118000
    40111408:	f0000021 	adrp	x1, 0x40118000
    4011140c:	2a1c03f2 	mov	w18, w28
    40111410:	910ca084 	add	x4, x4, #0x328
    40111414:	911f7821 	add	x1, x1, #0x7de
    40111418:	52805803 	mov	w3, #0x2c0                 	// #704
    4011141c:	aa1503e2 	mov	x2, x21
    40111420:	5280015e 	mov	w30, #0xa                   	// #10
    40111424:	37100d19 	tbnz	w25, #2, 0x401115c4
    40111428:	37001119 	tbnz	w25, #0, 0x40111648
    4011142c:	f0000027 	adrp	x7, 0x40118000
    40111430:	f000003c 	adrp	x28, 0x40118000
    40111434:	528003e5 	mov	w5, #0x1f                  	// #31
    40111438:	9100e3e6 	add	x6, sp, #0x38
    4011143c:	911f88e7 	add	x7, x7, #0x7e2
    40111440:	9120c39c 	add	x28, x28, #0x830
    40111444:	37501319 	tbnz	w25, #10, 0x401116a4
    40111448:	f94017e8 	ldr	x8, [sp, #40]
    4011144c:	b9800108 	ldrsw	x8, [x8]
    40111450:	36f81428 	tbz	w8, #31, 0x401116d4
    40111454:	f94017ea 	ldr	x10, [sp, #40]
    40111458:	11002109 	add	w9, w8, #0x8
    4011145c:	3100211f 	cmn	w8, #0x8
    40111460:	b9000149 	str	w9, [x10]
    40111464:	5400138c 	b.gt	0x401116d4
    40111468:	f94013e9 	ldr	x9, [sp, #32]
    4011146c:	f9400529 	ldr	x9, [x9, #8]
    40111470:	8b080128 	add	x8, x9, x8
    40111474:	1400009c 	b	0x401116e4
    40111478:	f9400ff9 	ldr	x25, [sp, #24]
    4011147c:	1400006e 	b	0x40111634
    40111480:	f94017e8 	ldr	x8, [sp, #40]
    40111484:	b9800108 	ldrsw	x8, [x8]
    40111488:	36f80148 	tbz	w8, #31, 0x401114b0
    4011148c:	f94017ea 	ldr	x10, [sp, #40]
    40111490:	11002109 	add	w9, w8, #0x8
    40111494:	3100211f 	cmn	w8, #0x8
    40111498:	b9000149 	str	w9, [x10]
    4011149c:	540000ac 	b.gt	0x401114b0
    401114a0:	f94013e9 	ldr	x9, [sp, #32]
    401114a4:	f9400529 	ldr	x9, [x9, #8]
    401114a8:	8b080128 	add	x8, x9, x8
    401114ac:	14000005 	b	0x401114c0
    401114b0:	f94013ea 	ldr	x10, [sp, #32]
    401114b4:	f9400148 	ldr	x8, [x10]
    401114b8:	91002109 	add	x9, x8, #0x8
    401114bc:	f9000149 	str	x9, [x10]
    401114c0:	2a1c03f2 	mov	w18, w28
    401114c4:	f0000024 	adrp	x4, 0x40118000
    401114c8:	f0000021 	adrp	x1, 0x40118000
    401114cc:	f0000027 	adrp	x7, 0x40118000
    401114d0:	f000003c 	adrp	x28, 0x40118000
    401114d4:	910ca084 	add	x4, x4, #0x328
    401114d8:	911f7821 	add	x1, x1, #0x7de
    401114dc:	52805803 	mov	w3, #0x2c0                 	// #704
    401114e0:	aa1503e2 	mov	x2, x21
    401114e4:	528003e5 	mov	w5, #0x1f                  	// #31
    401114e8:	9100e3e6 	add	x6, sp, #0x38
    401114ec:	911f88e7 	add	x7, x7, #0x7e2
    401114f0:	9120c39c 	add	x28, x28, #0x830
    401114f4:	5280015e 	mov	w30, #0xa                   	// #10
    401114f8:	f9400108 	ldr	x8, [x8]
    401114fc:	f9400ff9 	ldr	x25, [sp, #24]
    40111500:	f94007e9 	ldr	x9, [sp, #8]
    40111504:	f9000100 	str	x0, [x8]
    40111508:	b94013e0 	ldr	w0, [sp, #16]
    4011150c:	14000049 	b	0x40111630
    40111510:	8b0902eb 	add	x11, x23, x9
    40111514:	8b090109 	add	x9, x8, x9
    40111518:	91000577 	add	x23, x11, #0x1
    4011151c:	9100052b 	add	x11, x9, #0x1
    40111520:	2a0a03f8 	mov	w24, w10
    40111524:	6b080169 	subs	w9, w11, w8
    40111528:	54000fe0 	b.eq	0x40111724  // b.none
    4011152c:	3900017f 	strb	wzr, [x11]
    40111530:	11000400 	add	w0, w0, #0x1
    40111534:	2a1803e8 	mov	w8, w24
    40111538:	0b1b013b 	add	w27, w9, w27
    4011153c:	17fffd9d 	b	0x40110bb0
    40111540:	f94017e8 	ldr	x8, [sp, #40]
    40111544:	f0000024 	adrp	x4, 0x40118000
    40111548:	f0000021 	adrp	x1, 0x40118000
    4011154c:	2a1c03f2 	mov	w18, w28
    40111550:	b9800108 	ldrsw	x8, [x8]
    40111554:	910ca084 	add	x4, x4, #0x328
    40111558:	911f7821 	add	x1, x1, #0x7de
    4011155c:	52805803 	mov	w3, #0x2c0                 	// #704
    40111560:	aa1503e2 	mov	x2, x21
    40111564:	5280015e 	mov	w30, #0xa                   	// #10
    40111568:	36f80148 	tbz	w8, #31, 0x40111590
    4011156c:	f94017ea 	ldr	x10, [sp, #40]
    40111570:	11002109 	add	w9, w8, #0x8
    40111574:	3100211f 	cmn	w8, #0x8
    40111578:	b9000149 	str	w9, [x10]
    4011157c:	540000ac 	b.gt	0x40111590
    40111580:	f94013e9 	ldr	x9, [sp, #32]
    40111584:	f9400529 	ldr	x9, [x9, #8]
    40111588:	8b080128 	add	x8, x9, x8
    4011158c:	14000005 	b	0x401115a0
    40111590:	f94013ea 	ldr	x10, [sp, #32]
    40111594:	f9400148 	ldr	x8, [x10]
    40111598:	91002109 	add	x9, x8, #0x8
    4011159c:	f9000149 	str	x9, [x10]
    401115a0:	f9400108 	ldr	x8, [x8]
    401115a4:	f9400ff9 	ldr	x25, [sp, #24]
    401115a8:	f94007e9 	ldr	x9, [sp, #8]
    401115ac:	f0000027 	adrp	x7, 0x40118000
    401115b0:	39000100 	strb	w0, [x8]
    401115b4:	14000019 	b	0x40111618
    401115b8:	8b0902e8 	add	x8, x23, x9
    401115bc:	363fefb9 	tbz	w25, #7, 0x401113b0
    401115c0:	14000059 	b	0x40111724
    401115c4:	f94017e8 	ldr	x8, [sp, #40]
    401115c8:	b9800108 	ldrsw	x8, [x8]
    401115cc:	36f80148 	tbz	w8, #31, 0x401115f4
    401115d0:	f94017ea 	ldr	x10, [sp, #40]
    401115d4:	11002109 	add	w9, w8, #0x8
    401115d8:	3100211f 	cmn	w8, #0x8
    401115dc:	b9000149 	str	w9, [x10]
    401115e0:	540000ac 	b.gt	0x401115f4
    401115e4:	f94013e9 	ldr	x9, [sp, #32]
    401115e8:	f9400529 	ldr	x9, [x9, #8]
    401115ec:	8b080128 	add	x8, x9, x8
    401115f0:	14000005 	b	0x40111604
    401115f4:	f94013ea 	ldr	x10, [sp, #32]
    401115f8:	f9400148 	ldr	x8, [x10]
    401115fc:	91002109 	add	x9, x8, #0x8
    40111600:	f9000149 	str	x9, [x10]
    40111604:	f9400108 	ldr	x8, [x8]
    40111608:	f9400ff9 	ldr	x25, [sp, #24]
    4011160c:	f94007e9 	ldr	x9, [sp, #8]
    40111610:	f0000027 	adrp	x7, 0x40118000
    40111614:	79000100 	strh	w0, [x8]
    40111618:	b94013e0 	ldr	w0, [sp, #16]
    4011161c:	f000003c 	adrp	x28, 0x40118000
    40111620:	528003e5 	mov	w5, #0x1f                  	// #31
    40111624:	9100e3e6 	add	x6, sp, #0x38
    40111628:	911f88e7 	add	x7, x7, #0x7e2
    4011162c:	9120c39c 	add	x28, x28, #0x830
    40111630:	11000400 	add	w0, w0, #0x1
    40111634:	f94013f5 	ldr	x21, [sp, #32]
    40111638:	4b060128 	sub	w8, w9, w6
    4011163c:	0b08037b 	add	w27, w27, w8
    40111640:	11000652 	add	w18, w18, #0x1
    40111644:	17fffd5d 	b	0x40110bb8
    40111648:	f94017e8 	ldr	x8, [sp, #40]
    4011164c:	f0000027 	adrp	x7, 0x40118000
    40111650:	f000003c 	adrp	x28, 0x40118000
    40111654:	528003e5 	mov	w5, #0x1f                  	// #31
    40111658:	b9800108 	ldrsw	x8, [x8]
    4011165c:	9100e3e6 	add	x6, sp, #0x38
    40111660:	911f88e7 	add	x7, x7, #0x7e2
    40111664:	9120c39c 	add	x28, x28, #0x830
    40111668:	36f80148 	tbz	w8, #31, 0x40111690
    4011166c:	f94017ea 	ldr	x10, [sp, #40]
    40111670:	11002109 	add	w9, w8, #0x8
    40111674:	3100211f 	cmn	w8, #0x8
    40111678:	b9000149 	str	w9, [x10]
    4011167c:	540000ac 	b.gt	0x40111690
    40111680:	f94013e9 	ldr	x9, [sp, #32]
    40111684:	f9400529 	ldr	x9, [x9, #8]
    40111688:	8b080128 	add	x8, x9, x8
    4011168c:	17ffff9b 	b	0x401114f8
    40111690:	f94013ea 	ldr	x10, [sp, #32]
    40111694:	f9400148 	ldr	x8, [x10]
    40111698:	91002109 	add	x9, x8, #0x8
    4011169c:	f9000149 	str	x9, [x10]
    401116a0:	17ffff96 	b	0x401114f8
    401116a4:	f94017e8 	ldr	x8, [sp, #40]
    401116a8:	b9800108 	ldrsw	x8, [x8]
    401116ac:	36f80248 	tbz	w8, #31, 0x401116f4
    401116b0:	f94017ea 	ldr	x10, [sp, #40]
    401116b4:	11002109 	add	w9, w8, #0x8
    401116b8:	3100211f 	cmn	w8, #0x8
    401116bc:	b9000149 	str	w9, [x10]
    401116c0:	540001ac 	b.gt	0x401116f4
    401116c4:	f94013e9 	ldr	x9, [sp, #32]
    401116c8:	f9400529 	ldr	x9, [x9, #8]
    401116cc:	8b080128 	add	x8, x9, x8
    401116d0:	1400000d 	b	0x40111704
    401116d4:	f94013ea 	ldr	x10, [sp, #32]
    401116d8:	f9400148 	ldr	x8, [x10]
    401116dc:	91002109 	add	x9, x8, #0x8
    401116e0:	f9000149 	str	x9, [x10]
    401116e4:	f9400ff9 	ldr	x25, [sp, #24]
    401116e8:	f9400108 	ldr	x8, [x8]
    401116ec:	b9000100 	str	w0, [x8]
    401116f0:	14000008 	b	0x40111710
    401116f4:	f94013ea 	ldr	x10, [sp, #32]
    401116f8:	f9400148 	ldr	x8, [x10]
    401116fc:	91002109 	add	x9, x8, #0x8
    40111700:	f9000149 	str	x9, [x10]
    40111704:	f9400108 	ldr	x8, [x8]
    40111708:	f9400ff9 	ldr	x25, [sp, #24]
    4011170c:	f9000100 	str	x0, [x8]
    40111710:	b94013e0 	ldr	w0, [sp, #16]
    40111714:	f94007e9 	ldr	x9, [sp, #8]
    40111718:	17ffffc6 	b	0x40111630
    4011171c:	7100025f 	cmp	w18, #0x0
    40111720:	5a9f1000 	csinv	w0, w0, wzr, ne  // ne = any
    40111724:	a95b4ff4 	ldp	x20, x19, [sp, #432]
    40111728:	a95a57f6 	ldp	x22, x21, [sp, #416]
    4011172c:	a9595ff8 	ldp	x24, x23, [sp, #400]
    40111730:	a95867fa 	ldp	x26, x25, [sp, #384]
    40111734:	a9576ffc 	ldp	x28, x27, [sp, #368]
    40111738:	a9567bfd 	ldp	x29, x30, [sp, #352]
    4011173c:	910703ff 	add	sp, sp, #0x1c0
    40111740:	d65f03c0 	ret
    40111744:	d10203ff 	sub	sp, sp, #0x80
    40111748:	a9077bfd 	stp	x29, x30, [sp, #112]
    4011174c:	9101c3fd 	add	x29, sp, #0x70
    40111750:	f85f03ab 	ldur	x11, [x29, #-16]
    40111754:	910003e9 	mov	x9, sp
    40111758:	a9000fe2 	stp	x2, x3, [sp]
    4011175c:	128005e8 	mov	w8, #0xffffffd0            	// #-48
    40111760:	910043aa 	add	x10, x29, #0x10
    40111764:	9100c129 	add	x9, x9, #0x30
    40111768:	9100c3e2 	add	x2, sp, #0x30
    4011176c:	a90117e4 	stp	x4, x5, [sp, #16]
    40111770:	a9021fe6 	stp	x6, x7, [sp, #32]
    40111774:	f81f83a8 	stur	x8, [x29, #-8]
    40111778:	a93e27aa 	stp	x10, x9, [x29, #-32]
    4011177c:	a90327ea 	stp	x10, x9, [sp, #48]
    40111780:	a90423eb 	stp	x11, x8, [sp, #64]
    40111784:	97fffcdd 	bl	0x40110af8
    40111788:	a9477bfd 	ldp	x29, x30, [sp, #112]
    4011178c:	910203ff 	add	sp, sp, #0x80
    40111790:	d65f03c0 	ret
    40111794:	d101c3ff 	sub	sp, sp, #0x70
    40111798:	a9047bfd 	stp	x29, x30, [sp, #64]
    4011179c:	a90557f6 	stp	x22, x21, [sp, #80]
    401117a0:	a9064ff4 	stp	x20, x19, [sp, #96]
    401117a4:	910103fd 	add	x29, sp, #0x40
    401117a8:	a9412049 	ldp	x9, x8, [x2, #16]
    401117ac:	a940284b 	ldp	x11, x10, [x2]
    401117b0:	aa0103f3 	mov	x19, x1
    401117b4:	aa0203f4 	mov	x20, x2
    401117b8:	aa0003f5 	mov	x21, x0
    401117bc:	910003e3 	mov	x3, sp
    401117c0:	aa1f03e0 	mov	x0, xzr
    401117c4:	aa1f03e1 	mov	x1, xzr
    401117c8:	aa1303e2 	mov	x2, x19
    401117cc:	a90323e9 	stp	x9, x8, [sp, #48]
    401117d0:	a9022beb 	stp	x11, x10, [sp, #32]
    401117d4:	a9002beb 	stp	x11, x10, [sp]
    401117d8:	a90123e9 	stp	x9, x8, [sp, #16]
    401117dc:	97ffeff1 	bl	0x4010d7a0
    401117e0:	37f80300 	tbnz	w0, #31, 0x40111840
    401117e4:	f0000148 	adrp	x8, 0x4013c000
    401117e8:	f941e508 	ldr	x8, [x8, #968]
    401117ec:	b4000228 	cbz	x8, 0x40111830
    401117f0:	f9400109 	ldr	x9, [x8]
    401117f4:	11000416 	add	w22, w0, #0x1
    401117f8:	aa0803e0 	mov	x0, x8
    401117fc:	aa1603e1 	mov	x1, x22
    40111800:	d63f0120 	blr	x9
    40111804:	f90002a0 	str	x0, [x21]
    40111808:	b40001c0 	cbz	x0, 0x40111840
    4011180c:	a9412289 	ldp	x9, x8, [x20, #16]
    40111810:	a9402a8b 	ldp	x11, x10, [x20]
    40111814:	910003e3 	mov	x3, sp
    40111818:	aa1603e1 	mov	x1, x22
    4011181c:	aa1303e2 	mov	x2, x19
    40111820:	a90123e9 	stp	x9, x8, [sp, #16]
    40111824:	a9002beb 	stp	x11, x10, [sp]
    40111828:	97ffefde 	bl	0x4010d7a0
    4011182c:	14000006 	b	0x40111844
    40111830:	97ffefd9 	bl	0x4010d794
    40111834:	52800188 	mov	w8, #0xc                   	// #12
    40111838:	b9000008 	str	w8, [x0]
    4011183c:	f90002bf 	str	xzr, [x21]
    40111840:	12800000 	mov	w0, #0xffffffff            	// #-1
    40111844:	a9464ff4 	ldp	x20, x19, [sp, #96]
    40111848:	a94557f6 	ldp	x22, x21, [sp, #80]
    4011184c:	a9447bfd 	ldp	x29, x30, [sp, #64]
    40111850:	9101c3ff 	add	sp, sp, #0x70
    40111854:	d65f03c0 	ret
    40111858:	d10383ff 	sub	sp, sp, #0xe0
    4011185c:	a90b7bfd 	stp	x29, x30, [sp, #176]
    40111860:	f90063f5 	str	x21, [sp, #192]
    40111864:	a90d4ff4 	stp	x20, x19, [sp, #208]
    40111868:	9102c3fd 	add	x29, sp, #0xb0
    4011186c:	f94033eb 	ldr	x11, [sp, #96]
    40111870:	910003e9 	mov	x9, sp
    40111874:	128005e8 	mov	w8, #0xffffffd0            	// #-48
    40111878:	9100c3aa 	add	x10, x29, #0x30
    4011187c:	9100c129 	add	x9, x9, #0x30
    40111880:	a90327ea 	stp	x10, x9, [sp, #48]
    40111884:	a90423eb 	stp	x11, x8, [sp, #64]
    40111888:	f90037e8 	str	x8, [sp, #104]
    4011188c:	a90527ea 	stp	x10, x9, [sp, #80]
    40111890:	aa0a03e9 	mov	x9, x10
    40111894:	f9401fea 	ldr	x10, [sp, #56]
    40111898:	aa0b03e8 	mov	x8, x11
    4011189c:	f94027eb 	ldr	x11, [sp, #72]
    401118a0:	aa0103f3 	mov	x19, x1
    401118a4:	aa0003f4 	mov	x20, x0
    401118a8:	a9000fe2 	stp	x2, x3, [sp]
    401118ac:	d10103a3 	sub	x3, x29, #0x40
    401118b0:	aa1f03e0 	mov	x0, xzr
    401118b4:	aa1f03e1 	mov	x1, xzr
    401118b8:	aa1303e2 	mov	x2, x19
    401118bc:	a90117e4 	stp	x4, x5, [sp, #16]
    401118c0:	a9021fe6 	stp	x6, x7, [sp, #32]
    401118c4:	a93e2ba9 	stp	x9, x10, [x29, #-32]
    401118c8:	a93c2ba9 	stp	x9, x10, [x29, #-64]
    401118cc:	a93f2fa8 	stp	x8, x11, [x29, #-16]
    401118d0:	a93d2fa8 	stp	x8, x11, [x29, #-48]
    401118d4:	97ffefb3 	bl	0x4010d7a0
    401118d8:	37f80300 	tbnz	w0, #31, 0x40111938
    401118dc:	f0000148 	adrp	x8, 0x4013c000
    401118e0:	f941e508 	ldr	x8, [x8, #968]
    401118e4:	b4000228 	cbz	x8, 0x40111928
    401118e8:	f9400109 	ldr	x9, [x8]
    401118ec:	11000415 	add	w21, w0, #0x1
    401118f0:	aa0803e0 	mov	x0, x8
    401118f4:	aa1503e1 	mov	x1, x21
    401118f8:	d63f0120 	blr	x9
    401118fc:	f9000280 	str	x0, [x20]
    40111900:	b40001c0 	cbz	x0, 0x40111938
    40111904:	a9432be8 	ldp	x8, x10, [sp, #48]
    40111908:	a9442fe9 	ldp	x9, x11, [sp, #64]
    4011190c:	d10103a3 	sub	x3, x29, #0x40
    40111910:	aa1503e1 	mov	x1, x21
    40111914:	aa1303e2 	mov	x2, x19
    40111918:	a93c2ba8 	stp	x8, x10, [x29, #-64]
    4011191c:	a93d2fa9 	stp	x9, x11, [x29, #-48]
    40111920:	97ffefa0 	bl	0x4010d7a0
    40111924:	14000006 	b	0x4011193c
    40111928:	97ffef9b 	bl	0x4010d794
    4011192c:	52800188 	mov	w8, #0xc                   	// #12
    40111930:	b9000008 	str	w8, [x0]
    40111934:	f900029f 	str	xzr, [x20]
    40111938:	12800000 	mov	w0, #0xffffffff            	// #-1
    4011193c:	a94d4ff4 	ldp	x20, x19, [sp, #208]
    40111940:	f94063f5 	ldr	x21, [sp, #192]
    40111944:	a94b7bfd 	ldp	x29, x30, [sp, #176]
    40111948:	910383ff 	add	sp, sp, #0xe0
    4011194c:	d65f03c0 	ret
    40111950:	d10303ff 	sub	sp, sp, #0xc0
    40111954:	a9067bfd 	stp	x29, x30, [sp, #96]
    40111958:	a9076ffc 	stp	x28, x27, [sp, #112]
    4011195c:	a90867fa 	stp	x26, x25, [sp, #128]
    40111960:	a9095ff8 	stp	x24, x23, [sp, #144]
    40111964:	a90a57f6 	stp	x22, x21, [sp, #160]
    40111968:	a90b4ff4 	stp	x20, x19, [sp, #176]
    4011196c:	910183fd 	add	x29, sp, #0x60
    40111970:	aa0203f3 	mov	x19, x2
    40111974:	aa0003fb 	mov	x27, x0
    40111978:	2a130368 	orr	w8, w27, w19
    4011197c:	f100205f 	cmp	x2, #0x8
    40111980:	52800049 	mov	w9, #0x2                   	// #2
    40111984:	1a9f07ea 	cset	w10, ne  // ne = any
    40111988:	f240091f 	tst	x8, #0x7
    4011198c:	aa0103f6 	mov	x22, x1
    40111990:	1a9f17f4 	cset	w20, eq  // eq = none
    40111994:	1a890148 	csel	w8, w10, w9, eq  // eq = none
    40111998:	f1001c3f 	cmp	x1, #0x7
    4011199c:	aa0303f5 	mov	x21, x3
    401119a0:	b81fc3a8 	stur	w8, [x29, #-4]
    401119a4:	f81f03a2 	stur	x2, [x29, #-16]
    401119a8:	54002f63 	b.cc	0x40111f94  // b.lo, b.ul, b.last
    401119ac:	93407e68 	sxtw	x8, w19
    401119b0:	d343fd09 	lsr	x9, x8, #3
    401119b4:	f9001be8 	str	x8, [sp, #48]
    401119b8:	91000508 	add	x8, x8, #0x1
    401119bc:	cb1303fc 	neg	x28, x19
    401119c0:	f81e83a8 	stur	x8, [x29, #-24]
    401119c4:	91000528 	add	x8, x9, #0x1
    401119c8:	b90027ea 	str	w10, [sp, #36]
    401119cc:	f90007e9 	str	x9, [sp, #8]
    401119d0:	f81e03a8 	stur	x8, [x29, #-32]
    401119d4:	d341fec8 	lsr	x8, x22, #1
    401119d8:	f1001edf 	cmp	x22, #0x7
    401119dc:	9b136d17 	madd	x23, x8, x19, x27
    401119e0:	f81d83b6 	stur	x22, [x29, #-40]
    401119e4:	54000fe0 	b.eq	0x40111be0  // b.none
    401119e8:	d10006c8 	sub	x8, x22, #0x1
    401119ec:	f100a6df 	cmp	x22, #0x29
    401119f0:	9b136d18 	madd	x24, x8, x19, x27
    401119f4:	54000363 	b.cc	0x40111a60  // b.lo, b.ul, b.last
    401119f8:	d343fec8 	lsr	x8, x22, #3
    401119fc:	9b137d08 	mul	x8, x8, x19
    40111a00:	93407d13 	sxtw	x19, w8
    40111a04:	531f7908 	lsl	w8, w8, #1
    40111a08:	8b130379 	add	x25, x27, x19
    40111a0c:	93407d08 	sxtw	x8, w8
    40111a10:	aa1b03e0 	mov	x0, x27
    40111a14:	aa1903e1 	mov	x1, x25
    40111a18:	f90017f8 	str	x24, [sp, #40]
    40111a1c:	f9000be8 	str	x8, [sp, #16]
    40111a20:	8b08037a 	add	x26, x27, x8
    40111a24:	d63f02a0 	blr	x21
    40111a28:	2a0003f8 	mov	w24, w0
    40111a2c:	aa1903e0 	mov	x0, x25
    40111a30:	aa1a03e1 	mov	x1, x26
    40111a34:	d63f02a0 	blr	x21
    40111a38:	b90023f4 	str	w20, [sp, #32]
    40111a3c:	37f80178 	tbnz	w24, #31, 0x40111a68
    40111a40:	7100001f 	cmp	w0, #0x0
    40111a44:	540001ec 	b.gt	0x40111a80
    40111a48:	aa1b03e0 	mov	x0, x27
    40111a4c:	aa1a03e1 	mov	x1, x26
    40111a50:	d63f02a0 	blr	x21
    40111a54:	7100001f 	cmp	w0, #0x0
    40111a58:	9a9ab379 	csel	x25, x27, x26, lt  // lt = tstop
    40111a5c:	14000009 	b	0x40111a80
    40111a60:	aa1b03f9 	mov	x25, x27
    40111a64:	14000049 	b	0x40111b88
    40111a68:	37f800c0 	tbnz	w0, #31, 0x40111a80
    40111a6c:	aa1b03e0 	mov	x0, x27
    40111a70:	aa1a03e1 	mov	x1, x26
    40111a74:	d63f02a0 	blr	x21
    40111a78:	7100001f 	cmp	w0, #0x0
    40111a7c:	9a9bb359 	csel	x25, x26, x27, lt  // lt = tstop
    40111a80:	cb1302e0 	sub	x0, x23, x19
    40111a84:	aa1703e1 	mov	x1, x23
    40111a88:	cb1303f4 	neg	x20, x19
    40111a8c:	8b1302f8 	add	x24, x23, x19
    40111a90:	aa0003f6 	mov	x22, x0
    40111a94:	d63f02a0 	blr	x21
    40111a98:	2a0003fa 	mov	w26, w0
    40111a9c:	aa1703e0 	mov	x0, x23
    40111aa0:	aa1803e1 	mov	x1, x24
    40111aa4:	d63f02a0 	blr	x21
    40111aa8:	f9000ff9 	str	x25, [sp, #24]
    40111aac:	37f8015a 	tbnz	w26, #31, 0x40111ad4
    40111ab0:	f85f03b3 	ldur	x19, [x29, #-16]
    40111ab4:	7100001f 	cmp	w0, #0x0
    40111ab8:	540001cc 	b.gt	0x40111af0
    40111abc:	aa1603e0 	mov	x0, x22
    40111ac0:	aa1803e1 	mov	x1, x24
    40111ac4:	d63f02a0 	blr	x21
    40111ac8:	7100001f 	cmp	w0, #0x0
    40111acc:	9a98b2d7 	csel	x23, x22, x24, lt  // lt = tstop
    40111ad0:	14000008 	b	0x40111af0
    40111ad4:	f85f03b3 	ldur	x19, [x29, #-16]
    40111ad8:	37f800c0 	tbnz	w0, #31, 0x40111af0
    40111adc:	aa1603e0 	mov	x0, x22
    40111ae0:	aa1803e1 	mov	x1, x24
    40111ae4:	d63f02a0 	blr	x21
    40111ae8:	7100001f 	cmp	w0, #0x0
    40111aec:	9a96b317 	csel	x23, x24, x22, lt  // lt = tstop
    40111af0:	f94017f9 	ldr	x25, [sp, #40]
    40111af4:	f9400be8 	ldr	x8, [sp, #16]
    40111af8:	8b14033a 	add	x26, x25, x20
    40111afc:	cb080320 	sub	x0, x25, x8
    40111b00:	aa1a03e1 	mov	x1, x26
    40111b04:	f9000be0 	str	x0, [sp, #16]
    40111b08:	d63f02a0 	blr	x21
    40111b0c:	2a0003f8 	mov	w24, w0
    40111b10:	aa1a03e0 	mov	x0, x26
    40111b14:	aa1903e1 	mov	x1, x25
    40111b18:	d63f02a0 	blr	x21
    40111b1c:	37f801d8 	tbnz	w24, #31, 0x40111b54
    40111b20:	b94023f4 	ldr	w20, [sp, #32]
    40111b24:	f85d83b6 	ldur	x22, [x29, #-40]
    40111b28:	f9400ff9 	ldr	x25, [sp, #24]
    40111b2c:	7100001f 	cmp	w0, #0x0
    40111b30:	540002ac 	b.gt	0x40111b84
    40111b34:	f9400bfa 	ldr	x26, [sp, #16]
    40111b38:	f94017f8 	ldr	x24, [sp, #40]
    40111b3c:	aa1a03e0 	mov	x0, x26
    40111b40:	aa1803e1 	mov	x1, x24
    40111b44:	d63f02a0 	blr	x21
    40111b48:	7100001f 	cmp	w0, #0x0
    40111b4c:	9a98b358 	csel	x24, x26, x24, lt  // lt = tstop
    40111b50:	1400000e 	b	0x40111b88
    40111b54:	b94023f4 	ldr	w20, [sp, #32]
    40111b58:	f85d83b6 	ldur	x22, [x29, #-40]
    40111b5c:	f9400ff9 	ldr	x25, [sp, #24]
    40111b60:	37f80120 	tbnz	w0, #31, 0x40111b84
    40111b64:	f9400bfa 	ldr	x26, [sp, #16]
    40111b68:	f94017f8 	ldr	x24, [sp, #40]
    40111b6c:	aa1a03e0 	mov	x0, x26
    40111b70:	aa1803e1 	mov	x1, x24
    40111b74:	d63f02a0 	blr	x21
    40111b78:	7100001f 	cmp	w0, #0x0
    40111b7c:	9a9ab318 	csel	x24, x24, x26, lt  // lt = tstop
    40111b80:	14000002 	b	0x40111b88
    40111b84:	aa1a03f8 	mov	x24, x26
    40111b88:	aa1903e0 	mov	x0, x25
    40111b8c:	aa1703e1 	mov	x1, x23
    40111b90:	d63f02a0 	blr	x21
    40111b94:	2a0003fa 	mov	w26, w0
    40111b98:	aa1703e0 	mov	x0, x23
    40111b9c:	aa1803e1 	mov	x1, x24
    40111ba0:	d63f02a0 	blr	x21
    40111ba4:	37f8013a 	tbnz	w26, #31, 0x40111bc8
    40111ba8:	7100001f 	cmp	w0, #0x0
    40111bac:	540001ac 	b.gt	0x40111be0
    40111bb0:	aa1903e0 	mov	x0, x25
    40111bb4:	aa1803e1 	mov	x1, x24
    40111bb8:	d63f02a0 	blr	x21
    40111bbc:	7100001f 	cmp	w0, #0x0
    40111bc0:	9a98b337 	csel	x23, x25, x24, lt  // lt = tstop
    40111bc4:	14000007 	b	0x40111be0
    40111bc8:	37f800c0 	tbnz	w0, #31, 0x40111be0
    40111bcc:	aa1903e0 	mov	x0, x25
    40111bd0:	aa1803e1 	mov	x1, x24
    40111bd4:	d63f02a0 	blr	x21
    40111bd8:	7100001f 	cmp	w0, #0x0
    40111bdc:	9a99b317 	csel	x23, x24, x25, lt  // lt = tstop
    40111be0:	b85fc3a8 	ldur	w8, [x29, #-4]
    40111be4:	34000188 	cbz	w8, 0x40111c14
    40111be8:	36000214 	tbz	w20, #0, 0x40111c28
    40111bec:	f85e03a8 	ldur	x8, [x29, #-32]
    40111bf0:	aa1b03e9 	mov	x9, x27
    40111bf4:	f94002ea 	ldr	x10, [x23]
    40111bf8:	f940012b 	ldr	x11, [x9]
    40111bfc:	d1000508 	sub	x8, x8, #0x1
    40111c00:	f100051f 	cmp	x8, #0x1
    40111c04:	f800852a 	str	x10, [x9], #8
    40111c08:	f80086eb 	str	x11, [x23], #8
    40111c0c:	54ffff4c 	b.gt	0x40111bf4
    40111c10:	1400000f 	b	0x40111c4c
    40111c14:	f94002e8 	ldr	x8, [x23]
    40111c18:	f9400369 	ldr	x9, [x27]
    40111c1c:	f9000368 	str	x8, [x27]
    40111c20:	f90002e9 	str	x9, [x23]
    40111c24:	1400000a 	b	0x40111c4c
    40111c28:	f85e83a8 	ldur	x8, [x29, #-24]
    40111c2c:	aa1b03e9 	mov	x9, x27
    40111c30:	394002ea 	ldrb	w10, [x23]
    40111c34:	3940012b 	ldrb	w11, [x9]
    40111c38:	d1000508 	sub	x8, x8, #0x1
    40111c3c:	f100051f 	cmp	x8, #0x1
    40111c40:	3800152a 	strb	w10, [x9], #1
    40111c44:	380016eb 	strb	w11, [x23], #1
    40111c48:	54ffff4c 	b.gt	0x40111c30
    40111c4c:	d10006c8 	sub	x8, x22, #0x1
    40111c50:	8b13037a 	add	x26, x27, x19
    40111c54:	9b136d16 	madd	x22, x8, x19, x27
    40111c58:	2a1f03f9 	mov	w25, wzr
    40111c5c:	aa1603f8 	mov	x24, x22
    40111c60:	aa1a03f7 	mov	x23, x26
    40111c64:	f90017fa 	str	x26, [sp, #40]
    40111c68:	eb1802ff 	cmp	x23, x24
    40111c6c:	54000169 	b.ls	0x40111c98  // b.plast
    40111c70:	1400002f 	b	0x40111d2c
    40111c74:	f94002e8 	ldr	x8, [x23]
    40111c78:	f9400349 	ldr	x9, [x26]
    40111c7c:	f9000348 	str	x8, [x26]
    40111c80:	f90002e9 	str	x9, [x23]
    40111c84:	8b13035a 	add	x26, x26, x19
    40111c88:	52800039 	mov	w25, #0x1                   	// #1
    40111c8c:	8b1302f7 	add	x23, x23, x19
    40111c90:	eb1802ff 	cmp	x23, x24
    40111c94:	540004c8 	b.hi	0x40111d2c  // b.pmore
    40111c98:	aa1703e0 	mov	x0, x23
    40111c9c:	aa1b03e1 	mov	x1, x27
    40111ca0:	d63f02a0 	blr	x21
    40111ca4:	7100001f 	cmp	w0, #0x0
    40111ca8:	5400042c 	b.gt	0x40111d2c
    40111cac:	35ffff00 	cbnz	w0, 0x40111c8c
    40111cb0:	b85fc3a8 	ldur	w8, [x29, #-4]
    40111cb4:	34fffe08 	cbz	w8, 0x40111c74
    40111cb8:	aa1f03e8 	mov	x8, xzr
    40111cbc:	36000174 	tbz	w20, #0, 0x40111ce8
    40111cc0:	f85e03a9 	ldur	x9, [x29, #-32]
    40111cc4:	f8686aea 	ldr	x10, [x23, x8]
    40111cc8:	f8686b4b 	ldr	x11, [x26, x8]
    40111ccc:	d1000529 	sub	x9, x9, #0x1
    40111cd0:	f100053f 	cmp	x9, #0x1
    40111cd4:	f8286b4a 	str	x10, [x26, x8]
    40111cd8:	f8286aeb 	str	x11, [x23, x8]
    40111cdc:	91002108 	add	x8, x8, #0x8
    40111ce0:	54ffff2c 	b.gt	0x40111cc4
    40111ce4:	17ffffe8 	b	0x40111c84
    40111ce8:	f85e83a9 	ldur	x9, [x29, #-24]
    40111cec:	38686aea 	ldrb	w10, [x23, x8]
    40111cf0:	38686b4b 	ldrb	w11, [x26, x8]
    40111cf4:	d1000529 	sub	x9, x9, #0x1
    40111cf8:	f100053f 	cmp	x9, #0x1
    40111cfc:	38286b4a 	strb	w10, [x26, x8]
    40111d00:	38286aeb 	strb	w11, [x23, x8]
    40111d04:	91000508 	add	x8, x8, #0x1
    40111d08:	54ffff2c 	b.gt	0x40111cec
    40111d0c:	17ffffde 	b	0x40111c84
    40111d10:	f94002c8 	ldr	x8, [x22]
    40111d14:	f9400309 	ldr	x9, [x24]
    40111d18:	f9000308 	str	x8, [x24]
    40111d1c:	f90002c9 	str	x9, [x22]
    40111d20:	8b1c02d6 	add	x22, x22, x28
    40111d24:	52800039 	mov	w25, #0x1                   	// #1
    40111d28:	8b1c0318 	add	x24, x24, x28
    40111d2c:	eb1802ff 	cmp	x23, x24
    40111d30:	54000808 	b.hi	0x40111e30  // b.pmore
    40111d34:	aa1803e0 	mov	x0, x24
    40111d38:	aa1b03e1 	mov	x1, x27
    40111d3c:	d63f02a0 	blr	x21
    40111d40:	37f80340 	tbnz	w0, #31, 0x40111da8
    40111d44:	35ffff20 	cbnz	w0, 0x40111d28
    40111d48:	b85fc3a8 	ldur	w8, [x29, #-4]
    40111d4c:	34fffe28 	cbz	w8, 0x40111d10
    40111d50:	aa1f03e8 	mov	x8, xzr
    40111d54:	36000174 	tbz	w20, #0, 0x40111d80
    40111d58:	f85e03a9 	ldur	x9, [x29, #-32]
    40111d5c:	f8686aca 	ldr	x10, [x22, x8]
    40111d60:	f8686b0b 	ldr	x11, [x24, x8]
    40111d64:	d1000529 	sub	x9, x9, #0x1
    40111d68:	f100053f 	cmp	x9, #0x1
    40111d6c:	f8286b0a 	str	x10, [x24, x8]
    40111d70:	f8286acb 	str	x11, [x22, x8]
    40111d74:	91002108 	add	x8, x8, #0x8
    40111d78:	54ffff2c 	b.gt	0x40111d5c
    40111d7c:	17ffffe9 	b	0x40111d20
    40111d80:	f85e83a9 	ldur	x9, [x29, #-24]
    40111d84:	38686aca 	ldrb	w10, [x22, x8]
    40111d88:	38686b0b 	ldrb	w11, [x24, x8]
    40111d8c:	d1000529 	sub	x9, x9, #0x1
    40111d90:	f100053f 	cmp	x9, #0x1
    40111d94:	38286b0a 	strb	w10, [x24, x8]
    40111d98:	38286acb 	strb	w11, [x22, x8]
    40111d9c:	91000508 	add	x8, x8, #0x1
    40111da0:	54ffff2c 	b.gt	0x40111d84
    40111da4:	17ffffdf 	b	0x40111d20
    40111da8:	b85fc3a8 	ldur	w8, [x29, #-4]
    40111dac:	340001a8 	cbz	w8, 0x40111de0
    40111db0:	aa1f03e8 	mov	x8, xzr
    40111db4:	36000214 	tbz	w20, #0, 0x40111df4
    40111db8:	f85e03a9 	ldur	x9, [x29, #-32]
    40111dbc:	f8686b0a 	ldr	x10, [x24, x8]
    40111dc0:	f8686aeb 	ldr	x11, [x23, x8]
    40111dc4:	d1000529 	sub	x9, x9, #0x1
    40111dc8:	f100053f 	cmp	x9, #0x1
    40111dcc:	f8286aea 	str	x10, [x23, x8]
    40111dd0:	f8286b0b 	str	x11, [x24, x8]
    40111dd4:	91002108 	add	x8, x8, #0x8
    40111dd8:	54ffff2c 	b.gt	0x40111dbc
    40111ddc:	1400000f 	b	0x40111e18
    40111de0:	f9400308 	ldr	x8, [x24]
    40111de4:	f94002e9 	ldr	x9, [x23]
    40111de8:	f90002e8 	str	x8, [x23]
    40111dec:	f9000309 	str	x9, [x24]
    40111df0:	1400000a 	b	0x40111e18
    40111df4:	f85e83a9 	ldur	x9, [x29, #-24]
    40111df8:	38686b0a 	ldrb	w10, [x24, x8]
    40111dfc:	38686aeb 	ldrb	w11, [x23, x8]
    40111e00:	d1000529 	sub	x9, x9, #0x1
    40111e04:	f100053f 	cmp	x9, #0x1
    40111e08:	38286aea 	strb	w10, [x23, x8]
    40111e0c:	38286b0b 	strb	w11, [x24, x8]
    40111e10:	91000508 	add	x8, x8, #0x1
    40111e14:	54ffff2c 	b.gt	0x40111df8
    40111e18:	8b1302f7 	add	x23, x23, x19
    40111e1c:	8b1c0318 	add	x24, x24, x28
    40111e20:	52800039 	mov	w25, #0x1                   	// #1
    40111e24:	eb1802ff 	cmp	x23, x24
    40111e28:	54fff389 	b.ls	0x40111c98  // b.plast
    40111e2c:	17ffffc0 	b	0x40111d2c
    40111e30:	f85d83a8 	ldur	x8, [x29, #-40]
    40111e34:	9b137d08 	mul	x8, x8, x19
    40111e38:	8b080369 	add	x9, x27, x8
    40111e3c:	f81d83a9 	stur	x9, [x29, #-40]
    40111e40:	34001319 	cbz	w25, 0x401120a0
    40111e44:	cb1b0349 	sub	x9, x26, x27
    40111e48:	cb1a02e8 	sub	x8, x23, x26
    40111e4c:	eb08013f 	cmp	x9, x8
    40111e50:	9a88b12a 	csel	x10, x9, x8, lt  // lt = tstop
    40111e54:	7100055f 	cmp	w10, #0x1
    40111e58:	5400030b 	b.lt	0x40111eb8  // b.tstop
    40111e5c:	cb2ac2e9 	sub	x9, x23, w10, sxtw
    40111e60:	92407d4a 	and	x10, x10, #0xffffffff
    40111e64:	36000194 	tbz	w20, #0, 0x40111e94
    40111e68:	d343fd4a 	lsr	x10, x10, #3
    40111e6c:	9100054a 	add	x10, x10, #0x1
    40111e70:	aa1b03eb 	mov	x11, x27
    40111e74:	f940012c 	ldr	x12, [x9]
    40111e78:	f940016d 	ldr	x13, [x11]
    40111e7c:	d100054a 	sub	x10, x10, #0x1
    40111e80:	f100055f 	cmp	x10, #0x1
    40111e84:	f800856c 	str	x12, [x11], #8
    40111e88:	f800852d 	str	x13, [x9], #8
    40111e8c:	54ffff4c 	b.gt	0x40111e74
    40111e90:	1400000a 	b	0x40111eb8
    40111e94:	9100054a 	add	x10, x10, #0x1
    40111e98:	aa1b03eb 	mov	x11, x27
    40111e9c:	3940012c 	ldrb	w12, [x9]
    40111ea0:	3940016d 	ldrb	w13, [x11]
    40111ea4:	d100054a 	sub	x10, x10, #0x1
    40111ea8:	f100055f 	cmp	x10, #0x1
    40111eac:	3800156c 	strb	w12, [x11], #1
    40111eb0:	3800152d 	strb	w13, [x9], #1
    40111eb4:	54ffff4c 	b.gt	0x40111e9c
    40111eb8:	f85d83aa 	ldur	x10, [x29, #-40]
    40111ebc:	2a1403eb 	mov	w11, w20
    40111ec0:	cb1802d4 	sub	x20, x22, x24
    40111ec4:	cb160149 	sub	x9, x10, x22
    40111ec8:	aa0a03f6 	mov	x22, x10
    40111ecc:	f9401bea 	ldr	x10, [sp, #48]
    40111ed0:	cb0a0129 	sub	x9, x9, x10
    40111ed4:	eb09029f 	cmp	x20, x9
    40111ed8:	9a89b28a 	csel	x10, x20, x9, lt  // lt = tstop
    40111edc:	7100055f 	cmp	w10, #0x1
    40111ee0:	540002cb 	b.lt	0x40111f38  // b.tstop
    40111ee4:	cb2ac2c9 	sub	x9, x22, w10, sxtw
    40111ee8:	92407d4a 	and	x10, x10, #0xffffffff
    40111eec:	3600016b 	tbz	w11, #0, 0x40111f18
    40111ef0:	d343fd4a 	lsr	x10, x10, #3
    40111ef4:	9100054a 	add	x10, x10, #0x1
    40111ef8:	f940012b 	ldr	x11, [x9]
    40111efc:	f94002ec 	ldr	x12, [x23]
    40111f00:	d100054a 	sub	x10, x10, #0x1
    40111f04:	f100055f 	cmp	x10, #0x1
    40111f08:	f80086eb 	str	x11, [x23], #8
    40111f0c:	f800852c 	str	x12, [x9], #8
    40111f10:	54ffff4c 	b.gt	0x40111ef8
    40111f14:	14000009 	b	0x40111f38
    40111f18:	9100054a 	add	x10, x10, #0x1
    40111f1c:	3940012b 	ldrb	w11, [x9]
    40111f20:	394002ec 	ldrb	w12, [x23]
    40111f24:	d100054a 	sub	x10, x10, #0x1
    40111f28:	f100055f 	cmp	x10, #0x1
    40111f2c:	380016eb 	strb	w11, [x23], #1
    40111f30:	3800152c 	strb	w12, [x9], #1
    40111f34:	54ffff4c 	b.gt	0x40111f1c
    40111f38:	6b13011f 	cmp	w8, w19
    40111f3c:	540000ed 	b.le	0x40111f58
    40111f40:	93407d08 	sxtw	x8, w8
    40111f44:	9ad30901 	udiv	x1, x8, x19
    40111f48:	aa1b03e0 	mov	x0, x27
    40111f4c:	aa1303e2 	mov	x2, x19
    40111f50:	aa1503e3 	mov	x3, x21
    40111f54:	97fffe7f 	bl	0x40111950
    40111f58:	6b13029f 	cmp	w20, w19
    40111f5c:	5400122d 	b.le	0x401121a0
    40111f60:	f85f03b3 	ldur	x19, [x29, #-16]
    40111f64:	93407e88 	sxtw	x8, w20
    40111f68:	b94027e9 	ldr	w9, [sp, #36]
    40111f6c:	cb0802db 	sub	x27, x22, x8
    40111f70:	9ad30916 	udiv	x22, x8, x19
    40111f74:	2a130368 	orr	w8, w27, w19
    40111f78:	f240091f 	tst	x8, #0x7
    40111f7c:	52800048 	mov	w8, #0x2                   	// #2
    40111f80:	1a9f17f4 	cset	w20, eq  // eq = none
    40111f84:	1a880128 	csel	w8, w9, w8, eq  // eq = none
    40111f88:	f1001edf 	cmp	x22, #0x7
    40111f8c:	b81fc3a8 	stur	w8, [x29, #-4]
    40111f90:	54ffd222 	b.cs	0x401119d4  // b.hs, b.nlast
    40111f94:	9b137ec8 	mul	x8, x22, x19
    40111f98:	eb13011f 	cmp	x8, x19
    40111f9c:	5400102d 	b.le	0x401121a0
    40111fa0:	8b080368 	add	x8, x27, x8
    40111fa4:	f81e03a8 	stur	x8, [x29, #-32]
    40111fa8:	f85f03a8 	ldur	x8, [x29, #-16]
    40111fac:	2a1403fc 	mov	w28, w20
    40111fb0:	aa1b03f3 	mov	x19, x27
    40111fb4:	8b080379 	add	x25, x27, x8
    40111fb8:	cb0803fa 	neg	x26, x8
    40111fbc:	93407d08 	sxtw	x8, w8
    40111fc0:	d343fd09 	lsr	x9, x8, #3
    40111fc4:	91000508 	add	x8, x8, #0x1
    40111fc8:	91000538 	add	x24, x9, #0x1
    40111fcc:	f81e83a8 	stur	x8, [x29, #-24]
    40111fd0:	14000007 	b	0x40111fec
    40111fd4:	f85f03a8 	ldur	x8, [x29, #-16]
    40111fd8:	f85e03a9 	ldur	x9, [x29, #-32]
    40111fdc:	8b080339 	add	x25, x25, x8
    40111fe0:	eb09033f 	cmp	x25, x9
    40111fe4:	8b080273 	add	x19, x19, x8
    40111fe8:	54000dc2 	b.cs	0x401121a0  // b.hs, b.nlast
    40111fec:	eb1b033f 	cmp	x25, x27
    40111ff0:	54ffff29 	b.ls	0x40111fd4  // b.plast
    40111ff4:	aa1303f4 	mov	x20, x19
    40111ff8:	aa1903f6 	mov	x22, x25
    40111ffc:	14000008 	b	0x4011201c
    40112000:	f94002c8 	ldr	x8, [x22]
    40112004:	f94002e9 	ldr	x9, [x23]
    40112008:	f90002e8 	str	x8, [x23]
    4011200c:	f90002c9 	str	x9, [x22]
    40112010:	eb1b02df 	cmp	x22, x27
    40112014:	8b1a0294 	add	x20, x20, x26
    40112018:	54fffde9 	b.ls	0x40111fd4  // b.plast
    4011201c:	aa1603f7 	mov	x23, x22
    40112020:	8b1a02d6 	add	x22, x22, x26
    40112024:	aa1603e0 	mov	x0, x22
    40112028:	aa1703e1 	mov	x1, x23
    4011202c:	d63f02a0 	blr	x21
    40112030:	7100041f 	cmp	w0, #0x1
    40112034:	54fffd0b 	b.lt	0x40111fd4  // b.tstop
    40112038:	b85fc3a8 	ldur	w8, [x29, #-4]
    4011203c:	34fffe28 	cbz	w8, 0x40112000
    40112040:	aa1f03e8 	mov	x8, xzr
    40112044:	360001bc 	tbz	w28, #0, 0x40112078
    40112048:	f85f03a9 	ldur	x9, [x29, #-16]
    4011204c:	aa1803ea 	mov	x10, x24
    40112050:	8b090289 	add	x9, x20, x9
    40112054:	f8686a8b 	ldr	x11, [x20, x8]
    40112058:	f868692c 	ldr	x12, [x9, x8]
    4011205c:	d100054a 	sub	x10, x10, #0x1
    40112060:	f100055f 	cmp	x10, #0x1
    40112064:	f828692b 	str	x11, [x9, x8]
    40112068:	f8286a8c 	str	x12, [x20, x8]
    4011206c:	91002108 	add	x8, x8, #0x8
    40112070:	54ffff2c 	b.gt	0x40112054
    40112074:	17ffffe7 	b	0x40112010
    40112078:	f85e83a9 	ldur	x9, [x29, #-24]
    4011207c:	38686a8a 	ldrb	w10, [x20, x8]
    40112080:	38686aeb 	ldrb	w11, [x23, x8]
    40112084:	d1000529 	sub	x9, x9, #0x1
    40112088:	f100053f 	cmp	x9, #0x1
    4011208c:	38286aea 	strb	w10, [x23, x8]
    40112090:	38286a8b 	strb	w11, [x20, x8]
    40112094:	91000508 	add	x8, x8, #0x1
    40112098:	54ffff2c 	b.gt	0x4011207c
    4011209c:	17ffffdd 	b	0x40112010
    401120a0:	f94017e9 	ldr	x9, [sp, #40]
    401120a4:	eb13011f 	cmp	x8, x19
    401120a8:	540007cd 	b.le	0x401121a0
    401120ac:	f9401be8 	ldr	x8, [sp, #48]
    401120b0:	2a1403fa 	mov	w26, w20
    401120b4:	aa1b03f4 	mov	x20, x27
    401120b8:	91000508 	add	x8, x8, #0x1
    401120bc:	f81e83a8 	stur	x8, [x29, #-24]
    401120c0:	f94007e8 	ldr	x8, [sp, #8]
    401120c4:	91000519 	add	x25, x8, #0x1
    401120c8:	14000008 	b	0x401120e8
    401120cc:	f85f03a8 	ldur	x8, [x29, #-16]
    401120d0:	f85d83aa 	ldur	x10, [x29, #-40]
    401120d4:	aa1803e9 	mov	x9, x24
    401120d8:	8b080309 	add	x9, x24, x8
    401120dc:	eb0a013f 	cmp	x9, x10
    401120e0:	8b080294 	add	x20, x20, x8
    401120e4:	540005e2 	b.cs	0x401121a0  // b.hs, b.nlast
    401120e8:	aa0903f8 	mov	x24, x9
    401120ec:	eb1b013f 	cmp	x9, x27
    401120f0:	54fffee9 	b.ls	0x401120cc  // b.plast
    401120f4:	aa1403f3 	mov	x19, x20
    401120f8:	aa1803f6 	mov	x22, x24
    401120fc:	14000008 	b	0x4011211c
    40112100:	f94002c8 	ldr	x8, [x22]
    40112104:	f94002e9 	ldr	x9, [x23]
    40112108:	f90002e8 	str	x8, [x23]
    4011210c:	f90002c9 	str	x9, [x22]
    40112110:	eb1b02df 	cmp	x22, x27
    40112114:	8b1c0273 	add	x19, x19, x28
    40112118:	54fffda9 	b.ls	0x401120cc  // b.plast
    4011211c:	aa1603f7 	mov	x23, x22
    40112120:	8b1c02d6 	add	x22, x22, x28
    40112124:	aa1603e0 	mov	x0, x22
    40112128:	aa1703e1 	mov	x1, x23
    4011212c:	d63f02a0 	blr	x21
    40112130:	7100041f 	cmp	w0, #0x1
    40112134:	54fffccb 	b.lt	0x401120cc  // b.tstop
    40112138:	b85fc3a8 	ldur	w8, [x29, #-4]
    4011213c:	34fffe28 	cbz	w8, 0x40112100
    40112140:	aa1f03e8 	mov	x8, xzr
    40112144:	360001ba 	tbz	w26, #0, 0x40112178
    40112148:	f85f03a9 	ldur	x9, [x29, #-16]
    4011214c:	aa1903ea 	mov	x10, x25
    40112150:	8b090269 	add	x9, x19, x9
    40112154:	f8686a6b 	ldr	x11, [x19, x8]
    40112158:	f868692c 	ldr	x12, [x9, x8]
    4011215c:	d100054a 	sub	x10, x10, #0x1
    40112160:	f100055f 	cmp	x10, #0x1
    40112164:	f828692b 	str	x11, [x9, x8]
    40112168:	f8286a6c 	str	x12, [x19, x8]
    4011216c:	91002108 	add	x8, x8, #0x8
    40112170:	54ffff2c 	b.gt	0x40112154
    40112174:	17ffffe7 	b	0x40112110
    40112178:	f85e83a9 	ldur	x9, [x29, #-24]
    4011217c:	38686a6a 	ldrb	w10, [x19, x8]
    40112180:	38686aeb 	ldrb	w11, [x23, x8]
    40112184:	d1000529 	sub	x9, x9, #0x1
    40112188:	f100053f 	cmp	x9, #0x1
    4011218c:	38286aea 	strb	w10, [x23, x8]
    40112190:	38286a6b 	strb	w11, [x19, x8]
    40112194:	91000508 	add	x8, x8, #0x1
    40112198:	54ffff2c 	b.gt	0x4011217c
    4011219c:	17ffffdd 	b	0x40112110
    401121a0:	a94b4ff4 	ldp	x20, x19, [sp, #176]
    401121a4:	a94a57f6 	ldp	x22, x21, [sp, #160]
    401121a8:	a9495ff8 	ldp	x24, x23, [sp, #144]
    401121ac:	a94867fa 	ldp	x26, x25, [sp, #128]
    401121b0:	a9476ffc 	ldp	x28, x27, [sp, #112]
    401121b4:	a9467bfd 	ldp	x29, x30, [sp, #96]
    401121b8:	910303ff 	add	sp, sp, #0xc0
    401121bc:	d65f03c0 	ret
    401121c0:	d0000148 	adrp	x8, 0x4013c000
    401121c4:	910f2108 	add	x8, x8, #0x3c8
    401121c8:	f9400109 	ldr	x9, [x8]
    401121cc:	b40000a9 	cbz	x9, 0x401121e0
    401121d0:	aa0903e8 	mov	x8, x9
    401121d4:	f9403529 	ldr	x9, [x9, #104]
    401121d8:	b5ffffc9 	cbnz	x9, 0x401121d0
    401121dc:	9101a108 	add	x8, x8, #0x68
    401121e0:	f9000100 	str	x0, [x8]
    401121e4:	f900341f 	str	xzr, [x0, #104]
    401121e8:	2a1f03e0 	mov	w0, wzr
    401121ec:	d65f03c0 	ret
    401121f0:	a9be7bfd 	stp	x29, x30, [sp, #-32]!
    401121f4:	f9000bf3 	str	x19, [sp, #16]
    401121f8:	910003fd 	mov	x29, sp
    401121fc:	b4000260 	cbz	x0, 0x40112248
    40112200:	d1000428 	sub	x8, x1, #0x1
    40112204:	b100491f 	cmn	x8, #0x12
    40112208:	54000069 	b.ls	0x40112214  // b.plast
    4011220c:	aa1f03e0 	mov	x0, xzr
    40112210:	1400000b 	b	0x4011223c
    40112214:	f9401808 	ldr	x8, [x0, #48]
    40112218:	b4ffffa8 	cbz	x8, 0x4011220c
    4011221c:	528201e9 	mov	w9, #0x100f                	// #4111
    40112220:	8b090029 	add	x9, x1, x9
    40112224:	d34cfd33 	lsr	x19, x9, #12
    40112228:	aa1303e1 	mov	x1, x19
    4011222c:	d63f0100 	blr	x8
    40112230:	b4000060 	cbz	x0, 0x4011223c
    40112234:	a9000013 	stp	x19, x0, [x0]
    40112238:	91004000 	add	x0, x0, #0x10
    4011223c:	f9400bf3 	ldr	x19, [sp, #16]
    40112240:	a8c27bfd 	ldp	x29, x30, [sp], #32
    40112244:	d65f03c0 	ret
    40112248:	90000041 	adrp	x1, 0x4011a000
    4011224c:	90000042 	adrp	x2, 0x4011a000
    40112250:	d0000024 	adrp	x4, 0x40118000
    40112254:	90000045 	adrp	x5, 0x4011a000
    40112258:	91106c21 	add	x1, x1, #0x41b
    4011225c:	91109842 	add	x2, x2, #0x426
    40112260:	912c6c84 	add	x4, x4, #0xb1b
    40112264:	912cf4a5 	add	x5, x5, #0xb3d
    40112268:	528010c3 	mov	w3, #0x86                  	// #134
    4011226c:	94000827 	bl	0x40114308
    40112270:	52800060 	mov	w0, #0x3                   	// #3
    40112274:	97ffc375 	bl	0x40103048
    40112278:	a9bf7bfd 	stp	x29, x30, [sp, #-16]!
    4011227c:	910003fd 	mov	x29, sp
    40112280:	b4000240 	cbz	x0, 0x401122c8
    40112284:	b40001e1 	cbz	x1, 0x401122c0
    40112288:	d344fc28 	lsr	x8, x1, #4
    4011228c:	f104011f 	cmp	x8, #0x100
    40112290:	54000309 	b.ls	0x401122f0  // b.plast
    40112294:	9274cc28 	and	x8, x1, #0xfffffffffffff000
    40112298:	d1400509 	sub	x9, x8, #0x1, lsl #12
    4011229c:	eb01011f 	cmp	x8, x1
    401122a0:	9a880128 	csel	x8, x9, x8, eq  // eq = none
    401122a4:	f9400501 	ldr	x1, [x8, #8]
    401122a8:	b4000381 	cbz	x1, 0x40112318
    401122ac:	f9400102 	ldr	x2, [x8]
    401122b0:	b4000482 	cbz	x2, 0x40112340
    401122b4:	f9401c03 	ldr	x3, [x0, #56]
    401122b8:	a8c17bfd 	ldp	x29, x30, [sp], #16
    401122bc:	d61f0060 	br	x3
    401122c0:	a8c17bfd 	ldp	x29, x30, [sp], #16
    401122c4:	d65f03c0 	ret
    401122c8:	90000041 	adrp	x1, 0x4011a000
    401122cc:	90000042 	adrp	x2, 0x4011a000
    401122d0:	d0000024 	adrp	x4, 0x40118000
    401122d4:	90000045 	adrp	x5, 0x4011a000
    401122d8:	91106c21 	add	x1, x1, #0x41b
    401122dc:	91109842 	add	x2, x2, #0x426
    401122e0:	912c6c84 	add	x4, x4, #0xb1b
    401122e4:	912cf4a5 	add	x5, x5, #0xb3d
    401122e8:	52801383 	mov	w3, #0x9c                  	// #156
    401122ec:	1400001f 	b	0x40112368
    401122f0:	90000041 	adrp	x1, 0x4011a000
    401122f4:	90000042 	adrp	x2, 0x4011a000
    401122f8:	d0000024 	adrp	x4, 0x40118000
    401122fc:	90000045 	adrp	x5, 0x4011a000
    40112300:	91106c21 	add	x1, x1, #0x41b
    40112304:	91109842 	add	x2, x2, #0x426
    40112308:	912c6c84 	add	x4, x4, #0xb1b
    4011230c:	9112cca5 	add	x5, x5, #0x4b3
    40112310:	52800ba3 	mov	w3, #0x5d                  	// #93
    40112314:	14000014 	b	0x40112364
    40112318:	90000041 	adrp	x1, 0x4011a000
    4011231c:	90000042 	adrp	x2, 0x4011a000
    40112320:	d0000024 	adrp	x4, 0x40118000
    40112324:	90000045 	adrp	x5, 0x4011a000
    40112328:	91106c21 	add	x1, x1, #0x41b
    4011232c:	91109842 	add	x2, x2, #0x426
    40112330:	912c6c84 	add	x4, x4, #0xb1b
    40112334:	9110b8a5 	add	x5, x5, #0x42e
    40112338:	52801443 	mov	w3, #0xa2                  	// #162
    4011233c:	1400000a 	b	0x40112364
    40112340:	90000041 	adrp	x1, 0x4011a000
    40112344:	90000042 	adrp	x2, 0x4011a000
    40112348:	d0000024 	adrp	x4, 0x40118000
    4011234c:	90000045 	adrp	x5, 0x4011a000
    40112350:	91106c21 	add	x1, x1, #0x41b
    40112354:	91109842 	add	x2, x2, #0x426
    40112358:	912c6c84 	add	x4, x4, #0xb1b
    4011235c:	911134a5 	add	x5, x5, #0x44d
    40112360:	52801463 	mov	w3, #0xa3                  	// #163
    40112364:	2a1f03e0 	mov	w0, wzr
    40112368:	940007e8 	bl	0x40114308
    4011236c:	52800060 	mov	w0, #0x3                   	// #3
    40112370:	97ffc336 	bl	0x40103048
    40112374:	a9bc7bfd 	stp	x29, x30, [sp, #-64]!
    40112378:	f9000bf7 	str	x23, [sp, #16]
    4011237c:	a90257f6 	stp	x22, x21, [sp, #32]
    40112380:	a9034ff4 	stp	x20, x19, [sp, #48]
    40112384:	910003fd 	mov	x29, sp
    40112388:	b4000820 	cbz	x0, 0x4011248c
    4011238c:	aa0203f5 	mov	x21, x2
    40112390:	aa0103f4 	mov	x20, x1
    40112394:	aa0003f3 	mov	x19, x0
    40112398:	b4000481 	cbz	x1, 0x40112428
    4011239c:	b4000655 	cbz	x21, 0x40112464
    401123a0:	d10006a8 	sub	x8, x21, #0x1
    401123a4:	b100491f 	cmn	x8, #0x12
    401123a8:	54000648 	b.hi	0x40112470  // b.pmore
    401123ac:	f9401a68 	ldr	x8, [x19, #48]
    401123b0:	b4000608 	cbz	x8, 0x40112470
    401123b4:	528201e9 	mov	w9, #0x100f                	// #4111
    401123b8:	8b0902a9 	add	x9, x21, x9
    401123bc:	d34cfd37 	lsr	x23, x9, #12
    401123c0:	aa1303e0 	mov	x0, x19
    401123c4:	aa1703e1 	mov	x1, x23
    401123c8:	d63f0100 	blr	x8
    401123cc:	b4000520 	cbz	x0, 0x40112470
    401123d0:	b1004016 	adds	x22, x0, #0x10
    401123d4:	a9000017 	stp	x23, x0, [x0]
    401123d8:	540004e0 	b.eq	0x40112474  // b.none
    401123dc:	d344fe88 	lsr	x8, x20, #4
    401123e0:	f104011f 	cmp	x8, #0x100
    401123e4:	540006c9 	b.ls	0x401124bc  // b.plast
    401123e8:	9274ce88 	and	x8, x20, #0xfffffffffffff000
    401123ec:	d1400509 	sub	x9, x8, #0x1, lsl #12
    401123f0:	eb14011f 	cmp	x8, x20
    401123f4:	9a880128 	csel	x8, x9, x8, eq  // eq = none
    401123f8:	a9402508 	ldp	x8, x9, [x8]
    401123fc:	aa1603e0 	mov	x0, x22
    40112400:	aa1403e1 	mov	x1, x20
    40112404:	cb140129 	sub	x9, x9, x20
    40112408:	8b083128 	add	x8, x9, x8, lsl #12
    4011240c:	eb15011f 	cmp	x8, x21
    40112410:	9a8882a2 	csel	x2, x21, x8, hi  // hi = pmore
    40112414:	97fff2ca 	bl	0x4010ef3c
    40112418:	aa1303e0 	mov	x0, x19
    4011241c:	aa1403e1 	mov	x1, x20
    40112420:	97ffff96 	bl	0x40112278
    40112424:	14000014 	b	0x40112474
    40112428:	d10006a8 	sub	x8, x21, #0x1
    4011242c:	b100491f 	cmn	x8, #0x12
    40112430:	54000208 	b.hi	0x40112470  // b.pmore
    40112434:	f9401a68 	ldr	x8, [x19, #48]
    40112438:	b40001c8 	cbz	x8, 0x40112470
    4011243c:	528201e9 	mov	w9, #0x100f                	// #4111
    40112440:	8b0902a9 	add	x9, x21, x9
    40112444:	d34cfd34 	lsr	x20, x9, #12
    40112448:	aa1303e0 	mov	x0, x19
    4011244c:	aa1403e1 	mov	x1, x20
    40112450:	d63f0100 	blr	x8
    40112454:	b40000e0 	cbz	x0, 0x40112470
    40112458:	a9000014 	stp	x20, x0, [x0]
    4011245c:	91004016 	add	x22, x0, #0x10
    40112460:	14000005 	b	0x40112474
    40112464:	aa1303e0 	mov	x0, x19
    40112468:	aa1403e1 	mov	x1, x20
    4011246c:	97ffff83 	bl	0x40112278
    40112470:	aa1f03f6 	mov	x22, xzr
    40112474:	aa1603e0 	mov	x0, x22
    40112478:	a9434ff4 	ldp	x20, x19, [sp, #48]
    4011247c:	a94257f6 	ldp	x22, x21, [sp, #32]
    40112480:	f9400bf7 	ldr	x23, [sp, #16]
    40112484:	a8c47bfd 	ldp	x29, x30, [sp], #64
    40112488:	d65f03c0 	ret
    4011248c:	90000041 	adrp	x1, 0x4011a000
    40112490:	90000042 	adrp	x2, 0x4011a000
    40112494:	d0000024 	adrp	x4, 0x40118000
    40112498:	90000045 	adrp	x5, 0x4011a000
    4011249c:	91106c21 	add	x1, x1, #0x41b
    401124a0:	91109842 	add	x2, x2, #0x426
    401124a4:	912c6c84 	add	x4, x4, #0xb1b
    401124a8:	912cf4a5 	add	x5, x5, #0xb3d
    401124ac:	52801583 	mov	w3, #0xac                  	// #172
    401124b0:	94000796 	bl	0x40114308
    401124b4:	52800060 	mov	w0, #0x3                   	// #3
    401124b8:	97ffc2e4 	bl	0x40103048
    401124bc:	90000041 	adrp	x1, 0x4011a000
    401124c0:	90000042 	adrp	x2, 0x4011a000
    401124c4:	d0000024 	adrp	x4, 0x40118000
    401124c8:	90000045 	adrp	x5, 0x4011a000
    401124cc:	91106c21 	add	x1, x1, #0x41b
    401124d0:	91109842 	add	x2, x2, #0x426
    401124d4:	912c6c84 	add	x4, x4, #0xb1b
    401124d8:	9112cca5 	add	x5, x5, #0x4b3
    401124dc:	52800ba3 	mov	w3, #0x5d                  	// #93
    401124e0:	2a1f03e0 	mov	w0, wzr
    401124e4:	17fffff3 	b	0x401124b0
    401124e8:	a9bd7bfd 	stp	x29, x30, [sp, #-48]!
    401124ec:	f9000bf5 	str	x21, [sp, #16]
    401124f0:	a9024ff4 	stp	x20, x19, [sp, #32]
    401124f4:	910003fd 	mov	x29, sp
    401124f8:	b40008e0 	cbz	x0, 0x40112614
    401124fc:	528002c8 	mov	w8, #0x16                  	// #22
    40112500:	b4000803 	cbz	x3, 0x40112600
    40112504:	aa0203f4 	mov	x20, x2
    40112508:	92400849 	and	x9, x2, #0x7
    4011250c:	b50007a9 	cbnz	x9, 0x40112600
    40112510:	d341fe89 	lsr	x9, x20, #1
    40112514:	9200f129 	and	x9, x9, #0x5555555555555555
    40112518:	cb090289 	sub	x9, x20, x9
    4011251c:	9200e52a 	and	x10, x9, #0x3333333333333333
    40112520:	d342fd29 	lsr	x9, x9, #2
    40112524:	9200e529 	and	x9, x9, #0x3333333333333333
    40112528:	8b090149 	add	x9, x10, x9
    4011252c:	8b491129 	add	x9, x9, x9, lsr #4
    40112530:	9200cd29 	and	x9, x9, #0xf0f0f0f0f0f0f0f
    40112534:	b200c3ea 	mov	x10, #0x101010101010101     	// #72340172838076673
    40112538:	9b0a7d29 	mul	x9, x9, x10
    4011253c:	d378fd29 	lsr	x9, x9, #56
    40112540:	f100053f 	cmp	x9, #0x1
    40112544:	540005e8 	b.hi	0x40112600  // b.pmore
    40112548:	aa0103f3 	mov	x19, x1
    4011254c:	f140069f 	cmp	x20, #0x1, lsl #12
    40112550:	54000069 	b.ls	0x4011255c  // b.plast
    40112554:	52820008 	mov	w8, #0x1000                	// #4096
    40112558:	1400000b 	b	0x40112584
    4011255c:	f140069f 	cmp	x20, #0x1, lsl #12
    40112560:	54000061 	b.ne	0x4011256c  // b.any
    40112564:	aa1f03e8 	mov	x8, xzr
    40112568:	14000007 	b	0x40112584
    4011256c:	f1003e9f 	cmp	x20, #0xf
    40112570:	52800208 	mov	w8, #0x10                  	// #16
    40112574:	1a9f97e9 	cset	w9, hi  // hi = pmore
    40112578:	f100429f 	cmp	x20, #0x10
    4011257c:	9a943114 	csel	x20, x8, x20, cc  // cc = lo, ul, last
    40112580:	d37ced28 	lsl	x8, x9, #4
    40112584:	8b030289 	add	x9, x20, x3
    40112588:	8b080129 	add	x9, x9, x8
    4011258c:	eb03013f 	cmp	x9, x3
    40112590:	54000062 	b.cs	0x4011259c  // b.hs, b.nlast
    40112594:	528002c8 	mov	w8, #0x16                  	// #22
    40112598:	1400001a 	b	0x40112600
    4011259c:	f9401808 	ldr	x8, [x0, #48]
    401125a0:	b40002e8 	cbz	x8, 0x401125fc
    401125a4:	913ffd29 	add	x9, x9, #0xfff
    401125a8:	d34cfd35 	lsr	x21, x9, #12
    401125ac:	aa1503e1 	mov	x1, x21
    401125b0:	d63f0100 	blr	x8
    401125b4:	b4000240 	cbz	x0, 0x401125fc
    401125b8:	8b000288 	add	x8, x20, x0
    401125bc:	91003d08 	add	x8, x8, #0xf
    401125c0:	cb1403e9 	neg	x9, x20
    401125c4:	8a090108 	and	x8, x8, x9
    401125c8:	d344fd09 	lsr	x9, x8, #4
    401125cc:	f104013f 	cmp	x9, #0x100
    401125d0:	f9000268 	str	x8, [x19]
    401125d4:	54000349 	b.ls	0x4011263c  // b.plast
    401125d8:	9274cd09 	and	x9, x8, #0xfffffffffffff000
    401125dc:	d140052a 	sub	x10, x9, #0x1, lsl #12
    401125e0:	eb08013f 	cmp	x9, x8
    401125e4:	9a890149 	csel	x9, x10, x9, eq  // eq = none
    401125e8:	eb09001f 	cmp	x0, x9
    401125ec:	540003c8 	b.hi	0x40112664  // b.pmore
    401125f0:	2a1f03e8 	mov	w8, wzr
    401125f4:	a9000135 	stp	x21, x0, [x9]
    401125f8:	14000002 	b	0x40112600
    401125fc:	52800188 	mov	w8, #0xc                   	// #12
    40112600:	a9424ff4 	ldp	x20, x19, [sp, #32]
    40112604:	f9400bf5 	ldr	x21, [sp, #16]
    40112608:	2a0803e0 	mov	w0, w8
    4011260c:	a8c37bfd 	ldp	x29, x30, [sp], #48
    40112610:	d65f03c0 	ret
    40112614:	90000041 	adrp	x1, 0x4011a000
    40112618:	90000042 	adrp	x2, 0x4011a000
    4011261c:	d0000024 	adrp	x4, 0x40118000
    40112620:	90000045 	adrp	x5, 0x4011a000
    40112624:	91106c21 	add	x1, x1, #0x41b
    40112628:	91109842 	add	x2, x2, #0x426
    4011262c:	912c6c84 	add	x4, x4, #0xb1b
    40112630:	912cf4a5 	add	x5, x5, #0xb3d
    40112634:	52801983 	mov	w3, #0xcc                  	// #204
    40112638:	14000015 	b	0x4011268c
    4011263c:	90000041 	adrp	x1, 0x4011a000
    40112640:	90000042 	adrp	x2, 0x4011a000
    40112644:	d0000024 	adrp	x4, 0x40118000
    40112648:	90000045 	adrp	x5, 0x4011a000
    4011264c:	91106c21 	add	x1, x1, #0x41b
    40112650:	91109842 	add	x2, x2, #0x426
    40112654:	912c6c84 	add	x4, x4, #0xb1b
    40112658:	9112cca5 	add	x5, x5, #0x4b3
    4011265c:	52800ba3 	mov	w3, #0x5d                  	// #93
    40112660:	1400000a 	b	0x40112688
    40112664:	90000041 	adrp	x1, 0x4011a000
    40112668:	90000042 	adrp	x2, 0x4011a000
    4011266c:	d0000024 	adrp	x4, 0x40118000
    40112670:	90000045 	adrp	x5, 0x4011a000
    40112674:	91106c21 	add	x1, x1, #0x41b
    40112678:	91109842 	add	x2, x2, #0x426
    4011267c:	912c6c84 	add	x4, x4, #0xb1b
    40112680:	911198a5 	add	x5, x5, #0x466
    40112684:	52802143 	mov	w3, #0x10a                 	// #266
    40112688:	2a1f03e0 	mov	w0, wzr
    4011268c:	9400071f 	bl	0x40114308
    40112690:	52800060 	mov	w0, #0x3                   	// #3
    40112694:	97ffc26d 	bl	0x40103048
    40112698:	a9bf7bfd 	stp	x29, x30, [sp, #-16]!
    4011269c:	910003fd 	mov	x29, sp
    401126a0:	b40001c0 	cbz	x0, 0x401126d8
    401126a4:	f9402808 	ldr	x8, [x0, #80]
    401126a8:	b4000128 	cbz	x8, 0x401126cc
    401126ac:	d63f0100 	blr	x8
    401126b0:	b7f800a0 	tbnz	x0, #63, 0x401126c4
    401126b4:	d374cc08 	lsl	x8, x0, #12
    401126b8:	d1004109 	sub	x9, x8, #0x10
    401126bc:	f100451f 	cmp	x8, #0x11
    401126c0:	9a89b3e0 	csel	x0, xzr, x9, lt  // lt = tstop
    401126c4:	a8c17bfd 	ldp	x29, x30, [sp], #16
    401126c8:	d65f03c0 	ret
    401126cc:	92800c00 	mov	x0, #0xffffffffffffff9f    	// #-97
    401126d0:	a8c17bfd 	ldp	x29, x30, [sp], #16
    401126d4:	d65f03c0 	ret
    401126d8:	90000041 	adrp	x1, 0x4011a000
    401126dc:	90000042 	adrp	x2, 0x4011a000
    401126e0:	d0000024 	adrp	x4, 0x40118000
    401126e4:	90000045 	adrp	x5, 0x4011a000
    401126e8:	91106c21 	add	x1, x1, #0x41b
    401126ec:	91109842 	add	x2, x2, #0x426
    401126f0:	912c6c84 	add	x4, x4, #0xb1b
    401126f4:	912cf4a5 	add	x5, x5, #0xb3d
    401126f8:	528022e3 	mov	w3, #0x117                 	// #279
    401126fc:	94000703 	bl	0x40114308
    40112700:	52800060 	mov	w0, #0x3                   	// #3
    40112704:	97ffc251 	bl	0x40103048
    40112708:	a9bf7bfd 	stp	x29, x30, [sp, #-16]!
    4011270c:	910003fd 	mov	x29, sp
    40112710:	b4000160 	cbz	x0, 0x4011273c
    40112714:	f9402c08 	ldr	x8, [x0, #88]
    40112718:	b40000c8 	cbz	x8, 0x40112730
    4011271c:	d63f0100 	blr	x8
    40112720:	b7f80040 	tbnz	x0, #63, 0x40112728
    40112724:	d374cc00 	lsl	x0, x0, #12
    40112728:	a8c17bfd 	ldp	x29, x30, [sp], #16
    4011272c:	d65f03c0 	ret
    40112730:	92800c00 	mov	x0, #0xffffffffffffff9f    	// #-97
    40112734:	a8c17bfd 	ldp	x29, x30, [sp], #16
    40112738:	d65f03c0 	ret
    4011273c:	90000041 	adrp	x1, 0x4011a000
    40112740:	90000042 	adrp	x2, 0x4011a000
    40112744:	d0000024 	adrp	x4, 0x40118000
    40112748:	90000045 	adrp	x5, 0x4011a000
    4011274c:	91106c21 	add	x1, x1, #0x41b
    40112750:	91109842 	add	x2, x2, #0x426
    40112754:	912c6c84 	add	x4, x4, #0xb1b
    40112758:	912cf4a5 	add	x5, x5, #0xb3d
    4011275c:	52802583 	mov	w3, #0x12c                 	// #300
    40112760:	940006ea 	bl	0x40114308
    40112764:	52800060 	mov	w0, #0x3                   	// #3
    40112768:	97ffc238 	bl	0x40103048
    4011276c:	a9bf7bfd 	stp	x29, x30, [sp, #-16]!
    40112770:	910003fd 	mov	x29, sp
    40112774:	b40000c0 	cbz	x0, 0x4011278c
    40112778:	f2402c3f 	tst	x1, #0xfff
    4011277c:	540001c1 	b.ne	0x401127b4  // b.any
    40112780:	f9401402 	ldr	x2, [x0, #40]
    40112784:	a8c17bfd 	ldp	x29, x30, [sp], #16
    40112788:	d61f0040 	br	x2
    4011278c:	90000041 	adrp	x1, 0x4011a000
    40112790:	90000042 	adrp	x2, 0x4011a000
    40112794:	d0000024 	adrp	x4, 0x40118000
    40112798:	90000045 	adrp	x5, 0x4011a000
    4011279c:	91106c21 	add	x1, x1, #0x41b
    401127a0:	91109842 	add	x2, x2, #0x426
    401127a4:	912c6c84 	add	x4, x4, #0xb1b
    401127a8:	912cf4a5 	add	x5, x5, #0xb3d
    401127ac:	528038a3 	mov	w3, #0x1c5                 	// #453
    401127b0:	1400000b 	b	0x401127dc
    401127b4:	90000041 	adrp	x1, 0x4011a000
    401127b8:	90000042 	adrp	x2, 0x4011a000
    401127bc:	d0000024 	adrp	x4, 0x40118000
    401127c0:	90000045 	adrp	x5, 0x4011a000
    401127c4:	91106c21 	add	x1, x1, #0x41b
    401127c8:	91109842 	add	x2, x2, #0x426
    401127cc:	912c6c84 	add	x4, x4, #0xb1b
    401127d0:	911208a5 	add	x5, x5, #0x482
    401127d4:	52803903 	mov	w3, #0x1c8                 	// #456
    401127d8:	2a1f03e0 	mov	w0, wzr
    401127dc:	940006cb 	bl	0x40114308
    401127e0:	52800060 	mov	w0, #0x3                   	// #3
    401127e4:	97ffc219 	bl	0x40103048
    401127e8:	d10083ff 	sub	sp, sp, #0x20
    401127ec:	a9017bfd 	stp	x29, x30, [sp, #16]
    401127f0:	910043fd 	add	x29, sp, #0x10
    401127f4:	b4000200 	cbz	x0, 0x40112834
    401127f8:	d374fc28 	lsr	x8, x1, #52
    401127fc:	b4000068 	cbz	x8, 0x40112808
    40112800:	aa1f03e0 	mov	x0, xzr
    40112804:	14000009 	b	0x40112828
    40112808:	f9400c08 	ldr	x8, [x0, #24]
    4011280c:	d374cc23 	lsl	x3, x1, #12
    40112810:	910023e1 	add	x1, sp, #0x8
    40112814:	52820002 	mov	w2, #0x1000                	// #4096
    40112818:	d63f0100 	blr	x8
    4011281c:	f94007e8 	ldr	x8, [sp, #8]
    40112820:	7100001f 	cmp	w0, #0x0
    40112824:	9a9f0100 	csel	x0, x8, xzr, eq  // eq = none
    40112828:	a9417bfd 	ldp	x29, x30, [sp, #16]
    4011282c:	910083ff 	add	sp, sp, #0x20
    40112830:	d65f03c0 	ret
    40112834:	90000041 	adrp	x1, 0x4011a000
    40112838:	90000042 	adrp	x2, 0x4011a000
    4011283c:	d0000024 	adrp	x4, 0x40118000
    40112840:	90000045 	adrp	x5, 0x4011a000
    40112844:	91106c21 	add	x1, x1, #0x41b
    40112848:	91109842 	add	x2, x2, #0x426
    4011284c:	912c6c84 	add	x4, x4, #0xb1b
    40112850:	912cf4a5 	add	x5, x5, #0xb3d
    40112854:	52803a23 	mov	w3, #0x1d1                 	// #465
    40112858:	940006ac 	bl	0x40114308
    4011285c:	52800060 	mov	w0, #0x3                   	// #3
    40112860:	97ffc1fa 	bl	0x40103048
    40112864:	a9bd7bfd 	stp	x29, x30, [sp, #-48]!
    40112868:	a90157f6 	stp	x22, x21, [sp, #16]
    4011286c:	a9024ff4 	stp	x20, x19, [sp, #32]
    40112870:	910003fd 	mov	x29, sp
    40112874:	b40004c0 	cbz	x0, 0x4011290c
    40112878:	aa0203f5 	mov	x21, x2
    4011287c:	aa0103f3 	mov	x19, x1
    40112880:	aa0003f4 	mov	x20, x0
    40112884:	b4000221 	cbz	x1, 0x401128c8
    40112888:	b40002f5 	cbz	x21, 0x401128e4
    4011288c:	f9400288 	ldr	x8, [x20]
    40112890:	aa1403e0 	mov	x0, x20
    40112894:	aa1503e1 	mov	x1, x21
    40112898:	d63f0100 	blr	x8
    4011289c:	aa0003f6 	mov	x22, x0
    401128a0:	b40002c0 	cbz	x0, 0x401128f8
    401128a4:	aa1603e0 	mov	x0, x22
    401128a8:	aa1303e1 	mov	x1, x19
    401128ac:	aa1503e2 	mov	x2, x21
    401128b0:	97fff1a3 	bl	0x4010ef3c
    401128b4:	f9401688 	ldr	x8, [x20, #40]
    401128b8:	aa1403e0 	mov	x0, x20
    401128bc:	aa1303e1 	mov	x1, x19
    401128c0:	d63f0100 	blr	x8
    401128c4:	1400000d 	b	0x401128f8
    401128c8:	f9400282 	ldr	x2, [x20]
    401128cc:	aa1403e0 	mov	x0, x20
    401128d0:	aa1503e1 	mov	x1, x21
    401128d4:	a9424ff4 	ldp	x20, x19, [sp, #32]
    401128d8:	a94157f6 	ldp	x22, x21, [sp, #16]
    401128dc:	a8c37bfd 	ldp	x29, x30, [sp], #48
    401128e0:	d61f0040 	br	x2
    401128e4:	f9401688 	ldr	x8, [x20, #40]
    401128e8:	aa1403e0 	mov	x0, x20
    401128ec:	aa1303e1 	mov	x1, x19
    401128f0:	d63f0100 	blr	x8
    401128f4:	aa1f03f6 	mov	x22, xzr
    401128f8:	aa1603e0 	mov	x0, x22
    401128fc:	a9424ff4 	ldp	x20, x19, [sp, #32]
    40112900:	a94157f6 	ldp	x22, x21, [sp, #16]
    40112904:	a8c37bfd 	ldp	x29, x30, [sp], #48
    40112908:	d65f03c0 	ret
    4011290c:	90000041 	adrp	x1, 0x4011a000
    40112910:	90000042 	adrp	x2, 0x4011a000
    40112914:	d0000024 	adrp	x4, 0x40118000
    40112918:	90000045 	adrp	x5, 0x4011a000
    4011291c:	91106c21 	add	x1, x1, #0x41b
    40112920:	91109842 	add	x2, x2, #0x426
    40112924:	912c6c84 	add	x4, x4, #0xb1b
    40112928:	912cf4a5 	add	x5, x5, #0xb3d
    4011292c:	52803c23 	mov	w3, #0x1e1                 	// #481
    40112930:	94000676 	bl	0x40114308
    40112934:	52800060 	mov	w0, #0x3                   	// #3
    40112938:	97ffc1c4 	bl	0x40103048
    4011293c:	a9be7bfd 	stp	x29, x30, [sp, #-32]!
    40112940:	a9014ff4 	stp	x20, x19, [sp, #16]
    40112944:	910003fd 	mov	x29, sp
    40112948:	9bc17c48 	umulh	x8, x2, x1
    4011294c:	eb0803ff 	cmp	xzr, x8
    40112950:	aa1f03f3 	mov	x19, xzr
    40112954:	54000181 	b.ne	0x40112984  // b.any
    40112958:	b40001e0 	cbz	x0, 0x40112994
    4011295c:	f9400008 	ldr	x8, [x0]
    40112960:	9b017c54 	mul	x20, x2, x1
    40112964:	aa1403e1 	mov	x1, x20
    40112968:	d63f0100 	blr	x8
    4011296c:	aa0003f3 	mov	x19, x0
    40112970:	b40000a0 	cbz	x0, 0x40112984
    40112974:	aa1303e0 	mov	x0, x19
    40112978:	2a1f03e1 	mov	w1, wzr
    4011297c:	aa1403e2 	mov	x2, x20
    40112980:	97fff176 	bl	0x4010ef58
    40112984:	aa1303e0 	mov	x0, x19
    40112988:	a9414ff4 	ldp	x20, x19, [sp, #16]
    4011298c:	a8c27bfd 	ldp	x29, x30, [sp], #32
    40112990:	d65f03c0 	ret
    40112994:	90000041 	adrp	x1, 0x4011a000
    40112998:	90000042 	adrp	x2, 0x4011a000
    4011299c:	d0000024 	adrp	x4, 0x40118000
    401129a0:	90000045 	adrp	x5, 0x4011a000
    401129a4:	91106c21 	add	x1, x1, #0x41b
    401129a8:	91109842 	add	x2, x2, #0x426
    401129ac:	912c6c84 	add	x4, x4, #0xb1b
    401129b0:	912cf4a5 	add	x5, x5, #0xb3d
    401129b4:	52803fa3 	mov	w3, #0x1fd                 	// #509
    401129b8:	94000654 	bl	0x40114308
    401129bc:	52800060 	mov	w0, #0x3                   	// #3
    401129c0:	97ffc1a2 	bl	0x40103048
    401129c4:	d10083ff 	sub	sp, sp, #0x20
    401129c8:	a9017bfd 	stp	x29, x30, [sp, #16]
    401129cc:	910043fd 	add	x29, sp, #0x10
    401129d0:	b4000180 	cbz	x0, 0x40112a00
    401129d4:	f9400c08 	ldr	x8, [x0, #24]
    401129d8:	aa0203e3 	mov	x3, x2
    401129dc:	aa0103e2 	mov	x2, x1
    401129e0:	910023e1 	add	x1, sp, #0x8
    401129e4:	d63f0100 	blr	x8
    401129e8:	f94007e8 	ldr	x8, [sp, #8]
    401129ec:	a9417bfd 	ldp	x29, x30, [sp, #16]
    401129f0:	7100001f 	cmp	w0, #0x0
    401129f4:	9a9f0100 	csel	x0, x8, xzr, eq  // eq = none
    401129f8:	910083ff 	add	sp, sp, #0x20
    401129fc:	d65f03c0 	ret
    40112a00:	90000041 	adrp	x1, 0x4011a000
    40112a04:	90000042 	adrp	x2, 0x4011a000
    40112a08:	d0000024 	adrp	x4, 0x40118000
    40112a0c:	90000045 	adrp	x5, 0x4011a000
    40112a10:	91106c21 	add	x1, x1, #0x41b
    40112a14:	91109842 	add	x2, x2, #0x426
    40112a18:	912c6c84 	add	x4, x4, #0xb1b
    40112a1c:	912cf4a5 	add	x5, x5, #0xb3d
    40112a20:	52804143 	mov	w3, #0x20a                 	// #522
    40112a24:	94000639 	bl	0x40114308
    40112a28:	52800060 	mov	w0, #0x3                   	// #3
    40112a2c:	97ffc187 	bl	0x40103048
    40112a30:	a9bf7bfd 	stp	x29, x30, [sp, #-16]!
    40112a34:	910003fd 	mov	x29, sp
    40112a38:	b4000160 	cbz	x0, 0x40112a64
    40112a3c:	f9402008 	ldr	x8, [x0, #64]
    40112a40:	b40000c8 	cbz	x8, 0x40112a58
    40112a44:	d63f0100 	blr	x8
    40112a48:	b7f80040 	tbnz	x0, #63, 0x40112a50
    40112a4c:	934cfc00 	asr	x0, x0, #12
    40112a50:	a8c17bfd 	ldp	x29, x30, [sp], #16
    40112a54:	d65f03c0 	ret
    40112a58:	92800c00 	mov	x0, #0xffffffffffffff9f    	// #-97
    40112a5c:	a8c17bfd 	ldp	x29, x30, [sp], #16
    40112a60:	d65f03c0 	ret
    40112a64:	90000041 	adrp	x1, 0x4011a000
    40112a68:	90000042 	adrp	x2, 0x4011a000
    40112a6c:	d0000024 	adrp	x4, 0x40118000
    40112a70:	90000045 	adrp	x5, 0x4011a000
    40112a74:	91106c21 	add	x1, x1, #0x41b
    40112a78:	91109842 	add	x2, x2, #0x426
    40112a7c:	912c6c84 	add	x4, x4, #0xb1b
    40112a80:	912cf4a5 	add	x5, x5, #0xb3d
    40112a84:	528042a3 	mov	w3, #0x215                 	// #533
    40112a88:	94000620 	bl	0x40114308
    40112a8c:	52800060 	mov	w0, #0x3                   	// #3
    40112a90:	97ffc16e 	bl	0x40103048
    40112a94:	a9bf7bfd 	stp	x29, x30, [sp, #-16]!
    40112a98:	910003fd 	mov	x29, sp
    40112a9c:	b4000160 	cbz	x0, 0x40112ac8
    40112aa0:	f9402408 	ldr	x8, [x0, #72]
    40112aa4:	b40000c8 	cbz	x8, 0x40112abc
    40112aa8:	d63f0100 	blr	x8
    40112aac:	b7f80040 	tbnz	x0, #63, 0x40112ab4
    40112ab0:	934cfc00 	asr	x0, x0, #12
    40112ab4:	a8c17bfd 	ldp	x29, x30, [sp], #16
    40112ab8:	d65f03c0 	ret
    40112abc:	92800c00 	mov	x0, #0xffffffffffffff9f    	// #-97
    40112ac0:	a8c17bfd 	ldp	x29, x30, [sp], #16
    40112ac4:	d65f03c0 	ret
    40112ac8:	90000041 	adrp	x1, 0x4011a000
    40112acc:	90000042 	adrp	x2, 0x4011a000
    40112ad0:	d0000024 	adrp	x4, 0x40118000
    40112ad4:	90000045 	adrp	x5, 0x4011a000
    40112ad8:	91106c21 	add	x1, x1, #0x41b
    40112adc:	91109842 	add	x2, x2, #0x426
    40112ae0:	912c6c84 	add	x4, x4, #0xb1b
    40112ae4:	912cf4a5 	add	x5, x5, #0xb3d
    40112ae8:	52804443 	mov	w3, #0x222                 	// #546
    40112aec:	94000607 	bl	0x40114308
    40112af0:	52800060 	mov	w0, #0x3                   	// #3
    40112af4:	97ffc155 	bl	0x40103048
    40112af8:	a9be7bfd 	stp	x29, x30, [sp, #-32]!
    40112afc:	a9014ff4 	stp	x20, x19, [sp, #16]
    40112b00:	910003fd 	mov	x29, sp
    40112b04:	d0000148 	adrp	x8, 0x4013c000
    40112b08:	f941e513 	ldr	x19, [x8, #968]
    40112b0c:	b4000193 	cbz	x19, 0x40112b3c
    40112b10:	aa1f03f4 	mov	x20, xzr
    40112b14:	14000003 	b	0x40112b20
    40112b18:	f9403673 	ldr	x19, [x19, #104]
    40112b1c:	b4000133 	cbz	x19, 0x40112b40
    40112b20:	f9402668 	ldr	x8, [x19, #72]
    40112b24:	b4ffffa8 	cbz	x8, 0x40112b18
    40112b28:	aa1303e0 	mov	x0, x19
    40112b2c:	d63f0100 	blr	x8
    40112b30:	8aa0fc08 	bic	x8, x0, x0, asr #63
    40112b34:	8b140114 	add	x20, x8, x20
    40112b38:	17fffff8 	b	0x40112b18
    40112b3c:	aa1f03f4 	mov	x20, xzr
    40112b40:	aa1403e0 	mov	x0, x20
    40112b44:	a9414ff4 	ldp	x20, x19, [sp, #16]
    40112b48:	a8c27bfd 	ldp	x29, x30, [sp], #32
    40112b4c:	d65f03c0 	ret
    40112b50:	a9be7bfd 	stp	x29, x30, [sp, #-32]!
    40112b54:	a9014ff4 	stp	x20, x19, [sp, #16]
    40112b58:	910003fd 	mov	x29, sp
    40112b5c:	d0000148 	adrp	x8, 0x4013c000
    40112b60:	f941e513 	ldr	x19, [x8, #968]
    40112b64:	b4000193 	cbz	x19, 0x40112b94
    40112b68:	aa1f03f4 	mov	x20, xzr
    40112b6c:	14000003 	b	0x40112b78
    40112b70:	f9403673 	ldr	x19, [x19, #104]
    40112b74:	b4000133 	cbz	x19, 0x40112b98
    40112b78:	f9402e68 	ldr	x8, [x19, #88]
    40112b7c:	b4ffffa8 	cbz	x8, 0x40112b70
    40112b80:	aa1303e0 	mov	x0, x19
    40112b84:	d63f0100 	blr	x8
    40112b88:	8aa0fc08 	bic	x8, x0, x0, asr #63
    40112b8c:	8b140114 	add	x20, x8, x20
    40112b90:	17fffff8 	b	0x40112b70
    40112b94:	aa1f03f4 	mov	x20, xzr
    40112b98:	aa1403e0 	mov	x0, x20
    40112b9c:	a9414ff4 	ldp	x20, x19, [sp, #16]
    40112ba0:	a8c27bfd 	ldp	x29, x30, [sp], #32
    40112ba4:	d65f03c0 	ret
    40112ba8:	a9bd7bfd 	stp	x29, x30, [sp, #-48]!
    40112bac:	f9000bf5 	str	x21, [sp, #16]
    40112bb0:	a9024ff4 	stp	x20, x19, [sp, #32]
    40112bb4:	910003fd 	mov	x29, sp
    40112bb8:	913ffc08 	add	x8, x0, #0xfff
    40112bbc:	8b010009 	add	x9, x0, x1
    40112bc0:	9274cd14 	and	x20, x8, #0xfffffffffffff000
    40112bc4:	9274cd35 	and	x21, x9, #0xfffffffffffff000
    40112bc8:	eb1402b3 	subs	x19, x21, x20
    40112bcc:	54000a09 	b.ls	0x40112d0c  // b.plast
    40112bd0:	91400688 	add	x8, x20, #0x1, lsl #12
    40112bd4:	eb0802bf 	cmp	x21, x8
    40112bd8:	540001c2 	b.cs	0x40112c10  // b.hs, b.nlast
    40112bdc:	90000041 	adrp	x1, 0x4011a000
    40112be0:	90000042 	adrp	x2, 0x4011a000
    40112be4:	90000044 	adrp	x4, 0x4011a000
    40112be8:	9113c821 	add	x1, x1, #0x4f2
    40112bec:	91140c42 	add	x2, x2, #0x503
    40112bf0:	91145884 	add	x4, x4, #0x516
    40112bf4:	52800020 	mov	w0, #0x1                   	// #1
    40112bf8:	52803fc3 	mov	w3, #0x1fe                 	// #510
    40112bfc:	52820005 	mov	w5, #0x1000                	// #4096
    40112c00:	aa1303e6 	mov	x6, x19
    40112c04:	940005c1 	bl	0x40114308
    40112c08:	aa1f03f4 	mov	x20, xzr
    40112c0c:	1400003b 	b	0x40112cf8
    40112c10:	52820002 	mov	w2, #0x1000                	// #4096
    40112c14:	aa1403e0 	mov	x0, x20
    40112c18:	2a1f03e1 	mov	w1, wzr
    40112c1c:	97fff0cf 	bl	0x4010ef58
    40112c20:	aa1f03e8 	mov	x8, xzr
    40112c24:	52800f09 	mov	w9, #0x78                  	// #120
    40112c28:	8b08028a 	add	x10, x20, x8
    40112c2c:	8b09028b 	add	x11, x20, x9
    40112c30:	91002129 	add	x9, x9, #0x8
    40112c34:	9108614c 	add	x12, x10, #0x218
    40112c38:	f108613f 	cmp	x9, #0x218
    40112c3c:	91006108 	add	x8, x8, #0x18
    40112c40:	f900016c 	str	x12, [x11]
    40112c44:	f901114b 	str	x11, [x10, #544]
    40112c48:	f9010d5f 	str	xzr, [x10, #536]
    40112c4c:	54fffee1 	b.ne	0x40112c28  // b.any
    40112c50:	90000008 	adrp	x8, 0x40112000
    40112c54:	90000009 	adrp	x9, 0x40112000
    40112c58:	9107c108 	add	x8, x8, #0x1f0
    40112c5c:	9124f129 	add	x9, x9, #0x93c
    40112c60:	9000000e 	adrp	x14, 0x40112000
    40112c64:	a9002688 	stp	x8, x9, [x20]
    40112c68:	b0000008 	adrp	x8, 0x40113000
    40112c6c:	913501ce 	add	x14, x14, #0xd40
    40112c70:	91000108 	add	x8, x8, #0x0
    40112c74:	9000000a 	adrp	x10, 0x40112000
    40112c78:	9000000b 	adrp	x11, 0x40112000
    40112c7c:	b0000009 	adrp	x9, 0x40113000
    40112c80:	a903228e 	stp	x14, x8, [x20, #48]
    40112c84:	b0000008 	adrp	x8, 0x40113000
    40112c88:	910dd14a 	add	x10, x10, #0x374
    40112c8c:	9113a16b 	add	x11, x11, #0x4e8
    40112c90:	9108f129 	add	x9, x9, #0x23c
    40112c94:	910a1108 	add	x8, x8, #0x284
    40112c98:	a9012e8a 	stp	x10, x11, [x20, #16]
    40112c9c:	9000000a 	adrp	x10, 0x40112000
    40112ca0:	a9052688 	stp	x8, x9, [x20, #80]
    40112ca4:	90000008 	adrp	x8, 0x40112000
    40112ca8:	911c214a 	add	x10, x10, #0x708
    40112cac:	911a6108 	add	x8, x8, #0x698
    40112cb0:	9000000c 	adrp	x12, 0x40112000
    40112cb4:	9000000d 	adrp	x13, 0x40112000
    40112cb8:	a9042a88 	stp	x8, x10, [x20, #64]
    40112cbc:	b0000008 	adrp	x8, 0x40113000
    40112cc0:	9127118c 	add	x12, x12, #0x9c4
    40112cc4:	9109e1ad 	add	x13, x13, #0x278
    40112cc8:	910c1108 	add	x8, x8, #0x304
    40112ccc:	aa1403e0 	mov	x0, x20
    40112cd0:	f9037e9f 	str	xzr, [x20, #1784]
    40112cd4:	a902368c 	stp	x12, x13, [x20, #32]
    40112cd8:	f9003288 	str	x8, [x20, #96]
    40112cdc:	97fffd39 	bl	0x401121c0
    40112ce0:	91400a81 	add	x1, x20, #0x2, lsl #12
    40112ce4:	eb0102bf 	cmp	x21, x1
    40112ce8:	54000089 	b.ls	0x40112cf8  // b.plast
    40112cec:	d1400a62 	sub	x2, x19, #0x2, lsl #12
    40112cf0:	aa1403e0 	mov	x0, x20
    40112cf4:	94000184 	bl	0x40113304
    40112cf8:	aa1403e0 	mov	x0, x20
    40112cfc:	a9424ff4 	ldp	x20, x19, [sp, #32]
    40112d00:	f9400bf5 	ldr	x21, [sp, #16]
    40112d04:	a8c37bfd 	ldp	x29, x30, [sp], #48
    40112d08:	d65f03c0 	ret
    40112d0c:	90000041 	adrp	x1, 0x4011a000
    40112d10:	90000042 	adrp	x2, 0x4011a000
    40112d14:	d0000024 	adrp	x4, 0x40118000
    40112d18:	90000045 	adrp	x5, 0x4011a000
    40112d1c:	9113c821 	add	x1, x1, #0x4f2
    40112d20:	91140c42 	add	x2, x2, #0x503
    40112d24:	912c6c84 	add	x4, x4, #0xb1b
    40112d28:	911430a5 	add	x5, x5, #0x50c
    40112d2c:	52803ec3 	mov	w3, #0x1f6                 	// #502
    40112d30:	2a1f03e0 	mov	w0, wzr
    40112d34:	94000575 	bl	0x40114308
    40112d38:	52800060 	mov	w0, #0x3                   	// #3
    40112d3c:	97ffc0c3 	bl	0x40103048
    40112d40:	a9bf7bfd 	stp	x29, x30, [sp, #-16]!
    40112d44:	910003fd 	mov	x29, sp
    40112d48:	b4001200 	cbz	x0, 0x40112f88
    40112d4c:	aa0003e8 	mov	x8, x0
    40112d50:	f100042a 	subs	x10, x1, #0x1
    40112d54:	9101c009 	add	x9, x0, #0x70
    40112d58:	540000e0 	b.eq	0x40112d74  // b.none
    40112d5c:	b40012a1 	cbz	x1, 0x40112fb0
    40112d60:	dac0114b 	clz	x11, x10
    40112d64:	5280080c 	mov	w12, #0x40                  	// #64
    40112d68:	d373fd4d 	lsr	x13, x10, #51
    40112d6c:	cb0b018a 	sub	x10, x12, x11
    40112d70:	b500014d 	cbnz	x13, 0x40112d98
    40112d74:	9101e10c 	add	x12, x8, #0x78
    40112d78:	aa0a03eb 	mov	x11, x10
    40112d7c:	f86b7980 	ldr	x0, [x12, x11, lsl #3]
    40112d80:	f940000d 	ldr	x13, [x0]
    40112d84:	b500022d 	cbnz	x13, 0x40112dc8
    40112d88:	9100056b 	add	x11, x11, #0x1
    40112d8c:	f100d17f 	cmp	x11, #0x34
    40112d90:	54ffff61 	b.ne	0x40112d7c  // b.any
    40112d94:	14000003 	b	0x40112da0
    40112d98:	f100d15f 	cmp	x10, #0x34
    40112d9c:	54000101 	b.ne	0x40112dbc  // b.any
    40112da0:	97ffea7d 	bl	0x4010d794
    40112da4:	aa0003e8 	mov	x8, x0
    40112da8:	52800189 	mov	w9, #0xc                   	// #12
    40112dac:	aa1f03e0 	mov	x0, xzr
    40112db0:	b9000109 	str	w9, [x8]
    40112db4:	a8c17bfd 	ldp	x29, x30, [sp], #16
    40112db8:	d65f03c0 	ret
    40112dbc:	8b0a0d2b 	add	x11, x9, x10, lsl #3
    40112dc0:	f9400560 	ldr	x0, [x11, #8]
    40112dc4:	aa0a03eb 	mov	x11, x10
    40112dc8:	f940000c 	ldr	x12, [x0]
    40112dcc:	8b0b0d2d 	add	x13, x9, x11, lsl #3
    40112dd0:	eb0a017f 	cmp	x11, x10
    40112dd4:	f90005ac 	str	x12, [x13, #8]
    40112dd8:	a940300d 	ldp	x13, x12, [x0]
    40112ddc:	f90005ac 	str	x12, [x13, #8]
    40112de0:	54000220 	b.eq	0x40112e24  // b.none
    40112de4:	8b0b0d08 	add	x8, x8, x11, lsl #3
    40112de8:	9101c108 	add	x8, x8, #0x70
    40112dec:	5280002c 	mov	w12, #0x1                   	// #1
    40112df0:	91002d6d 	add	x13, x11, #0xb
    40112df4:	9acd218d 	lsl	x13, x12, x13
    40112df8:	d100056b 	sub	x11, x11, #0x1
    40112dfc:	8b0d000e 	add	x14, x0, x13
    40112e00:	b90011cb 	str	w11, [x14, #16]
    40112e04:	f940010f 	ldr	x15, [x8]
    40112e08:	8b0d01cd 	add	x13, x14, x13
    40112e0c:	eb0b015f 	cmp	x10, x11
    40112e10:	a90021cf 	stp	x15, x8, [x14]
    40112e14:	b81fc1ab 	stur	w11, [x13, #-4]
    40112e18:	f90005ee 	str	x14, [x15, #8]
    40112e1c:	f81f850e 	str	x14, [x8], #-8
    40112e20:	54fffe81 	b.ne	0x40112df0  // b.any
    40112e24:	f943452b 	ldr	x11, [x9, #1672]
    40112e28:	b400096b 	cbz	x11, 0x40112f54
    40112e2c:	52800028 	mov	w8, #0x1                   	// #1
    40112e30:	9aca2108 	lsl	x8, x8, x10
    40112e34:	14000003 	b	0x40112e40
    40112e38:	f940016b 	ldr	x11, [x11]
    40112e3c:	b40008cb 	cbz	x11, 0x40112f54
    40112e40:	f940056a 	ldr	x10, [x11, #8]
    40112e44:	eb00015f 	cmp	x10, x0
    40112e48:	54ffff88 	b.hi	0x40112e38  // b.pmore
    40112e4c:	f940096c 	ldr	x12, [x11, #16]
    40112e50:	8b0c314c 	add	x12, x10, x12, lsl #12
    40112e54:	eb00019f 	cmp	x12, x0
    40112e58:	54ffff09 	b.ls	0x40112e38  // b.plast
    40112e5c:	8b08300d 	add	x13, x0, x8, lsl #12
    40112e60:	eb0c01bf 	cmp	x13, x12
    40112e64:	54000ba8 	b.hi	0x40112fd8  // b.pmore
    40112e68:	cb0a000a 	sub	x10, x0, x10
    40112e6c:	d352fd4f 	lsr	x15, x10, #18
    40112e70:	d34c4550 	ubfx	x16, x10, #12, #6
    40112e74:	8b4a310a 	add	x10, x8, x10, lsr #12
    40112e78:	d346fd4c 	lsr	x12, x10, #6
    40112e7c:	eb0c01ff 	cmp	x15, x12
    40112e80:	9240154a 	and	x10, x10, #0x3f
    40112e84:	54000101 	b.ne	0x40112ea4  // b.any
    40112e88:	f940116b 	ldr	x11, [x11, #32]
    40112e8c:	9280000c 	mov	x12, #0xffffffffffffffff    	// #-1
    40112e90:	9aca218a 	lsl	x10, x12, x10
    40112e94:	9ad0218c 	lsl	x12, x12, x16
    40112e98:	8a2a018a 	bic	x10, x12, x10
    40112e9c:	8b0f0d6b 	add	x11, x11, x15, lsl #3
    40112ea0:	14000025 	b	0x40112f34
    40112ea4:	f940116b 	ldr	x11, [x11, #32]
    40112ea8:	d37df1f1 	lsl	x17, x15, #3
    40112eac:	9280000d 	mov	x13, #0xffffffffffffffff    	// #-1
    40112eb0:	910005ee 	add	x14, x15, #0x1
    40112eb4:	f8716972 	ldr	x18, [x11, x17]
    40112eb8:	9ad021b0 	lsl	x16, x13, x16
    40112ebc:	eb0c01df 	cmp	x14, x12
    40112ec0:	aa100250 	orr	x16, x18, x16
    40112ec4:	f8316970 	str	x16, [x11, x17]
    40112ec8:	54000302 	b.cs	0x40112f28  // b.hs, b.nlast
    40112ecc:	aa2f03f0 	mvn	x16, x15
    40112ed0:	8b100190 	add	x16, x12, x16
    40112ed4:	f1000a1f 	cmp	x16, #0x2
    40112ed8:	540001a3 	b.cc	0x40112f0c  // b.lo, b.ul, b.last
    40112edc:	927ffa11 	and	x17, x16, #0xfffffffffffffffe
    40112ee0:	8b0f0d6f 	add	x15, x11, x15, lsl #3
    40112ee4:	8b1101ce 	add	x14, x14, x17
    40112ee8:	910041ef 	add	x15, x15, #0x10
    40112eec:	92800012 	mov	x18, #0xffffffffffffffff    	// #-1
    40112ef0:	aa1103e1 	mov	x1, x17
    40112ef4:	a93fc9f2 	stp	x18, x18, [x15, #-8]
    40112ef8:	f1000821 	subs	x1, x1, #0x2
    40112efc:	910041ef 	add	x15, x15, #0x10
    40112f00:	54ffffa1 	b.ne	0x40112ef4  // b.any
    40112f04:	eb11021f 	cmp	x16, x17
    40112f08:	540000e0 	b.eq	0x40112f24  // b.none
    40112f0c:	cb0c01cf 	sub	x15, x14, x12
    40112f10:	8b0e0d6e 	add	x14, x11, x14, lsl #3
    40112f14:	92800010 	mov	x16, #0xffffffffffffffff    	// #-1
    40112f18:	b10005ef 	adds	x15, x15, #0x1
    40112f1c:	f80085d0 	str	x16, [x14], #8
    40112f20:	54ffffc3 	b.cc	0x40112f18  // b.lo, b.ul, b.last
    40112f24:	aa0c03ee 	mov	x14, x12
    40112f28:	9aca21aa 	lsl	x10, x13, x10
    40112f2c:	aa2a03ea 	mvn	x10, x10
    40112f30:	8b0e0d6b 	add	x11, x11, x14, lsl #3
    40112f34:	f940016c 	ldr	x12, [x11]
    40112f38:	aa0a018a 	orr	x10, x12, x10
    40112f3c:	f900016a 	str	x10, [x11]
    40112f40:	f940012a 	ldr	x10, [x9]
    40112f44:	cb080148 	sub	x8, x10, x8
    40112f48:	f9000128 	str	x8, [x9]
    40112f4c:	a8c17bfd 	ldp	x29, x30, [sp], #16
    40112f50:	d65f03c0 	ret
    40112f54:	90000041 	adrp	x1, 0x4011a000
    40112f58:	90000042 	adrp	x2, 0x4011a000
    40112f5c:	d0000024 	adrp	x4, 0x40118000
    40112f60:	90000045 	adrp	x5, 0x4011a000
    40112f64:	9113c821 	add	x1, x1, #0x4f2
    40112f68:	91140c42 	add	x2, x2, #0x503
    40112f6c:	912c6c84 	add	x4, x4, #0xb1b
    40112f70:	911570a5 	add	x5, x5, #0x55c
    40112f74:	52801343 	mov	w3, #0x9a                  	// #154
    40112f78:	2a1f03e0 	mov	w0, wzr
    40112f7c:	940004e3 	bl	0x40114308
    40112f80:	52800060 	mov	w0, #0x3                   	// #3
    40112f84:	97ffc031 	bl	0x40103048
    40112f88:	90000041 	adrp	x1, 0x4011a000
    40112f8c:	90000042 	adrp	x2, 0x4011a000
    40112f90:	d0000024 	adrp	x4, 0x40118000
    40112f94:	d0000025 	adrp	x5, 0x40118000
    40112f98:	9113c821 	add	x1, x1, #0x4f2
    40112f9c:	91140c42 	add	x2, x2, #0x503
    40112fa0:	912c6c84 	add	x4, x4, #0xb1b
    40112fa4:	913c58a5 	add	x5, x5, #0xf16
    40112fa8:	52801e83 	mov	w3, #0xf4                  	// #244
    40112fac:	17fffff4 	b	0x40112f7c
    40112fb0:	90000041 	adrp	x1, 0x4011a000
    40112fb4:	90000042 	adrp	x2, 0x4011a000
    40112fb8:	d0000024 	adrp	x4, 0x40118000
    40112fbc:	90000045 	adrp	x5, 0x4011a000
    40112fc0:	9113c821 	add	x1, x1, #0x4f2
    40112fc4:	91140c42 	add	x2, x2, #0x503
    40112fc8:	912c6c84 	add	x4, x4, #0xb1b
    40112fcc:	91115ca5 	add	x5, x5, #0x457
    40112fd0:	52801b83 	mov	w3, #0xdc                  	// #220
    40112fd4:	17ffffe9 	b	0x40112f78
    40112fd8:	90000041 	adrp	x1, 0x4011a000
    40112fdc:	90000042 	adrp	x2, 0x4011a000
    40112fe0:	d0000024 	adrp	x4, 0x40118000
    40112fe4:	90000045 	adrp	x5, 0x4011a000
    40112fe8:	9113c821 	add	x1, x1, #0x4f2
    40112fec:	91140c42 	add	x2, x2, #0x503
    40112ff0:	912c6c84 	add	x4, x4, #0xb1b
    40112ff4:	9115c4a5 	add	x5, x5, #0x571
    40112ff8:	52801383 	mov	w3, #0x9c                  	// #156
    40112ffc:	17ffffdf 	b	0x40112f78
    40113000:	a9bd7bfd 	stp	x29, x30, [sp, #-48]!
    40113004:	a90157f6 	stp	x22, x21, [sp, #16]
    40113008:	a9024ff4 	stp	x20, x19, [sp, #32]
    4011300c:	910003fd 	mov	x29, sp
    40113010:	b4000d40 	cbz	x0, 0x401131b8
    40113014:	aa0103f4 	mov	x20, x1
    40113018:	f1000448 	subs	x8, x2, #0x1
    4011301c:	540000c0 	b.eq	0x40113034  // b.none
    40113020:	b4000e02 	cbz	x2, 0x401131e0
    40113024:	dac01108 	clz	x8, x8
    40113028:	52800809 	mov	w9, #0x40                  	// #64
    4011302c:	cb080135 	sub	x21, x9, x8
    40113030:	14000002 	b	0x40113038
    40113034:	aa1f03f5 	mov	x21, xzr
    40113038:	f2402e9f 	tst	x20, #0xfff
    4011303c:	54000e61 	b.ne	0x40113208  // b.any
    40113040:	9101c013 	add	x19, x0, #0x70
    40113044:	52800036 	mov	w22, #0x1                   	// #1
    40113048:	9ad522c2 	lsl	x2, x22, x21
    4011304c:	aa1303e0 	mov	x0, x19
    40113050:	aa1403e1 	mov	x1, x20
    40113054:	94000123 	bl	0x401134e0
    40113058:	910032a8 	add	x8, x21, #0xc
    4011305c:	9ac822c8 	lsl	x8, x22, x8
    40113060:	8b080288 	add	x8, x20, x8
    40113064:	f100cebf 	cmp	x21, #0x33
    40113068:	d1001108 	sub	x8, x8, #0x4
    4011306c:	540008e8 	b.hi	0x40113188  // b.pmore
    40113070:	5280002a 	mov	w10, #0x1                   	// #1
    40113074:	52800689 	mov	w9, #0x34                  	// #52
    40113078:	aa1403eb 	mov	x11, x20
    4011307c:	910032ac 	add	x12, x21, #0xc
    40113080:	9acc214d 	lsl	x13, x10, x12
    40113084:	ea0b01bf 	tst	x13, x11
    40113088:	54000360 	b.eq	0x401130f4  // b.none
    4011308c:	f943466e 	ldr	x14, [x19, #1672]
    40113090:	b40007ae 	cbz	x14, 0x40113184
    40113094:	cb0d016c 	sub	x12, x11, x13
    40113098:	14000003 	b	0x401130a4
    4011309c:	f94001ce 	ldr	x14, [x14]
    401130a0:	b400072e 	cbz	x14, 0x40113184
    401130a4:	f94005cd 	ldr	x13, [x14, #8]
    401130a8:	eb0c01bf 	cmp	x13, x12
    401130ac:	54ffff88 	b.hi	0x4011309c  // b.pmore
    401130b0:	f94009cf 	ldr	x15, [x14, #16]
    401130b4:	8b0f31af 	add	x15, x13, x15, lsl #12
    401130b8:	eb0c01ff 	cmp	x15, x12
    401130bc:	54ffff09 	b.ls	0x4011309c  // b.plast
    401130c0:	f94011ce 	ldr	x14, [x14, #32]
    401130c4:	cb0d018d 	sub	x13, x12, x13
    401130c8:	d34ffdaf 	lsr	x15, x13, #15
    401130cc:	927db5ef 	and	x15, x15, #0x1fffffffffff8
    401130d0:	f86f69ce 	ldr	x14, [x14, x15]
    401130d4:	d34cfdad 	lsr	x13, x13, #12
    401130d8:	9acd25cd 	lsr	x13, x14, x13
    401130dc:	3700054d 	tbnz	w13, #0, 0x40113184
    401130e0:	b940118d 	ldr	w13, [x12, #16]
    401130e4:	aa0c03f4 	mov	x20, x12
    401130e8:	eb0d02bf 	cmp	x21, x13
    401130ec:	540003a0 	b.eq	0x40113160  // b.none
    401130f0:	14000025 	b	0x40113184
    401130f4:	f943466e 	ldr	x14, [x19, #1672]
    401130f8:	b400046e 	cbz	x14, 0x40113184
    401130fc:	8b0d016c 	add	x12, x11, x13
    40113100:	14000003 	b	0x4011310c
    40113104:	f94001ce 	ldr	x14, [x14]
    40113108:	b40003ee 	cbz	x14, 0x40113184
    4011310c:	f94005cf 	ldr	x15, [x14, #8]
    40113110:	eb0c01ff 	cmp	x15, x12
    40113114:	54ffff88 	b.hi	0x40113104  // b.pmore
    40113118:	f94009d0 	ldr	x16, [x14, #16]
    4011311c:	8b1031f0 	add	x16, x15, x16, lsl #12
    40113120:	eb0c021f 	cmp	x16, x12
    40113124:	54ffff09 	b.ls	0x40113104  // b.plast
    40113128:	f94011ce 	ldr	x14, [x14, #32]
    4011312c:	cb0f018f 	sub	x15, x12, x15
    40113130:	d34ffdf0 	lsr	x16, x15, #15
    40113134:	927db610 	and	x16, x16, #0x1fffffffffff8
    40113138:	f87069ce 	ldr	x14, [x14, x16]
    4011313c:	d34cfdef 	lsr	x15, x15, #12
    40113140:	9acf25ce 	lsr	x14, x14, x15
    40113144:	3700020e 	tbnz	w14, #0, 0x40113184
    40113148:	b940118e 	ldr	w14, [x12, #16]
    4011314c:	eb0e02bf 	cmp	x21, x14
    40113150:	540001a1 	b.ne	0x40113184  // b.any
    40113154:	8b0d0188 	add	x8, x12, x13
    40113158:	d1001108 	sub	x8, x8, #0x4
    4011315c:	aa0b03f4 	mov	x20, x11
    40113160:	a940358b 	ldp	x11, x13, [x12]
    40113164:	910006b5 	add	x21, x21, #0x1
    40113168:	f100d2bf 	cmp	x21, #0x34
    4011316c:	f90001ab 	str	x11, [x13]
    40113170:	a9402d8c 	ldp	x12, x11, [x12]
    40113174:	f900058b 	str	x11, [x12, #8]
    40113178:	aa1403eb 	mov	x11, x20
    4011317c:	54fff801 	b.ne	0x4011307c  // b.any
    40113180:	14000003 	b	0x4011318c
    40113184:	aa0b03f4 	mov	x20, x11
    40113188:	aa1503e9 	mov	x9, x21
    4011318c:	b9001289 	str	w9, [x20, #16]
    40113190:	8b090e6a 	add	x10, x19, x9, lsl #3
    40113194:	f8408d4b 	ldr	x11, [x10, #8]!
    40113198:	a9002a8b 	stp	x11, x10, [x20]
    4011319c:	b9000109 	str	w9, [x8]
    401131a0:	f9000574 	str	x20, [x11, #8]
    401131a4:	f9000154 	str	x20, [x10]
    401131a8:	a9424ff4 	ldp	x20, x19, [sp, #32]
    401131ac:	a94157f6 	ldp	x22, x21, [sp, #16]
    401131b0:	a8c37bfd 	ldp	x29, x30, [sp], #48
    401131b4:	d65f03c0 	ret
    401131b8:	f0000021 	adrp	x1, 0x4011a000
    401131bc:	f0000022 	adrp	x2, 0x4011a000
    401131c0:	b0000024 	adrp	x4, 0x40118000
    401131c4:	b0000025 	adrp	x5, 0x40118000
    401131c8:	9113c821 	add	x1, x1, #0x4f2
    401131cc:	91140c42 	add	x2, x2, #0x503
    401131d0:	912c6c84 	add	x4, x4, #0xb1b
    401131d4:	913c58a5 	add	x5, x5, #0xf16
    401131d8:	528025c3 	mov	w3, #0x12e                 	// #302
    401131dc:	14000015 	b	0x40113230
    401131e0:	f0000021 	adrp	x1, 0x4011a000
    401131e4:	f0000022 	adrp	x2, 0x4011a000
    401131e8:	b0000024 	adrp	x4, 0x40118000
    401131ec:	f0000025 	adrp	x5, 0x4011a000
    401131f0:	9113c821 	add	x1, x1, #0x4f2
    401131f4:	91140c42 	add	x2, x2, #0x503
    401131f8:	912c6c84 	add	x4, x4, #0xb1b
    401131fc:	91115ca5 	add	x5, x5, #0x457
    40113200:	52801b83 	mov	w3, #0xdc                  	// #220
    40113204:	1400000a 	b	0x4011322c
    40113208:	f0000021 	adrp	x1, 0x4011a000
    4011320c:	f0000022 	adrp	x2, 0x4011a000
    40113210:	b0000024 	adrp	x4, 0x40118000
    40113214:	f0000025 	adrp	x5, 0x4011a000
    40113218:	9113c821 	add	x1, x1, #0x4f2
    4011321c:	91140c42 	add	x2, x2, #0x503
    40113220:	912c6c84 	add	x4, x4, #0xb1b
    40113224:	911700a5 	add	x5, x5, #0x5c0
    40113228:	528026c3 	mov	w3, #0x136                 	// #310
    4011322c:	2a1f03e0 	mov	w0, wzr
    40113230:	94000436 	bl	0x40114308
    40113234:	52800060 	mov	w0, #0x3                   	// #3
    40113238:	97ffbf84 	bl	0x40103048
    4011323c:	a9bf7bfd 	stp	x29, x30, [sp, #-16]!
    40113240:	910003fd 	mov	x29, sp
    40113244:	b4000080 	cbz	x0, 0x40113254
    40113248:	f9403800 	ldr	x0, [x0, #112]
    4011324c:	a8c17bfd 	ldp	x29, x30, [sp], #16
    40113250:	d65f03c0 	ret
    40113254:	f0000021 	adrp	x1, 0x4011a000
    40113258:	f0000022 	adrp	x2, 0x4011a000
    4011325c:	b0000024 	adrp	x4, 0x40118000
    40113260:	b0000025 	adrp	x5, 0x40118000
    40113264:	9113c821 	add	x1, x1, #0x4f2
    40113268:	91140c42 	add	x2, x2, #0x503
    4011326c:	912c6c84 	add	x4, x4, #0xb1b
    40113270:	913c58a5 	add	x5, x5, #0xf16
    40113274:	52802fe3 	mov	w3, #0x17f                 	// #383
    40113278:	94000424 	bl	0x40114308
    4011327c:	52800060 	mov	w0, #0x3                   	// #3
    40113280:	97ffbf72 	bl	0x40103048
    40113284:	a9bf7bfd 	stp	x29, x30, [sp, #-16]!
    40113288:	910003fd 	mov	x29, sp
    4011328c:	b4000240 	cbz	x0, 0x401132d4
    40113290:	aa1f03e9 	mov	x9, xzr
    40113294:	9101e00a 	add	x10, x0, #0x78
    40113298:	52800688 	mov	w8, #0x34                  	// #52
    4011329c:	f869794b 	ldr	x11, [x10, x9, lsl #3]
    401132a0:	f940016b 	ldr	x11, [x11]
    401132a4:	f100017f 	cmp	x11, #0x0
    401132a8:	9a890108 	csel	x8, x8, x9, eq  // eq = none
    401132ac:	91000529 	add	x9, x9, #0x1
    401132b0:	f100d13f 	cmp	x9, #0x34
    401132b4:	54ffff41 	b.ne	0x4011329c  // b.any
    401132b8:	52800029 	mov	w9, #0x1                   	// #1
    401132bc:	1ac82129 	lsl	w9, w9, w8
    401132c0:	93407d29 	sxtw	x9, w9
    401132c4:	f100d11f 	cmp	x8, #0x34
    401132c8:	9a8903e0 	csel	x0, xzr, x9, eq  // eq = none
    401132cc:	a8c17bfd 	ldp	x29, x30, [sp], #16
    401132d0:	d65f03c0 	ret
    401132d4:	f0000021 	adrp	x1, 0x4011a000
    401132d8:	f0000022 	adrp	x2, 0x4011a000
    401132dc:	b0000024 	adrp	x4, 0x40118000
    401132e0:	b0000025 	adrp	x5, 0x40118000
    401132e4:	9113c821 	add	x1, x1, #0x4f2
    401132e8:	91140c42 	add	x2, x2, #0x503
    401132ec:	912c6c84 	add	x4, x4, #0xb1b
    401132f0:	913c58a5 	add	x5, x5, #0xf16
    401132f4:	52802d83 	mov	w3, #0x16c                 	// #364
    401132f8:	94000404 	bl	0x40114308
    401132fc:	52800060 	mov	w0, #0x3                   	// #3
    40113300:	97ffbf52 	bl	0x40103048
    40113304:	a9bc7bfd 	stp	x29, x30, [sp, #-64]!
    40113308:	f9000bf7 	str	x23, [sp, #16]
    4011330c:	a90257f6 	stp	x22, x21, [sp, #32]
    40113310:	a9034ff4 	stp	x20, x19, [sp, #48]
    40113314:	910003fd 	mov	x29, sp
    40113318:	b4000b60 	cbz	x0, 0x40113484
    4011331c:	aa0103e6 	mov	x6, x1
    40113320:	b4000c61 	cbz	x1, 0x401134ac
    40113324:	913ffcc8 	add	x8, x6, #0xfff
    40113328:	8b0200c7 	add	x7, x6, x2
    4011332c:	9274cd17 	and	x23, x8, #0xfffffffffffff000
    40113330:	9274cce8 	and	x8, x7, #0xfffffffffffff000
    40113334:	aa0003f3 	mov	x19, x0
    40113338:	eb170108 	subs	x8, x8, x23
    4011333c:	54000142 	b.cs	0x40113364  // b.hs, b.nlast
    40113340:	f0000021 	adrp	x1, 0x4011a000
    40113344:	f0000022 	adrp	x2, 0x4011a000
    40113348:	f0000024 	adrp	x4, 0x4011a000
    4011334c:	9113c821 	add	x1, x1, #0x4f2
    40113350:	91140c42 	add	x2, x2, #0x503
    40113354:	9117b484 	add	x4, x4, #0x5ed
    40113358:	52800020 	mov	w0, #0x1                   	// #1
    4011335c:	52803303 	mov	w3, #0x198                 	// #408
    40113360:	1400000b 	b	0x4011338c
    40113364:	d34dfd09 	lsr	x9, x8, #13
    40113368:	b50001a9 	cbnz	x9, 0x4011339c
    4011336c:	f0000021 	adrp	x1, 0x4011a000
    40113370:	f0000022 	adrp	x2, 0x4011a000
    40113374:	f0000024 	adrp	x4, 0x4011a000
    40113378:	9113c821 	add	x1, x1, #0x4f2
    4011337c:	91140c42 	add	x2, x2, #0x503
    40113380:	91191484 	add	x4, x4, #0x645
    40113384:	52800020 	mov	w0, #0x1                   	// #1
    40113388:	528034a3 	mov	w3, #0x1a5                 	// #421
    4011338c:	aa1303e5 	mov	x5, x19
    40113390:	940003de 	bl	0x40114308
    40113394:	128002a0 	mov	w0, #0xffffffea            	// #-22
    40113398:	14000036 	b	0x40113470
    4011339c:	b2533bea 	mov	x10, #0xfffe00000000000     	// #1152886320234758144
    401133a0:	d37df109 	lsl	x9, x8, #3
    401133a4:	f290002a 	movk	x10, #0x8001
    401133a8:	f2a7ffea 	movk	x10, #0x3fff, lsl #16
    401133ac:	d1050129 	sub	x9, x9, #0x140
    401133b0:	9bca7d29 	umulh	x9, x9, x10
    401133b4:	d34bfd29 	lsr	x9, x9, #11
    401133b8:	528204ec 	mov	w12, #0x1027                	// #4135
    401133bc:	91001d2a 	add	x10, x9, #0x7
    401133c0:	8b4a0d8a 	add	x10, x12, x10, lsr #3
    401133c4:	5280050b 	mov	w11, #0x28                  	// #40
    401133c8:	92748d4a 	and	x10, x10, #0xfffffffff000
    401133cc:	aa0b02e0 	orr	x0, x23, x11
    401133d0:	d100a142 	sub	x2, x10, #0x28
    401133d4:	8b170154 	add	x20, x10, x23
    401133d8:	9101c275 	add	x21, x19, #0x70
    401133dc:	a90182e2 	stp	x2, x0, [x23, #24]
    401133e0:	a900a6f4 	stp	x20, x9, [x23, #8]
    401133e4:	f94346a9 	ldr	x9, [x21, #1672]
    401133e8:	52801fe1 	mov	w1, #0xff                  	// #255
    401133ec:	cb0a0116 	sub	x22, x8, x10
    401133f0:	f90002e9 	str	x9, [x23]
    401133f4:	f90346b7 	str	x23, [x21, #1672]
    401133f8:	97ffeed8 	bl	0x4010ef58
    401133fc:	f9400ae2 	ldr	x2, [x23, #16]
    40113400:	aa1503e0 	mov	x0, x21
    40113404:	aa1403e1 	mov	x1, x20
    40113408:	94000036 	bl	0x401134e0
    4011340c:	b4000316 	cbz	x22, 0x4011346c
    40113410:	9101c268 	add	x8, x19, #0x70
    40113414:	52800029 	mov	w9, #0x1                   	// #1
    40113418:	1400000b 	b	0x40113444
    4011341c:	5100358c 	sub	w12, w12, #0xd
    40113420:	b900128c 	str	w12, [x20, #16]
    40113424:	f940014d 	ldr	x13, [x10]
    40113428:	cb0b02d6 	sub	x22, x22, x11
    4011342c:	a9002a8d 	stp	x13, x10, [x20]
    40113430:	f90005b4 	str	x20, [x13, #8]
    40113434:	f9000154 	str	x20, [x10]
    40113438:	8b140174 	add	x20, x11, x20
    4011343c:	b81fc28c 	stur	w12, [x20, #-4]
    40113440:	b4000176 	cbz	x22, 0x4011346c
    40113444:	aa0803ea 	mov	x10, x8
    40113448:	5280018c 	mov	w12, #0xc                   	// #12
    4011344c:	9acc212b 	lsl	x11, x9, x12
    40113450:	9100058c 	add	x12, x12, #0x1
    40113454:	9acc26cd 	lsr	x13, x22, x12
    40113458:	9100214a 	add	x10, x10, #0x8
    4011345c:	b4fffe0d 	cbz	x13, 0x4011341c
    40113460:	8a14016d 	and	x13, x11, x20
    40113464:	b4ffff4d 	cbz	x13, 0x4011344c
    40113468:	17ffffed 	b	0x4011341c
    4011346c:	2a1f03e0 	mov	w0, wzr
    40113470:	a9434ff4 	ldp	x20, x19, [sp, #48]
    40113474:	a94257f6 	ldp	x22, x21, [sp, #32]
    40113478:	f9400bf7 	ldr	x23, [sp, #16]
    4011347c:	a8c47bfd 	ldp	x29, x30, [sp], #64
    40113480:	d65f03c0 	ret
    40113484:	f0000021 	adrp	x1, 0x4011a000
    40113488:	f0000022 	adrp	x2, 0x4011a000
    4011348c:	b0000024 	adrp	x4, 0x40118000
    40113490:	b0000025 	adrp	x5, 0x40118000
    40113494:	9113c821 	add	x1, x1, #0x4f2
    40113498:	91140c42 	add	x2, x2, #0x503
    4011349c:	912c6c84 	add	x4, x4, #0xb1b
    401134a0:	913c58a5 	add	x5, x5, #0xf16
    401134a4:	528031e3 	mov	w3, #0x18f                 	// #399
    401134a8:	1400000b 	b	0x401134d4
    401134ac:	f0000021 	adrp	x1, 0x4011a000
    401134b0:	f0000022 	adrp	x2, 0x4011a000
    401134b4:	b0000024 	adrp	x4, 0x40118000
    401134b8:	f0000025 	adrp	x5, 0x4011a000
    401134bc:	9113c821 	add	x1, x1, #0x4f2
    401134c0:	91140c42 	add	x2, x2, #0x503
    401134c4:	912c6c84 	add	x4, x4, #0xb1b
    401134c8:	9110e0a5 	add	x5, x5, #0x438
    401134cc:	52803203 	mov	w3, #0x190                 	// #400
    401134d0:	2a1f03e0 	mov	w0, wzr
    401134d4:	9400038d 	bl	0x40114308
    401134d8:	52800060 	mov	w0, #0x3                   	// #3
    401134dc:	97ffbedb 	bl	0x40103048
    401134e0:	a9bf7bfd 	stp	x29, x30, [sp, #-16]!
    401134e4:	910003fd 	mov	x29, sp
    401134e8:	f943440a 	ldr	x10, [x0, #1672]
    401134ec:	b500020a 	cbnz	x10, 0x4011352c
    401134f0:	f0000021 	adrp	x1, 0x4011a000
    401134f4:	f0000022 	adrp	x2, 0x4011a000
    401134f8:	b0000024 	adrp	x4, 0x40118000
    401134fc:	f0000025 	adrp	x5, 0x4011a000
    40113500:	9113c821 	add	x1, x1, #0x4f2
    40113504:	91140c42 	add	x2, x2, #0x503
    40113508:	912c6c84 	add	x4, x4, #0xb1b
    4011350c:	911570a5 	add	x5, x5, #0x55c
    40113510:	52801803 	mov	w3, #0xc0                  	// #192
    40113514:	2a1f03e0 	mov	w0, wzr
    40113518:	9400037c 	bl	0x40114308
    4011351c:	52800060 	mov	w0, #0x3                   	// #3
    40113520:	97ffbeca 	bl	0x40103048
    40113524:	f940014a 	ldr	x10, [x10]
    40113528:	b4fffe4a 	cbz	x10, 0x401134f0
    4011352c:	f9400548 	ldr	x8, [x10, #8]
    40113530:	eb01011f 	cmp	x8, x1
    40113534:	54ffff88 	b.hi	0x40113524  // b.pmore
    40113538:	f9400949 	ldr	x9, [x10, #16]
    4011353c:	8b093109 	add	x9, x8, x9, lsl #12
    40113540:	eb01013f 	cmp	x9, x1
    40113544:	54ffff09 	b.ls	0x40113524  // b.plast
    40113548:	8b02302b 	add	x11, x1, x2, lsl #12
    4011354c:	eb09017f 	cmp	x11, x9
    40113550:	54000708 	b.hi	0x40113630  // b.pmore
    40113554:	cb080028 	sub	x8, x1, x8
    40113558:	d352fd0d 	lsr	x13, x8, #18
    4011355c:	d34c450e 	ubfx	x14, x8, #12, #6
    40113560:	8b483048 	add	x8, x2, x8, lsr #12
    40113564:	d346fd09 	lsr	x9, x8, #6
    40113568:	eb0901bf 	cmp	x13, x9
    4011356c:	92401508 	and	x8, x8, #0x3f
    40113570:	54000101 	b.ne	0x40113590  // b.any
    40113574:	f940114a 	ldr	x10, [x10, #32]
    40113578:	92800009 	mov	x9, #0xffffffffffffffff    	// #-1
    4011357c:	9ac82128 	lsl	x8, x9, x8
    40113580:	9ace2129 	lsl	x9, x9, x14
    40113584:	aa290108 	orn	x8, x8, x9
    40113588:	8b0d0d49 	add	x9, x10, x13, lsl #3
    4011358c:	14000021 	b	0x40113610
    40113590:	f940114a 	ldr	x10, [x10, #32]
    40113594:	d37df1af 	lsl	x15, x13, #3
    40113598:	9280000b 	mov	x11, #0xffffffffffffffff    	// #-1
    4011359c:	910005ac 	add	x12, x13, #0x1
    401135a0:	f86f6950 	ldr	x16, [x10, x15]
    401135a4:	9ace216e 	lsl	x14, x11, x14
    401135a8:	eb09019f 	cmp	x12, x9
    401135ac:	8a2e020e 	bic	x14, x16, x14
    401135b0:	f82f694e 	str	x14, [x10, x15]
    401135b4:	540002a0 	b.eq	0x40113608  // b.none
    401135b8:	aa2d03ee 	mvn	x14, x13
    401135bc:	8b0e012e 	add	x14, x9, x14
    401135c0:	f10009df 	cmp	x14, #0x2
    401135c4:	54000183 	b.cc	0x401135f4  // b.lo, b.ul, b.last
    401135c8:	927ff9cf 	and	x15, x14, #0xfffffffffffffffe
    401135cc:	8b0d0d4d 	add	x13, x10, x13, lsl #3
    401135d0:	8b0f018c 	add	x12, x12, x15
    401135d4:	910041ad 	add	x13, x13, #0x10
    401135d8:	aa0f03f0 	mov	x16, x15
    401135dc:	a93ffdbf 	stp	xzr, xzr, [x13, #-8]
    401135e0:	f1000a10 	subs	x16, x16, #0x2
    401135e4:	910041ad 	add	x13, x13, #0x10
    401135e8:	54ffffa1 	b.ne	0x401135dc  // b.any
    401135ec:	eb0f01df 	cmp	x14, x15
    401135f0:	540000c0 	b.eq	0x40113608  // b.none
    401135f4:	cb09018d 	sub	x13, x12, x9
    401135f8:	8b0c0d4c 	add	x12, x10, x12, lsl #3
    401135fc:	b10005ad 	adds	x13, x13, #0x1
    40113600:	f800859f 	str	xzr, [x12], #8
    40113604:	54ffffc3 	b.cc	0x401135fc  // b.lo, b.ul, b.last
    40113608:	9ac82168 	lsl	x8, x11, x8
    4011360c:	8b090d49 	add	x9, x10, x9, lsl #3
    40113610:	f940012a 	ldr	x10, [x9]
    40113614:	8a080148 	and	x8, x10, x8
    40113618:	f9000128 	str	x8, [x9]
    4011361c:	f9400008 	ldr	x8, [x0]
    40113620:	8b020108 	add	x8, x8, x2
    40113624:	f9000008 	str	x8, [x0]
    40113628:	a8c17bfd 	ldp	x29, x30, [sp], #16
    4011362c:	d65f03c0 	ret
    40113630:	f0000021 	adrp	x1, 0x4011a000
    40113634:	f0000022 	adrp	x2, 0x4011a000
    40113638:	b0000024 	adrp	x4, 0x40118000
    4011363c:	f0000025 	adrp	x5, 0x4011a000
    40113640:	9113c821 	add	x1, x1, #0x4f2
    40113644:	91140c42 	add	x2, x2, #0x503
    40113648:	912c6c84 	add	x4, x4, #0xb1b
    4011364c:	9115c4a5 	add	x5, x5, #0x571
    40113650:	52801843 	mov	w3, #0xc2                  	// #194
    40113654:	17ffffb0 	b	0x40113514
    40113658:	a9bf7bfd 	stp	x29, x30, [sp, #-16]!
    4011365c:	910003fd 	mov	x29, sp
    40113660:	b4000960 	cbz	x0, 0x4011378c
    40113664:	b4000a82 	cbz	x2, 0x401137b4
    40113668:	37f80ba3 	tbnz	w3, #31, 0x401137dc
    4011366c:	2a1f03e8 	mov	w8, wzr
    40113670:	34000883 	cbz	w3, 0x40113780
    40113674:	b4000861 	cbz	x1, 0x40113780
    40113678:	d285c00b 	mov	x11, #0x2e00                	// #11776
    4011367c:	aa1f03e9 	mov	x9, xzr
    40113680:	2a1f03ef 	mov	w15, wzr
    40113684:	2a1f03e8 	mov	w8, wzr
    40113688:	5280002a 	mov	w10, #0x1                   	// #1
    4011368c:	f2c0002b 	movk	x11, #0x1, lsl #32
    40113690:	d2c0108c 	mov	x12, #0x8400000000          	// #566935683072
    40113694:	5280002d 	mov	w13, #0x1                   	// #1
    40113698:	8b090010 	add	x16, x0, x9
    4011369c:	3940020e 	ldrb	w14, [x16]
    401136a0:	71009ddf 	cmp	w14, #0x27
    401136a4:	540000c8 	b.hi	0x401136bc  // b.pmore
    401136a8:	9ace2151 	lsl	x17, x10, x14
    401136ac:	ea0b023f 	tst	x17, x11
    401136b0:	54000180 	b.eq	0x401136e0  // b.none
    401136b4:	72001dff 	tst	w15, #0xff
    401136b8:	54000360 	b.eq	0x40113724  // b.none
    401136bc:	340000ad 	cbz	w13, 0x401136d0
    401136c0:	1100050e 	add	w14, w8, #0x1
    401136c4:	2a1f03ed 	mov	w13, wzr
    401136c8:	f828d850 	str	x16, [x2, w8, sxtw #3]
    401136cc:	2a0e03e8 	mov	w8, w14
    401136d0:	2a0f03ee 	mov	w14, w15
    401136d4:	6b03011f 	cmp	w8, w3
    401136d8:	540004cb 	b.lt	0x40113770  // b.tstop
    401136dc:	14000029 	b	0x40113780
    401136e0:	9ace2151 	lsl	x17, x10, x14
    401136e4:	ea0c023f 	tst	x17, x12
    401136e8:	540002a0 	b.eq	0x4011373c  // b.none
    401136ec:	72001dff 	tst	w15, #0xff
    401136f0:	540002a0 	b.eq	0x40113744  // b.none
    401136f4:	6b2f01df 	cmp	w14, w15, uxtb
    401136f8:	54fffe21 	b.ne	0x401136bc  // b.any
    401136fc:	aa0903ee 	mov	x14, x9
    40113700:	8b0e0010 	add	x16, x0, x14
    40113704:	3940060f 	ldrb	w15, [x16, #1]
    40113708:	910005ce 	add	x14, x14, #0x1
    4011370c:	eb0101df 	cmp	x14, x1
    40113710:	3900020f 	strb	w15, [x16]
    40113714:	54000042 	b.cs	0x4011371c  // b.hs, b.nlast
    40113718:	35ffff4f 	cbnz	w15, 0x40113700
    4011371c:	2a1f03ee 	mov	w14, wzr
    40113720:	14000011 	b	0x40113764
    40113724:	2a1f03ee 	mov	w14, wzr
    40113728:	3900021f 	strb	wzr, [x16]
    4011372c:	5280002d 	mov	w13, #0x1                   	// #1
    40113730:	6b03011f 	cmp	w8, w3
    40113734:	540001eb 	b.lt	0x40113770  // b.tstop
    40113738:	14000012 	b	0x40113780
    4011373c:	b5fffc0e 	cbnz	x14, 0x401136bc
    40113740:	14000010 	b	0x40113780
    40113744:	aa0903ef 	mov	x15, x9
    40113748:	8b0f0011 	add	x17, x0, x15
    4011374c:	39400630 	ldrb	w16, [x17, #1]
    40113750:	910005ef 	add	x15, x15, #0x1
    40113754:	eb0101ff 	cmp	x15, x1
    40113758:	39000230 	strb	w16, [x17]
    4011375c:	54000042 	b.cs	0x40113764  // b.hs, b.nlast
    40113760:	35ffff50 	cbnz	w16, 0x40113748
    40113764:	d1000529 	sub	x9, x9, #0x1
    40113768:	6b03011f 	cmp	w8, w3
    4011376c:	540000aa 	b.ge	0x40113780  // b.tcont
    40113770:	91000529 	add	x9, x9, #0x1
    40113774:	eb01013f 	cmp	x9, x1
    40113778:	2a0e03ef 	mov	w15, w14
    4011377c:	54fff8e3 	b.cc	0x40113698  // b.lo, b.ul, b.last
    40113780:	2a0803e0 	mov	w0, w8
    40113784:	a8c17bfd 	ldp	x29, x30, [sp], #16
    40113788:	d65f03c0 	ret
    4011378c:	f0000021 	adrp	x1, 0x4011a000
    40113790:	f0000022 	adrp	x2, 0x4011a000
    40113794:	b0000024 	adrp	x4, 0x40118000
    40113798:	f0000025 	adrp	x5, 0x4011a000
    4011379c:	911a8021 	add	x1, x1, #0x6a0
    401137a0:	911ab842 	add	x2, x2, #0x6ae
    401137a4:	912c6c84 	add	x4, x4, #0xb1b
    401137a8:	911ae4a5 	add	x5, x5, #0x6b9
    401137ac:	528006a3 	mov	w3, #0x35                  	// #53
    401137b0:	14000015 	b	0x40113804
    401137b4:	f0000021 	adrp	x1, 0x4011a000
    401137b8:	f0000022 	adrp	x2, 0x4011a000
    401137bc:	b0000024 	adrp	x4, 0x40118000
    401137c0:	f0000025 	adrp	x5, 0x4011a000
    401137c4:	911a8021 	add	x1, x1, #0x6a0
    401137c8:	911ab842 	add	x2, x2, #0x6ae
    401137cc:	912c6c84 	add	x4, x4, #0xb1b
    401137d0:	911b38a5 	add	x5, x5, #0x6ce
    401137d4:	528006c3 	mov	w3, #0x36                  	// #54
    401137d8:	1400000a 	b	0x40113800
    401137dc:	f0000021 	adrp	x1, 0x4011a000
    401137e0:	f0000022 	adrp	x2, 0x4011a000
    401137e4:	b0000024 	adrp	x4, 0x40118000
    401137e8:	f0000025 	adrp	x5, 0x4011a000
    401137ec:	911a8021 	add	x1, x1, #0x6a0
    401137f0:	911ab842 	add	x2, x2, #0x6ae
    401137f4:	912c6c84 	add	x4, x4, #0xb1b
    401137f8:	911b8ca5 	add	x5, x5, #0x6e3
    401137fc:	528006e3 	mov	w3, #0x37                  	// #55
    40113800:	2a1f03e0 	mov	w0, wzr
    40113804:	940002c1 	bl	0x40114308
    40113808:	52800060 	mov	w0, #0x3                   	// #3
    4011380c:	97ffbe0f 	bl	0x40103048
    40113810:	a9be7bfd 	stp	x29, x30, [sp, #-32]!
    40113814:	f9000bf3 	str	x19, [sp, #16]
    40113818:	910003fd 	mov	x29, sp
    4011381c:	b40000c0 	cbz	x0, 0x40113834
    40113820:	b0000148 	adrp	x8, 0x4013c000
    40113824:	52800033 	mov	w19, #0x1                   	// #1
    40113828:	f901e900 	str	x0, [x8, #976]
    4011382c:	b5000081 	cbnz	x1, 0x4011383c
    40113830:	14000010 	b	0x40113870
    40113834:	2a1f03f3 	mov	w19, wzr
    40113838:	b40001c1 	cbz	x1, 0x40113870
    4011383c:	b40001a2 	cbz	x2, 0x40113870
    40113840:	b0000148 	adrp	x8, 0x4013c000
    40113844:	910f4108 	add	x8, x8, #0x3d0
    40113848:	f100001f 	cmp	x0, #0x0
    4011384c:	9100210a 	add	x10, x8, #0x8
    40113850:	52800769 	mov	w9, #0x3b                  	// #59
    40113854:	9a881148 	csel	x8, x10, x8, ne  // ne = any
    40113858:	1a891523 	cinc	w3, w9, eq  // eq = none
    4011385c:	aa0103e0 	mov	x0, x1
    40113860:	aa0203e1 	mov	x1, x2
    40113864:	aa0803e2 	mov	x2, x8
    40113868:	97ffff7c 	bl	0x40113658
    4011386c:	0b130013 	add	w19, w0, w19
    40113870:	b0000141 	adrp	x1, 0x4013c000
    40113874:	910f4021 	add	x1, x1, #0x3d0
    40113878:	2a1303e0 	mov	w0, w19
    4011387c:	94000001 	bl	0x40113880
    40113880:	d101c3ff 	sub	sp, sp, #0x70
    40113884:	a9037bfd 	stp	x29, x30, [sp, #48]
    40113888:	a9045ff8 	stp	x24, x23, [sp, #64]
    4011388c:	a90557f6 	stp	x22, x21, [sp, #80]
    40113890:	a9064ff4 	stp	x20, x19, [sp, #96]
    40113894:	9100c3fd 	add	x29, sp, #0x30
    40113898:	90000035 	adrp	x21, 0x40117000
    4011389c:	90000028 	adrp	x8, 0x40117000
    401138a0:	9100a2b5 	add	x21, x21, #0x28
    401138a4:	91000108 	add	x8, x8, #0x0
    401138a8:	aa0103f3 	mov	x19, x1
    401138ac:	eb15011f 	cmp	x8, x21
    401138b0:	2a0003f4 	mov	w20, w0
    401138b4:	54000122 	b.cs	0x401138d8  // b.hs, b.nlast
    401138b8:	90000036 	adrp	x22, 0x40117000
    401138bc:	910002d6 	add	x22, x22, #0x0
    401138c0:	f94002c8 	ldr	x8, [x22]
    401138c4:	b4000c68 	cbz	x8, 0x40113a50
    401138c8:	d63f0100 	blr	x8
    401138cc:	910022d6 	add	x22, x22, #0x8
    401138d0:	eb1502df 	cmp	x22, x21
    401138d4:	54ffff63 	b.cc	0x401138c0  // b.lo, b.ul, b.last
    401138d8:	97ffbde7 	bl	0x40103074
    401138dc:	37f80900 	tbnz	w0, #31, 0x401139fc
    401138e0:	2a0003f6 	mov	w22, w0
    401138e4:	910023e1 	add	x1, sp, #0x8
    401138e8:	2a1f03e0 	mov	w0, wzr
    401138ec:	97ffbdec 	bl	0x4010309c
    401138f0:	2a1f03f5 	mov	w21, wzr
    401138f4:	340001b6 	cbz	w22, 0x40113928
    401138f8:	52800637 	mov	w23, #0x31                  	// #49
    401138fc:	14000007 	b	0x40113918
    40113900:	110006b5 	add	w21, w21, #0x1
    40113904:	910023e1 	add	x1, sp, #0x8
    40113908:	2a1503e0 	mov	w0, w21
    4011390c:	97ffbde4 	bl	0x4010309c
    40113910:	6b1502df 	cmp	w22, w21
    40113914:	54000740 	b.eq	0x401139fc  // b.none
    40113918:	37ffff40 	tbnz	w0, #31, 0x40113900
    4011391c:	b9401be8 	ldr	w8, [sp, #24]
    40113920:	6a2802ff 	bics	wzr, w23, w8
    40113924:	54fffee1 	b.ne	0x40113900  // b.any
    40113928:	6b1602bf 	cmp	w21, w22
    4011392c:	aa1f03f6 	mov	x22, xzr
    40113930:	54000680 	b.eq	0x40113a00  // b.none
    40113934:	37f80675 	tbnz	w21, #31, 0x40113a00
    40113938:	aa1f03f6 	mov	x22, xzr
    4011393c:	52800638 	mov	w24, #0x31                  	// #49
    40113940:	a9408be1 	ldp	x1, x2, [sp, #8]
    40113944:	b50000d6 	cbnz	x22, 0x4011395c
    40113948:	aa0103e0 	mov	x0, x1
    4011394c:	aa0203e1 	mov	x1, x2
    40113950:	97fffc96 	bl	0x40112ba8
    40113954:	aa0003f6 	mov	x22, x0
    40113958:	14000005 	b	0x4011396c
    4011395c:	f94032c8 	ldr	x8, [x22, #96]
    40113960:	b4000068 	cbz	x8, 0x4011396c
    40113964:	aa1603e0 	mov	x0, x22
    40113968:	d63f0100 	blr	x8
    4011396c:	97ffbdc2 	bl	0x40103074
    40113970:	6b15001f 	cmp	w0, w21
    40113974:	540002cd 	b.le	0x401139cc
    40113978:	110006b5 	add	w21, w21, #0x1
    4011397c:	2a0003f7 	mov	w23, w0
    40113980:	910023e1 	add	x1, sp, #0x8
    40113984:	2a1503e0 	mov	w0, w21
    40113988:	97ffbdc5 	bl	0x4010309c
    4011398c:	6b1702bf 	cmp	w21, w23
    40113990:	5400018a 	b.ge	0x401139c0  // b.tcont
    40113994:	37f80080 	tbnz	w0, #31, 0x401139a4
    40113998:	b9401be8 	ldr	w8, [sp, #24]
    4011399c:	6a28031f 	bics	wzr, w24, w8
    401139a0:	54000100 	b.eq	0x401139c0  // b.none
    401139a4:	110006b5 	add	w21, w21, #0x1
    401139a8:	910023e1 	add	x1, sp, #0x8
    401139ac:	2a1503e0 	mov	w0, w21
    401139b0:	97ffbdbb 	bl	0x4010309c
    401139b4:	6b1502ff 	cmp	w23, w21
    401139b8:	540000a0 	b.eq	0x401139cc  // b.none
    401139bc:	17fffff6 	b	0x40113994
    401139c0:	6b1702bf 	cmp	w21, w23
    401139c4:	54000040 	b.eq	0x401139cc  // b.none
    401139c8:	36fffbd5 	tbz	w21, #31, 0x40113940
    401139cc:	b40001b6 	cbz	x22, 0x40113a00
    401139d0:	aa1603e0 	mov	x0, x22
    401139d4:	97ffbfa0 	bl	0x40103854
    401139d8:	34000140 	cbz	w0, 0x40113a00
    401139dc:	f0000021 	adrp	x1, 0x4011a000
    401139e0:	f0000022 	adrp	x2, 0x4011a000
    401139e4:	f0000024 	adrp	x4, 0x4011a000
    401139e8:	911bc421 	add	x1, x1, #0x6f1
    401139ec:	911bec42 	add	x2, x2, #0x6fb
    401139f0:	911c2884 	add	x4, x4, #0x70a
    401139f4:	52802063 	mov	w3, #0x103                 	// #259
    401139f8:	14000012 	b	0x40113a40
    401139fc:	aa1f03f6 	mov	x22, xzr
    40113a00:	aa1603e0 	mov	x0, x22
    40113a04:	97ffbf16 	bl	0x4010365c
    40113a08:	350000e0 	cbnz	w0, 0x40113a24
    40113a0c:	97ffb3c6 	bl	0x40100924
    40113a10:	b81f03b4 	stur	w20, [x29, #-16]
    40113a14:	f81f83b3 	stur	x19, [x29, #-8]
    40113a18:	97ffbd4d 	bl	0x40102f4c
    40113a1c:	d10043a0 	sub	x0, x29, #0x10
    40113a20:	94000019 	bl	0x40113a84
    40113a24:	f0000021 	adrp	x1, 0x4011a000
    40113a28:	f0000022 	adrp	x2, 0x4011a000
    40113a2c:	f0000024 	adrp	x4, 0x4011a000
    40113a30:	911bc421 	add	x1, x1, #0x6f1
    40113a34:	911bec42 	add	x2, x2, #0x6fb
    40113a38:	911cdc84 	add	x4, x4, #0x737
    40113a3c:	52802163 	mov	w3, #0x10b                 	// #267
    40113a40:	2a1f03e0 	mov	w0, wzr
    40113a44:	94000231 	bl	0x40114308
    40113a48:	52800060 	mov	w0, #0x3                   	// #3
    40113a4c:	97ffbd7f 	bl	0x40103048
    40113a50:	f0000021 	adrp	x1, 0x4011a000
    40113a54:	f0000022 	adrp	x2, 0x4011a000
    40113a58:	b0000024 	adrp	x4, 0x40118000
    40113a5c:	f0000025 	adrp	x5, 0x4011a000
    40113a60:	911bc421 	add	x1, x1, #0x6f1
    40113a64:	911bec42 	add	x2, x2, #0x6fb
    40113a68:	912c6c84 	add	x4, x4, #0xb1b
    40113a6c:	911c08a5 	add	x5, x5, #0x702
    40113a70:	52801943 	mov	w3, #0xca                  	// #202
    40113a74:	2a1f03e0 	mov	w0, wzr
    40113a78:	94000224 	bl	0x40114308
    40113a7c:	52800060 	mov	w0, #0x3                   	// #3
    40113a80:	97ffbd72 	bl	0x40103048
    40113a84:	a9bd7bfd 	stp	x29, x30, [sp, #-48]!
    40113a88:	f9000bf5 	str	x21, [sp, #16]
    40113a8c:	a9024ff4 	stp	x20, x19, [sp, #32]
    40113a90:	910003fd 	mov	x29, sp
    40113a94:	90000034 	adrp	x20, 0x40117000
    40113a98:	90000028 	adrp	x8, 0x40117000
    40113a9c:	9100c294 	add	x20, x20, #0x30
    40113aa0:	9100a108 	add	x8, x8, #0x28
    40113aa4:	eb14011f 	cmp	x8, x20
    40113aa8:	aa0003f3 	mov	x19, x0
    40113aac:	54000142 	b.cs	0x40113ad4  // b.hs, b.nlast
    40113ab0:	90000035 	adrp	x21, 0x40117000
    40113ab4:	9100a2b5 	add	x21, x21, #0x28
    40113ab8:	f94002a8 	ldr	x8, [x21]
    40113abc:	b40005c8 	cbz	x8, 0x40113b74
    40113ac0:	d63f0100 	blr	x8
    40113ac4:	37f80720 	tbnz	w0, #31, 0x40113ba8
    40113ac8:	910022b5 	add	x21, x21, #0x8
    40113acc:	eb1402bf 	cmp	x21, x20
    40113ad0:	54ffff43 	b.cc	0x40113ab8  // b.lo, b.ul, b.last
    40113ad4:	90000054 	adrp	x20, 0x4011b000
    40113ad8:	f9418a80 	ldr	x0, [x20, #784]
    40113adc:	94000043 	bl	0x40113be8
    40113ae0:	f9418a80 	ldr	x0, [x20, #784]
    40113ae4:	97ffead3 	bl	0x4010e630
    40113ae8:	f0000034 	adrp	x20, 0x4011a000
    40113aec:	f0000028 	adrp	x8, 0x4011a000
    40113af0:	912fa294 	add	x20, x20, #0xbe8
    40113af4:	912fa108 	add	x8, x8, #0xbe8
    40113af8:	eb14011f 	cmp	x8, x20
    40113afc:	54000122 	b.cs	0x40113b20  // b.hs, b.nlast
    40113b00:	f0000035 	adrp	x21, 0x4011a000
    40113b04:	912fa2b5 	add	x21, x21, #0xbe8
    40113b08:	f94002a8 	ldr	x8, [x21]
    40113b0c:	b4000048 	cbz	x8, 0x40113b14
    40113b10:	d63f0100 	blr	x8
    40113b14:	910022b5 	add	x21, x21, #0x8
    40113b18:	eb1402bf 	cmp	x21, x20
    40113b1c:	54ffff63 	b.cc	0x40113b08  // b.lo, b.ul, b.last
    40113b20:	f0000034 	adrp	x20, 0x4011a000
    40113b24:	f0000028 	adrp	x8, 0x4011a000
    40113b28:	912fa294 	add	x20, x20, #0xbe8
    40113b2c:	912fa108 	add	x8, x8, #0xbe8
    40113b30:	eb14011f 	cmp	x8, x20
    40113b34:	54000122 	b.cs	0x40113b58  // b.hs, b.nlast
    40113b38:	f0000035 	adrp	x21, 0x4011a000
    40113b3c:	912fa2b5 	add	x21, x21, #0xbe8
    40113b40:	f94002a8 	ldr	x8, [x21]
    40113b44:	b4000048 	cbz	x8, 0x40113b4c
    40113b48:	d63f0100 	blr	x8
    40113b4c:	910022b5 	add	x21, x21, #0x8
    40113b50:	eb1402bf 	cmp	x21, x20
    40113b54:	54ffff63 	b.cc	0x40113b40  // b.lo, b.ul, b.last
    40113b58:	b9400260 	ldr	w0, [x19]
    40113b5c:	f9400661 	ldr	x1, [x19, #8]
    40113b60:	97ffd28c 	bl	0x40108590
    40113b64:	7100001f 	cmp	w0, #0x0
    40113b68:	52800068 	mov	w8, #0x3                   	// #3
    40113b6c:	1a8803e0 	csel	w0, wzr, w8, eq  // eq = none
    40113b70:	97ffbd36 	bl	0x40103048
    40113b74:	f0000021 	adrp	x1, 0x4011a000
    40113b78:	f0000022 	adrp	x2, 0x4011a000
    40113b7c:	b0000024 	adrp	x4, 0x40118000
    40113b80:	f0000025 	adrp	x5, 0x4011a000
    40113b84:	911bc421 	add	x1, x1, #0x6f1
    40113b88:	911bec42 	add	x2, x2, #0x6fb
    40113b8c:	912c6c84 	add	x4, x4, #0xb1b
    40113b90:	911da0a5 	add	x5, x5, #0x768
    40113b94:	52800c43 	mov	w3, #0x62                  	// #98
    40113b98:	2a1f03e0 	mov	w0, wzr
    40113b9c:	940001db 	bl	0x40114308
    40113ba0:	52800060 	mov	w0, #0x3                   	// #3
    40113ba4:	97ffbd29 	bl	0x40103048
    40113ba8:	f94002a5 	ldr	x5, [x21]
    40113bac:	f0000021 	adrp	x1, 0x4011a000
    40113bb0:	f0000022 	adrp	x2, 0x4011a000
    40113bb4:	f0000024 	adrp	x4, 0x4011a000
    40113bb8:	2a0003e6 	mov	w6, w0
    40113bbc:	911bc421 	add	x1, x1, #0x6f1
    40113bc0:	911bec42 	add	x2, x2, #0x6fb
    40113bc4:	911dc084 	add	x4, x4, #0x770
    40113bc8:	52800020 	mov	w0, #0x1                   	// #1
    40113bcc:	52800ce3 	mov	w3, #0x67                  	// #103
    40113bd0:	940001ce 	bl	0x40114308
    40113bd4:	52800060 	mov	w0, #0x3                   	// #3
    40113bd8:	97ffbd1c 	bl	0x40103048
    40113bdc:	f0000020 	adrp	x0, 0x4011a000
    40113be0:	911e5c00 	add	x0, x0, #0x797
    40113be4:	17ffea5c 	b	0x4010e554
    40113be8:	a9be7bfd 	stp	x29, x30, [sp, #-32]!
    40113bec:	f9000bf3 	str	x19, [sp, #16]
    40113bf0:	910003fd 	mov	x29, sp
    40113bf4:	f0000021 	adrp	x1, 0x4011a000
    40113bf8:	911efc21 	add	x1, x1, #0x7bf
    40113bfc:	aa0003f3 	mov	x19, x0
    40113c00:	97ffe9f8 	bl	0x4010e3e0
    40113c04:	f0000021 	adrp	x1, 0x4011a000
    40113c08:	911f2c21 	add	x1, x1, #0x7cb
    40113c0c:	aa1303e0 	mov	x0, x19
    40113c10:	97ffe9f4 	bl	0x4010e3e0
    40113c14:	f0000021 	adrp	x1, 0x4011a000
    40113c18:	911fc421 	add	x1, x1, #0x7f1
    40113c1c:	aa1303e0 	mov	x0, x19
    40113c20:	97ffe9f0 	bl	0x4010e3e0
    40113c24:	f0000021 	adrp	x1, 0x4011a000
    40113c28:	91206421 	add	x1, x1, #0x819
    40113c2c:	aa1303e0 	mov	x0, x19
    40113c30:	97ffe9ec 	bl	0x4010e3e0
    40113c34:	f0000021 	adrp	x1, 0x4011a000
    40113c38:	91210821 	add	x1, x1, #0x842
    40113c3c:	aa1303e0 	mov	x0, x19
    40113c40:	97ffe9e8 	bl	0x4010e3e0
    40113c44:	f0000021 	adrp	x1, 0x4011a000
    40113c48:	9121a821 	add	x1, x1, #0x86a
    40113c4c:	aa1303e0 	mov	x0, x19
    40113c50:	97ffe9e4 	bl	0x4010e3e0
    40113c54:	aa1303e0 	mov	x0, x19
    40113c58:	f9400bf3 	ldr	x19, [sp, #16]
    40113c5c:	f0000021 	adrp	x1, 0x4011a000
    40113c60:	f0000022 	adrp	x2, 0x4011a000
    40113c64:	91224c21 	add	x1, x1, #0x893
    40113c68:	91226442 	add	x2, x2, #0x899
    40113c6c:	a8c27bfd 	ldp	x29, x30, [sp], #32
    40113c70:	17ffe9dc 	b	0x4010e3e0
    40113c74:	a9bf7bfd 	stp	x29, x30, [sp, #-16]!
    40113c78:	910003fd 	mov	x29, sp
    40113c7c:	f0000020 	adrp	x0, 0x4011a000
    40113c80:	9122dc00 	add	x0, x0, #0x8b7
    40113c84:	97ffea34 	bl	0x4010e554
    40113c88:	128002a0 	mov	w0, #0xffffffea            	// #-22
    40113c8c:	a8c17bfd 	ldp	x29, x30, [sp], #16
    40113c90:	d65f03c0 	ret
    40113c94:	a9bf7bfd 	stp	x29, x30, [sp, #-16]!
    40113c98:	910003fd 	mov	x29, sp
    40113c9c:	b40001e0 	cbz	x0, 0x40113cd8
    40113ca0:	f9400c08 	ldr	x8, [x0, #24]
    40113ca4:	b40002e8 	cbz	x8, 0x40113d00
    40113ca8:	90000048 	adrp	x8, 0x4011b000
    40113cac:	910d2108 	add	x8, x8, #0x348
    40113cb0:	f9400509 	ldr	x9, [x8, #8]
    40113cb4:	f9000500 	str	x0, [x8, #8]
    40113cb8:	a9002408 	stp	x8, x9, [x0]
    40113cbc:	f9000120 	str	x0, [x9]
    40113cc0:	b0000148 	adrp	x8, 0x4013c000
    40113cc4:	b945b109 	ldr	w9, [x8, #1456]
    40113cc8:	11000529 	add	w9, w9, #0x1
    40113ccc:	b905b109 	str	w9, [x8, #1456]
    40113cd0:	a8c17bfd 	ldp	x29, x30, [sp], #16
    40113cd4:	d65f03c0 	ret
    40113cd8:	f0000021 	adrp	x1, 0x4011a000
    40113cdc:	b0000022 	adrp	x2, 0x40118000
    40113ce0:	b0000024 	adrp	x4, 0x40118000
    40113ce4:	f0000025 	adrp	x5, 0x4011a000
    40113ce8:	91239421 	add	x1, x1, #0x8e5
    40113cec:	913aa442 	add	x2, x2, #0xea9
    40113cf0:	912c6c84 	add	x4, x4, #0xb1b
    40113cf4:	911af0a5 	add	x5, x5, #0x6bc
    40113cf8:	52800623 	mov	w3, #0x31                  	// #49
    40113cfc:	1400000b 	b	0x40113d28
    40113d00:	f0000021 	adrp	x1, 0x4011a000
    40113d04:	b0000022 	adrp	x2, 0x40118000
    40113d08:	b0000024 	adrp	x4, 0x40118000
    40113d0c:	f0000025 	adrp	x5, 0x4011a000
    40113d10:	91239421 	add	x1, x1, #0x8e5
    40113d14:	913aa442 	add	x2, x2, #0xea9
    40113d18:	912c6c84 	add	x4, x4, #0xb1b
    40113d1c:	9123b8a5 	add	x5, x5, #0x8ee
    40113d20:	52800643 	mov	w3, #0x32                  	// #50
    40113d24:	2a1f03e0 	mov	w0, wzr
    40113d28:	94000178 	bl	0x40114308
    40113d2c:	52800060 	mov	w0, #0x3                   	// #3
    40113d30:	97ffbcc6 	bl	0x40103048
    40113d34:	a9bf7bfd 	stp	x29, x30, [sp, #-16]!
    40113d38:	910003fd 	mov	x29, sp
    40113d3c:	b40001a0 	cbz	x0, 0x40113d70
    40113d40:	b0000148 	adrp	x8, 0x4013c000
    40113d44:	b945b109 	ldr	w9, [x8, #1456]
    40113d48:	34000289 	cbz	w9, 0x40113d98
    40113d4c:	a940240a 	ldp	x10, x9, [x0]
    40113d50:	f9000549 	str	x9, [x10, #8]
    40113d54:	f900012a 	str	x10, [x9]
    40113d58:	a9000000 	stp	x0, x0, [x0]
    40113d5c:	b945b109 	ldr	w9, [x8, #1456]
    40113d60:	51000529 	sub	w9, w9, #0x1
    40113d64:	b905b109 	str	w9, [x8, #1456]
    40113d68:	a8c17bfd 	ldp	x29, x30, [sp], #16
    40113d6c:	d65f03c0 	ret
    40113d70:	f0000021 	adrp	x1, 0x4011a000
    40113d74:	b0000022 	adrp	x2, 0x40118000
    40113d78:	b0000024 	adrp	x4, 0x40118000
    40113d7c:	f0000025 	adrp	x5, 0x4011a000
    40113d80:	91239421 	add	x1, x1, #0x8e5
    40113d84:	913aa442 	add	x2, x2, #0xea9
    40113d88:	912c6c84 	add	x4, x4, #0xb1b
    40113d8c:	911af0a5 	add	x5, x5, #0x6bc
    40113d90:	52800763 	mov	w3, #0x3b                  	// #59
    40113d94:	1400000b 	b	0x40113dc0
    40113d98:	f0000021 	adrp	x1, 0x4011a000
    40113d9c:	b0000022 	adrp	x2, 0x40118000
    40113da0:	b0000024 	adrp	x4, 0x40118000
    40113da4:	f0000025 	adrp	x5, 0x4011a000
    40113da8:	91239421 	add	x1, x1, #0x8e5
    40113dac:	913aa442 	add	x2, x2, #0xea9
    40113db0:	912c6c84 	add	x4, x4, #0xb1b
    40113db4:	91241ca5 	add	x5, x5, #0x907
    40113db8:	52800783 	mov	w3, #0x3c                  	// #60
    40113dbc:	2a1f03e0 	mov	w0, wzr
    40113dc0:	94000152 	bl	0x40114308
    40113dc4:	52800060 	mov	w0, #0x3                   	// #3
    40113dc8:	97ffbca0 	bl	0x40103048
    40113dcc:	b0000148 	adrp	x8, 0x4013c000
    40113dd0:	b945b100 	ldr	w0, [x8, #1456]
    40113dd4:	d65f03c0 	ret
    40113dd8:	a9bb7bfd 	stp	x29, x30, [sp, #-80]!
    40113ddc:	a90167fa 	stp	x26, x25, [sp, #16]
    40113de0:	a9025ff8 	stp	x24, x23, [sp, #32]
    40113de4:	a90357f6 	stp	x22, x21, [sp, #48]
    40113de8:	a9044ff4 	stp	x20, x19, [sp, #64]
    40113dec:	910003fd 	mov	x29, sp
    40113df0:	b0000159 	adrp	x25, 0x4013c000
    40113df4:	b945b328 	ldr	w8, [x25, #1456]
    40113df8:	34000808 	cbz	w8, 0x40113ef8
    40113dfc:	90000058 	adrp	x24, 0x4011b000
    40113e00:	910d2318 	add	x24, x24, #0x348
    40113e04:	f9400314 	ldr	x20, [x24]
    40113e08:	eb18029f 	cmp	x20, x24
    40113e0c:	54000620 	b.eq	0x40113ed0  // b.none
    40113e10:	b0000148 	adrp	x8, 0x4013c000
    40113e14:	f941e513 	ldr	x19, [x8, #968]
    40113e18:	f0000035 	adrp	x21, 0x4011a000
    40113e1c:	b0000036 	adrp	x22, 0x40118000
    40113e20:	f0000037 	adrp	x23, 0x4011a000
    40113e24:	912396b5 	add	x21, x21, #0x8e5
    40113e28:	913aa6d6 	add	x22, x22, #0xea9
    40113e2c:	912456f7 	add	x23, x23, #0x915
    40113e30:	1400000b 	b	0x40113e5c
    40113e34:	a9402289 	ldp	x9, x8, [x20]
    40113e38:	f9000528 	str	x8, [x9, #8]
    40113e3c:	f9000109 	str	x9, [x8]
    40113e40:	a9005294 	stp	x20, x20, [x20]
    40113e44:	b945b328 	ldr	w8, [x25, #1456]
    40113e48:	51000508 	sub	w8, w8, #0x1
    40113e4c:	b905b328 	str	w8, [x25, #1456]
    40113e50:	eb18035f 	cmp	x26, x24
    40113e54:	aa1a03f4 	mov	x20, x26
    40113e58:	54000380 	b.eq	0x40113ec8  // b.none
    40113e5c:	b40005d4 	cbz	x20, 0x40113f14
    40113e60:	f9400a88 	ldr	x8, [x20, #16]
    40113e64:	f940029a 	ldr	x26, [x20]
    40113e68:	b4ffff48 	cbz	x8, 0x40113e50
    40113e6c:	aa1303e0 	mov	x0, x19
    40113e70:	d63f0100 	blr	x8
    40113e74:	36fffee0 	tbz	w0, #31, 0x40113e50
    40113e78:	2a0003e6 	mov	w6, w0
    40113e7c:	52800020 	mov	w0, #0x1                   	// #1
    40113e80:	52800d63 	mov	w3, #0x6b                  	// #107
    40113e84:	aa1503e1 	mov	x1, x21
    40113e88:	aa1603e2 	mov	x2, x22
    40113e8c:	aa1703e4 	mov	x4, x23
    40113e90:	aa1403e5 	mov	x5, x20
    40113e94:	9400011d 	bl	0x40114308
    40113e98:	b945b328 	ldr	w8, [x25, #1456]
    40113e9c:	35fffcc8 	cbnz	w8, 0x40113e34
    40113ea0:	f0000021 	adrp	x1, 0x4011a000
    40113ea4:	b0000022 	adrp	x2, 0x40118000
    40113ea8:	b0000024 	adrp	x4, 0x40118000
    40113eac:	f0000025 	adrp	x5, 0x4011a000
    40113eb0:	91239421 	add	x1, x1, #0x8e5
    40113eb4:	913aa442 	add	x2, x2, #0xea9
    40113eb8:	912c6c84 	add	x4, x4, #0xb1b
    40113ebc:	91241ca5 	add	x5, x5, #0x907
    40113ec0:	52800783 	mov	w3, #0x3c                  	// #60
    40113ec4:	14000031 	b	0x40113f88
    40113ec8:	b945b328 	ldr	w8, [x25, #1456]
    40113ecc:	34000168 	cbz	w8, 0x40113ef8
    40113ed0:	f9400313 	ldr	x19, [x24]
    40113ed4:	eb18027f 	cmp	x19, x24
    40113ed8:	54000100 	b.eq	0x40113ef8  // b.none
    40113edc:	b4000313 	cbz	x19, 0x40113f3c
    40113ee0:	f9400e68 	ldr	x8, [x19, #24]
    40113ee4:	b4000408 	cbz	x8, 0x40113f64
    40113ee8:	d63f0100 	blr	x8
    40113eec:	f9400273 	ldr	x19, [x19]
    40113ef0:	eb18027f 	cmp	x19, x24
    40113ef4:	54ffff41 	b.ne	0x40113edc  // b.any
    40113ef8:	a9444ff4 	ldp	x20, x19, [sp, #64]
    40113efc:	a94357f6 	ldp	x22, x21, [sp, #48]
    40113f00:	a9425ff8 	ldp	x24, x23, [sp, #32]
    40113f04:	a94167fa 	ldp	x26, x25, [sp, #16]
    40113f08:	2a1f03e0 	mov	w0, wzr
    40113f0c:	a8c57bfd 	ldp	x29, x30, [sp], #80
    40113f10:	d65f03c0 	ret
    40113f14:	f0000021 	adrp	x1, 0x4011a000
    40113f18:	b0000022 	adrp	x2, 0x40118000
    40113f1c:	b0000024 	adrp	x4, 0x40118000
    40113f20:	f0000025 	adrp	x5, 0x4011a000
    40113f24:	91239421 	add	x1, x1, #0x8e5
    40113f28:	913aa442 	add	x2, x2, #0xea9
    40113f2c:	912c6c84 	add	x4, x4, #0xb1b
    40113f30:	911af0a5 	add	x5, x5, #0x6bc
    40113f34:	52800943 	mov	w3, #0x4a                  	// #74
    40113f38:	14000014 	b	0x40113f88
    40113f3c:	f0000021 	adrp	x1, 0x4011a000
    40113f40:	b0000022 	adrp	x2, 0x40118000
    40113f44:	b0000024 	adrp	x4, 0x40118000
    40113f48:	f0000025 	adrp	x5, 0x4011a000
    40113f4c:	91239421 	add	x1, x1, #0x8e5
    40113f50:	913aa442 	add	x2, x2, #0xea9
    40113f54:	912c6c84 	add	x4, x4, #0xb1b
    40113f58:	911af0a5 	add	x5, x5, #0x6bc
    40113f5c:	52800aa3 	mov	w3, #0x55                  	// #85
    40113f60:	1400000a 	b	0x40113f88
    40113f64:	f0000021 	adrp	x1, 0x4011a000
    40113f68:	b0000022 	adrp	x2, 0x40118000
    40113f6c:	b0000024 	adrp	x4, 0x40118000
    40113f70:	f0000025 	adrp	x5, 0x4011a000
    40113f74:	91239421 	add	x1, x1, #0x8e5
    40113f78:	913aa442 	add	x2, x2, #0xea9
    40113f7c:	912c6c84 	add	x4, x4, #0xb1b
    40113f80:	9123b8a5 	add	x5, x5, #0x8ee
    40113f84:	52800ac3 	mov	w3, #0x56                  	// #86
    40113f88:	2a1f03e0 	mov	w0, wzr
    40113f8c:	940000df 	bl	0x40114308
    40113f90:	52800060 	mov	w0, #0x3                   	// #3
    40113f94:	97ffbc2d 	bl	0x40103048
    40113f98:	d100c3ff 	sub	sp, sp, #0x30
    40113f9c:	a9027bfd 	stp	x29, x30, [sp, #32]
    40113fa0:	910083fd 	add	x29, sp, #0x20
    40113fa4:	a941248a 	ldp	x10, x9, [x4, #16]
    40113fa8:	a9402c8c 	ldp	x12, x11, [x4]
    40113fac:	aa0303e8 	mov	x8, x3
    40113fb0:	2a0203e3 	mov	w3, w2
    40113fb4:	aa0103e2 	mov	x2, x1
    40113fb8:	aa0003e1 	mov	x1, x0
    40113fbc:	910003e5 	mov	x5, sp
    40113fc0:	12800000 	mov	w0, #0xffffffff            	// #-1
    40113fc4:	aa0803e4 	mov	x4, x8
    40113fc8:	a90127ea 	stp	x10, x9, [sp, #16]
    40113fcc:	a9002fec 	stp	x12, x11, [sp]
    40113fd0:	94000004 	bl	0x40113fe0
    40113fd4:	a9427bfd 	ldp	x29, x30, [sp, #32]
    40113fd8:	9100c3ff 	add	sp, sp, #0x30
    40113fdc:	d65f03c0 	ret
    40113fe0:	d107c3ff 	sub	sp, sp, #0x1f0
    40113fe4:	a9197bfd 	stp	x29, x30, [sp, #400]
    40113fe8:	a91a6ffc 	stp	x28, x27, [sp, #416]
    40113fec:	a91b67fa 	stp	x26, x25, [sp, #432]
    40113ff0:	a91c5ff8 	stp	x24, x23, [sp, #448]
    40113ff4:	a91d57f6 	stp	x22, x21, [sp, #464]
    40113ff8:	a91e4ff4 	stp	x20, x19, [sp, #480]
    40113ffc:	910643fd 	add	x29, sp, #0x190
    40114000:	1100041b 	add	w27, w0, #0x1
    40114004:	7100137f 	cmp	w27, #0x4
    40114008:	b90007e3 	str	w3, [sp, #4]
    4011400c:	54001188 	b.hi	0x4011423c  // b.pmore
    40114010:	f0000039 	adrp	x25, 0x4011b000
    40114014:	b9435b28 	ldr	w8, [x25, #856]
    40114018:	aa0503f7 	mov	x23, x5
    4011401c:	aa0403f6 	mov	x22, x4
    40114020:	aa0203f4 	mov	x20, x2
    40114024:	2a0003f8 	mov	w24, w0
    40114028:	aa0103f5 	mov	x21, x1
    4011402c:	6b00011f 	cmp	w8, w0
    40114030:	90000153 	adrp	x19, 0x4013c000
    40114034:	54000180 	b.eq	0x40114064  // b.none
    40114038:	52b00009 	mov	w9, #0x80000000            	// #-2147483648
    4011403c:	6b09011f 	cmp	w8, w9
    40114040:	540000e0 	b.eq	0x4011405c  // b.none
    40114044:	3956e268 	ldrb	w8, [x19, #1464]
    40114048:	340000a8 	cbz	w8, 0x4011405c
    4011404c:	90000020 	adrp	x0, 0x40118000
    40114050:	91392c00 	add	x0, x0, #0xe4b
    40114054:	52800021 	mov	w1, #0x1                   	// #1
    40114058:	97ffb06c 	bl	0x40100208
    4011405c:	b9035b38 	str	w24, [x25, #856]
    40114060:	3916e27f 	strb	wzr, [x19, #1464]
    40114064:	a94122e9 	ldp	x9, x8, [x23, #16]
    40114068:	a9402aeb 	ldp	x11, x10, [x23]
    4011406c:	910023e0 	add	x0, sp, #0x8
    40114070:	910323e3 	add	x3, sp, #0xc8
    40114074:	52801801 	mov	w1, #0xc0                  	// #192
    40114078:	aa1603e2 	mov	x2, x22
    4011407c:	a90da3e9 	stp	x9, x8, [sp, #216]
    40114080:	a90cabeb 	stp	x11, x10, [sp, #200]
    40114084:	97ffe5c7 	bl	0x4010d7a0
    40114088:	7100041f 	cmp	w0, #0x1
    4011408c:	54000d8b 	b.lt	0x4011423c  // b.tstop
    40114090:	90000028 	adrp	x8, 0x40118000
    40114094:	91216108 	add	x8, x8, #0x858
    40114098:	f87bd91b 	ldr	x27, [x8, w27, sxtw #3]
    4011409c:	52994018 	mov	w24, #0xca00                	// #51712
    401140a0:	90000037 	adrp	x23, 0x40118000
    401140a4:	2a0003f9 	mov	w25, w0
    401140a8:	910023fa 	add	x26, sp, #0x8
    401140ac:	72a77358 	movk	w24, #0x3b9a, lsl #16
    401140b0:	913932f7 	add	x23, x23, #0xe4c
    401140b4:	14000012 	b	0x401140fc
    401140b8:	aa1703e0 	mov	x0, x23
    401140bc:	97ffebed 	bl	0x4010f070
    401140c0:	aa0003e1 	mov	x1, x0
    401140c4:	aa1703e0 	mov	x0, x23
    401140c8:	97ffb050 	bl	0x40100208
    401140cc:	aa1a03e0 	mov	x0, x26
    401140d0:	2a1603e1 	mov	w1, w22
    401140d4:	97ffb04d 	bl	0x40100208
    401140d8:	aa1703e0 	mov	x0, x23
    401140dc:	97ffebe5 	bl	0x4010f070
    401140e0:	aa0003e1 	mov	x1, x0
    401140e4:	aa1703e0 	mov	x0, x23
    401140e8:	97ffb048 	bl	0x40100208
    401140ec:	4b160339 	sub	w25, w25, w22
    401140f0:	7100033f 	cmp	w25, #0x0
    401140f4:	9100079a 	add	x26, x28, #0x1
    401140f8:	54000a2d 	b.le	0x4011423c
    401140fc:	3956e268 	ldrb	w8, [x19, #1464]
    40114100:	37000888 	tbnz	w8, #0, 0x40114210
    40114104:	97ffb310 	bl	0x40100d44
    40114108:	9ad80803 	udiv	x3, x0, x24
    4011410c:	5289ba69 	mov	w9, #0x4dd3                	// #19923
    40114110:	1b188068 	msub	w8, w3, w24, w0
    40114114:	72a20c49 	movk	w9, #0x1062, lsl #16
    40114118:	9ba97d08 	umull	x8, w8, w9
    4011411c:	d0000022 	adrp	x2, 0x4011a000
    40114120:	d366fd04 	lsr	x4, x8, #38
    40114124:	910323e0 	add	x0, sp, #0xc8
    40114128:	52801801 	mov	w1, #0xc0                  	// #192
    4011412c:	9125bc42 	add	x2, x2, #0x96f
    40114130:	97ffe855 	bl	0x4010e284
    40114134:	2a0003e1 	mov	w1, w0
    40114138:	910323e0 	add	x0, sp, #0xc8
    4011413c:	97ffb033 	bl	0x40100208
    40114140:	aa1b03e0 	mov	x0, x27
    40114144:	97ffebcb 	bl	0x4010f070
    40114148:	aa0003e1 	mov	x1, x0
    4011414c:	aa1b03e0 	mov	x0, x27
    40114150:	97ffb02e 	bl	0x40100208
    40114154:	b4000215 	cbz	x21, 0x40114194
    40114158:	aa1703e0 	mov	x0, x23
    4011415c:	97ffebc5 	bl	0x4010f070
    40114160:	11000401 	add	w1, w0, #0x1
    40114164:	d0000020 	adrp	x0, 0x4011a000
    40114168:	91258000 	add	x0, x0, #0x960
    4011416c:	97ffb027 	bl	0x40100208
    40114170:	aa1503e0 	mov	x0, x21
    40114174:	97ffebbf 	bl	0x4010f070
    40114178:	aa0003e1 	mov	x1, x0
    4011417c:	aa1503e0 	mov	x0, x21
    40114180:	97ffb022 	bl	0x40100208
    40114184:	d0000020 	adrp	x0, 0x4011a000
    40114188:	52800041 	mov	w1, #0x2                   	// #2
    4011418c:	9125e800 	add	x0, x0, #0x97a
    40114190:	97ffb01e 	bl	0x40100208
    40114194:	b40003b4 	cbz	x20, 0x40114208
    40114198:	aa1703e0 	mov	x0, x23
    4011419c:	97ffebb5 	bl	0x4010f070
    401141a0:	11000401 	add	w1, w0, #0x1
    401141a4:	d0000020 	adrp	x0, 0x4011a000
    401141a8:	91258800 	add	x0, x0, #0x962
    401141ac:	97ffb017 	bl	0x40100208
    401141b0:	aa1403e0 	mov	x0, x20
    401141b4:	97ffebaf 	bl	0x4010f070
    401141b8:	aa0003e1 	mov	x1, x0
    401141bc:	aa1403e0 	mov	x0, x20
    401141c0:	97ffb012 	bl	0x40100208
    401141c4:	d0000020 	adrp	x0, 0x4011a000
    401141c8:	52800061 	mov	w1, #0x3                   	// #3
    401141cc:	91259000 	add	x0, x0, #0x964
    401141d0:	97ffb00e 	bl	0x40100208
    401141d4:	b94007e3 	ldr	w3, [sp, #4]
    401141d8:	d0000022 	adrp	x2, 0x4011a000
    401141dc:	910323e0 	add	x0, sp, #0xc8
    401141e0:	528000c1 	mov	w1, #0x6                   	// #6
    401141e4:	9125a042 	add	x2, x2, #0x968
    401141e8:	97ffe827 	bl	0x4010e284
    401141ec:	2a0003e1 	mov	w1, w0
    401141f0:	910323e0 	add	x0, sp, #0xc8
    401141f4:	97ffb005 	bl	0x40100208
    401141f8:	d0000020 	adrp	x0, 0x4011a000
    401141fc:	52800041 	mov	w1, #0x2                   	// #2
    40114200:	9125b000 	add	x0, x0, #0x96c
    40114204:	97ffb001 	bl	0x40100208
    40114208:	52800028 	mov	w8, #0x1                   	// #1
    4011420c:	3916e268 	strb	w8, [x19, #1464]
    40114210:	2a1903e2 	mov	w2, w25
    40114214:	52800141 	mov	w1, #0xa                   	// #10
    40114218:	aa1a03e0 	mov	x0, x26
    4011421c:	97ffeb64 	bl	0x4010efac
    40114220:	aa0003fc 	mov	x28, x0
    40114224:	2a1903f6 	mov	w22, w25
    40114228:	b4fff480 	cbz	x0, 0x401140b8
    4011422c:	4b1a0388 	sub	w8, w28, w26
    40114230:	11000516 	add	w22, w8, #0x1
    40114234:	3916e27f 	strb	wzr, [x19, #1464]
    40114238:	17ffffa0 	b	0x401140b8
    4011423c:	a95e4ff4 	ldp	x20, x19, [sp, #480]
    40114240:	a95d57f6 	ldp	x22, x21, [sp, #464]
    40114244:	a95c5ff8 	ldp	x24, x23, [sp, #448]
    40114248:	a95b67fa 	ldp	x26, x25, [sp, #432]
    4011424c:	a95a6ffc 	ldp	x28, x27, [sp, #416]
    40114250:	a9597bfd 	ldp	x29, x30, [sp, #400]
    40114254:	9107c3ff 	add	sp, sp, #0x1f0
    40114258:	d65f03c0 	ret
    4011425c:	d10243ff 	sub	sp, sp, #0x90
    40114260:	a9087bfd 	stp	x29, x30, [sp, #128]
    40114264:	910203fd 	add	x29, sp, #0x80
    40114268:	f9402bec 	ldr	x12, [sp, #80]
    4011426c:	910003ea 	mov	x10, sp
    40114270:	128003e9 	mov	w9, #0xffffffe0            	// #-32
    40114274:	910043ab 	add	x11, x29, #0x10
    40114278:	9100814a 	add	x10, x10, #0x20
    4011427c:	a9022beb 	stp	x11, x10, [sp, #32]
    40114280:	a90327ec 	stp	x12, x9, [sp, #48]
    40114284:	f9002fe9 	str	x9, [sp, #88]
    40114288:	a9042beb 	stp	x11, x10, [sp, #64]
    4011428c:	aa0b03ea 	mov	x10, x11
    40114290:	f94017eb 	ldr	x11, [sp, #40]
    40114294:	aa0c03e9 	mov	x9, x12
    40114298:	f9401fec 	ldr	x12, [sp, #56]
    4011429c:	aa0303e8 	mov	x8, x3
    401142a0:	2a0203e3 	mov	w3, w2
    401142a4:	aa0103e2 	mov	x2, x1
    401142a8:	aa0003e1 	mov	x1, x0
    401142ac:	a90017e4 	stp	x4, x5, [sp]
    401142b0:	d10083a5 	sub	x5, x29, #0x20
    401142b4:	12800000 	mov	w0, #0xffffffff            	// #-1
    401142b8:	aa0803e4 	mov	x4, x8
    401142bc:	a9011fe6 	stp	x6, x7, [sp, #16]
    401142c0:	a93e2faa 	stp	x10, x11, [x29, #-32]
    401142c4:	a93f33a9 	stp	x9, x12, [x29, #-16]
    401142c8:	97ffff46 	bl	0x40113fe0
    401142cc:	a9487bfd 	ldp	x29, x30, [sp, #128]
    401142d0:	910243ff 	add	sp, sp, #0x90
    401142d4:	d65f03c0 	ret
    401142d8:	d100c3ff 	sub	sp, sp, #0x30
    401142dc:	a9027bfd 	stp	x29, x30, [sp, #32]
    401142e0:	910083fd 	add	x29, sp, #0x20
    401142e4:	a94120a9 	ldp	x9, x8, [x5, #16]
    401142e8:	a94028ab 	ldp	x11, x10, [x5]
    401142ec:	910003e5 	mov	x5, sp
    401142f0:	a90123e9 	stp	x9, x8, [sp, #16]
    401142f4:	a9002beb 	stp	x11, x10, [sp]
    401142f8:	97ffff3a 	bl	0x40113fe0
    401142fc:	a9427bfd 	ldp	x29, x30, [sp, #32]
    40114300:	9100c3ff 	add	sp, sp, #0x30
    40114304:	d65f03c0 	ret
    40114308:	d10243ff 	sub	sp, sp, #0x90
    4011430c:	a9087bfd 	stp	x29, x30, [sp, #128]
    40114310:	910203fd 	add	x29, sp, #0x80
    40114314:	f9402beb 	ldr	x11, [sp, #80]
    40114318:	910023e9 	add	x9, sp, #0x8
    4011431c:	128002e8 	mov	w8, #0xffffffe8            	// #-24
    40114320:	91006129 	add	x9, x9, #0x18
    40114324:	910043aa 	add	x10, x29, #0x10
    40114328:	a902afe9 	stp	x9, x11, [sp, #40]
    4011432c:	f9001fe8 	str	x8, [sp, #56]
    40114330:	f9002fe8 	str	x8, [sp, #88]
    40114334:	a90427ea 	stp	x10, x9, [sp, #64]
    40114338:	a901abe7 	stp	x7, x10, [sp, #24]
    4011433c:	aa0a03e9 	mov	x9, x10
    40114340:	f94017ea 	ldr	x10, [sp, #40]
    40114344:	aa0b03e8 	mov	x8, x11
    40114348:	f9401feb 	ldr	x11, [sp, #56]
    4011434c:	a9009be5 	stp	x5, x6, [sp, #8]
    40114350:	d10083a5 	sub	x5, x29, #0x20
    40114354:	a93e2ba9 	stp	x9, x10, [x29, #-32]
    40114358:	a93f2fa8 	stp	x8, x11, [x29, #-16]
    4011435c:	97ffff21 	bl	0x40113fe0
    40114360:	a9487bfd 	ldp	x29, x30, [sp, #128]
    40114364:	910243ff 	add	sp, sp, #0x90
    40114368:	d65f03c0 	ret
    4011436c:	d10243ff 	sub	sp, sp, #0x90
    40114370:	a9077bfd 	stp	x29, x30, [sp, #112]
    40114374:	f90043f3 	str	x19, [sp, #128]
    40114378:	9101c3fd 	add	x29, sp, #0x70
    4011437c:	a9000fe2 	stp	x2, x3, [sp]
    40114380:	a90117e4 	stp	x4, x5, [sp, #16]
    40114384:	a9021fe6 	stp	x6, x7, [sp, #32]
    40114388:	b40008c0 	cbz	x0, 0x401144a0
    4011438c:	128005ea 	mov	w10, #0xffffffd0            	// #-48
    40114390:	910003eb 	mov	x11, sp
    40114394:	910083a9 	add	x9, x29, #0x20
    40114398:	f81f83aa 	stur	x10, [x29, #-8]
    4011439c:	9100c16a 	add	x10, x11, #0x30
    401143a0:	a93e2ba9 	stp	x9, x10, [x29, #-32]
    401143a4:	b9400009 	ldr	w9, [x0]
    401143a8:	aa0003f3 	mov	x19, x0
    401143ac:	71000d3f 	cmp	w9, #0x3
    401143b0:	540006e8 	b.hi	0x4011448c  // b.pmore
    401143b4:	9000002a 	adrp	x10, 0x40118000
    401143b8:	9122014a 	add	x10, x10, #0x880
    401143bc:	100000ab 	adr	x11, 0x401143d0
    401143c0:	3869694c 	ldrb	w12, [x10, x9]
    401143c4:	8b0c096b 	add	x11, x11, x12, lsl #2
    401143c8:	aa0103e8 	mov	x8, x1
    401143cc:	d61f0160 	br	x11
    401143d0:	f9400660 	ldr	x0, [x19, #8]
    401143d4:	a97e2ba9 	ldp	x9, x10, [x29, #-32]
    401143d8:	a97f33ab 	ldp	x11, x12, [x29, #-16]
    401143dc:	9100c3e2 	add	x2, sp, #0x30
    401143e0:	aa0803e1 	mov	x1, x8
    401143e4:	a9032be9 	stp	x9, x10, [sp, #48]
    401143e8:	a90433eb 	stp	x11, x12, [sp, #64]
    401143ec:	97ffe7d7 	bl	0x4010e348
    401143f0:	14000028 	b	0x40114490
    401143f4:	b9400a60 	ldr	w0, [x19, #8]
    401143f8:	a9410a61 	ldp	x1, x2, [x19, #16]
    401143fc:	b9402263 	ldr	w3, [x19, #32]
    40114400:	a97e2ba9 	ldp	x9, x10, [x29, #-32]
    40114404:	a97f33ab 	ldp	x11, x12, [x29, #-16]
    40114408:	9100c3e5 	add	x5, sp, #0x30
    4011440c:	aa0803e4 	mov	x4, x8
    40114410:	a9032be9 	stp	x9, x10, [sp, #48]
    40114414:	a90433eb 	stp	x11, x12, [sp, #64]
    40114418:	97ffffb0 	bl	0x401142d8
    4011441c:	1400001c 	b	0x4011448c
    40114420:	a9408660 	ldp	x0, x1, [x19, #8]
    40114424:	a97e2ba9 	ldp	x9, x10, [x29, #-32]
    40114428:	a97f33ab 	ldp	x11, x12, [x29, #-16]
    4011442c:	9100c3e3 	add	x3, sp, #0x30
    40114430:	aa0803e2 	mov	x2, x8
    40114434:	a9032be9 	stp	x9, x10, [sp, #48]
    40114438:	a90433eb 	stp	x11, x12, [sp, #64]
    4011443c:	97ffe4d9 	bl	0x4010d7a0
    40114440:	7100041f 	cmp	w0, #0x1
    40114444:	5400026b 	b.lt	0x40114490  // b.tstop
    40114448:	a940a269 	ldp	x9, x8, [x19, #8]
    4011444c:	2a0003ea 	mov	w10, w0
    40114450:	eb0a011f 	cmp	x8, x10
    40114454:	9a8a310a 	csel	x10, x8, x10, cc  // cc = lo, ul, last
    40114458:	8b0a0129 	add	x9, x9, x10
    4011445c:	cb0a0108 	sub	x8, x8, x10
    40114460:	a900a269 	stp	x9, x8, [x19, #8]
    40114464:	1400000b 	b	0x40114490
    40114468:	a9410660 	ldp	x0, x1, [x19, #16]
    4011446c:	b9402262 	ldr	w2, [x19, #32]
    40114470:	a97e2ba9 	ldp	x9, x10, [x29, #-32]
    40114474:	a97f33ab 	ldp	x11, x12, [x29, #-16]
    40114478:	9100c3e4 	add	x4, sp, #0x30
    4011447c:	aa0803e3 	mov	x3, x8
    40114480:	a9032be9 	stp	x9, x10, [sp, #48]
    40114484:	a90433eb 	stp	x11, x12, [sp, #64]
    40114488:	97fffec4 	bl	0x40113f98
    4011448c:	2a1f03e0 	mov	w0, wzr
    40114490:	f94043f3 	ldr	x19, [sp, #128]
    40114494:	a9477bfd 	ldp	x29, x30, [sp, #112]
    40114498:	910243ff 	add	sp, sp, #0x90
    4011449c:	d65f03c0 	ret
    401144a0:	d0000021 	adrp	x1, 0x4011a000
    401144a4:	d0000022 	adrp	x2, 0x4011a000
    401144a8:	90000024 	adrp	x4, 0x40118000
    401144ac:	b0000025 	adrp	x5, 0x40119000
    401144b0:	9125f421 	add	x1, x1, #0x97d
    401144b4:	91262042 	add	x2, x2, #0x988
    401144b8:	912c6c84 	add	x4, x4, #0xb1b
    401144bc:	910848a5 	add	x5, x5, #0x212
    401144c0:	52800623 	mov	w3, #0x31                  	// #49
    401144c4:	97ffff91 	bl	0x40114308
    401144c8:	52800060 	mov	w0, #0x3                   	// #3
    401144cc:	97ffbadf 	bl	0x40103048
    401144d0:	d10103ff 	sub	sp, sp, #0x40
    401144d4:	a9037bfd 	stp	x29, x30, [sp, #48]
    401144d8:	9100c3fd 	add	x29, sp, #0x30
    401144dc:	b40001e0 	cbz	x0, 0x40114518
    401144e0:	52800028 	mov	w8, #0x1                   	// #1
    401144e4:	a90107e0 	stp	x0, x1, [sp, #16]
    401144e8:	910023e0 	add	x0, sp, #0x8
    401144ec:	aa0203e1 	mov	x1, x2
    401144f0:	aa0303e2 	mov	x2, x3
    401144f4:	aa0403e3 	mov	x3, x4
    401144f8:	2a0503e4 	mov	w4, w5
    401144fc:	2a0603e5 	mov	w5, w6
    40114500:	aa0703e6 	mov	x6, x7
    40114504:	b9000be8 	str	w8, [sp, #8]
    40114508:	94000010 	bl	0x40114548
    4011450c:	a9437bfd 	ldp	x29, x30, [sp, #48]
    40114510:	910103ff 	add	sp, sp, #0x40
    40114514:	d65f03c0 	ret
    40114518:	d0000021 	adrp	x1, 0x4011a000
    4011451c:	d0000022 	adrp	x2, 0x4011a000
    40114520:	90000024 	adrp	x4, 0x40118000
    40114524:	d0000025 	adrp	x5, 0x4011a000
    40114528:	9125f421 	add	x1, x1, #0x97d
    4011452c:	91263c42 	add	x2, x2, #0x98f
    40114530:	912c6c84 	add	x4, x4, #0xb1b
    40114534:	912664a5 	add	x5, x5, #0x999
    40114538:	52801ca3 	mov	w3, #0xe5                  	// #229
    4011453c:	97ffff73 	bl	0x40114308
    40114540:	52800060 	mov	w0, #0x3                   	// #3
    40114544:	97ffbac1 	bl	0x40103048
    40114548:	d10283ff 	sub	sp, sp, #0xa0
    4011454c:	a9047bfd 	stp	x29, x30, [sp, #64]
    40114550:	a9056ffc 	stp	x28, x27, [sp, #80]
    40114554:	a90667fa 	stp	x26, x25, [sp, #96]
    40114558:	a9075ff8 	stp	x24, x23, [sp, #112]
    4011455c:	a90857f6 	stp	x22, x21, [sp, #128]
    40114560:	a9094ff4 	stp	x20, x19, [sp, #144]
    40114564:	910103fd 	add	x29, sp, #0x40
    40114568:	f90013e3 	str	x3, [sp, #32]
    4011456c:	34001c25 	cbz	w5, 0x401148f0
    40114570:	53021488 	ubfx	w8, w4, #2, #4
    40114574:	2a0403f4 	mov	w20, w4
    40114578:	7100211f 	cmp	w8, #0x8
    4011457c:	54001a68 	b.hi	0x401148c8  // b.pmore
    40114580:	52800029 	mov	w9, #0x1                   	// #1
    40114584:	1ac82128 	lsl	w8, w9, w8
    40114588:	528022e9 	mov	w9, #0x117                 	// #279
    4011458c:	6a09011f 	tst	w8, w9
    40114590:	540019c0 	b.eq	0x401148c8  // b.none
    40114594:	aa0603f7 	mov	x23, x6
    40114598:	aa0003f8 	mov	x24, x0
    4011459c:	2a0503e8 	mov	w8, w5
    401145a0:	371800f4 	tbnz	w20, #3, 0x401145bc
    401145a4:	37201794 	tbnz	w20, #4, 0x40114894
    401145a8:	d37df109 	lsl	x9, x8, #3
    401145ac:	721b029f 	tst	w20, #0x20
    401145b0:	9a89010b 	csel	x11, x8, x9, eq  // eq = none
    401145b4:	b5000082 	cbnz	x2, 0x401145c4
    401145b8:	140000b9 	b	0x4011489c
    401145bc:	d37ff90b 	lsl	x11, x8, #1
    401145c0:	b40016e2 	cbz	x2, 0x4011489c
    401145c4:	cb0b03e9 	neg	x9, x11
    401145c8:	53027e88 	lsr	w8, w20, #2
    401145cc:	a90087e9 	stp	x9, x1, [sp, #8]
    401145d0:	721e029f 	tst	w20, #0x4
    401145d4:	52800029 	mov	w9, #0x1                   	// #1
    401145d8:	5280008a 	mov	w10, #0x4                   	// #4
    401145dc:	9a891529 	cinc	x9, x9, eq  // eq = none
    401145e0:	121d0108 	and	w8, w8, #0x8
    401145e4:	721c029f 	tst	w20, #0x10
    401145e8:	1a8a0108 	csel	w8, w8, w10, eq  // eq = none
    401145ec:	721e069f 	tst	w20, #0xc
    401145f0:	9a881133 	csel	x19, x9, x8, ne  // ne = any
    401145f4:	2a1f03f9 	mov	w25, wzr
    401145f8:	2a1f03e0 	mov	w0, wzr
    401145fc:	d100067c 	sub	x28, x19, #0x1
    40114600:	aa0103f6 	mov	x22, x1
    40114604:	aa0203f5 	mov	x21, x2
    40114608:	f81f03bf 	stur	xzr, [x29, #-16]
    4011460c:	f90003f7 	str	x23, [sp]
    40114610:	f9000fe2 	str	x2, [sp, #24]
    40114614:	f81e83ab 	stur	x11, [x29, #-24]
    40114618:	eb0b02bf 	cmp	x21, x11
    4011461c:	9a8b32bb 	csel	x27, x21, x11, cc  // cc = lo, ul, last
    40114620:	b81fc3a0 	stur	w0, [x29, #-4]
    40114624:	36300174 	tbz	w20, #6, 0x40114650
    40114628:	f85f03a8 	ldur	x8, [x29, #-16]
    4011462c:	b4000128 	cbz	x8, 0x40114650
    40114630:	f9400be8 	ldr	x8, [sp, #16]
    40114634:	f85f03a9 	ldur	x9, [x29, #-16]
    40114638:	aa1b03e2 	mov	x2, x27
    4011463c:	8b090101 	add	x1, x8, x9
    40114640:	f94007e8 	ldr	x8, [sp, #8]
    40114644:	8b080020 	add	x0, x1, x8
    40114648:	97ffea7e 	bl	0x4010f040
    4011464c:	340009a0 	cbz	w0, 0x40114780
    40114650:	b4000157 	cbz	x23, 0x40114678
    40114654:	d0000021 	adrp	x1, 0x4011a000
    40114658:	aa1803e0 	mov	x0, x24
    4011465c:	912b0c21 	add	x1, x1, #0xac3
    40114660:	aa1703e2 	mov	x2, x23
    40114664:	97ffff42 	bl	0x4011436c
    40114668:	37f811c0 	tbnz	w0, #31, 0x401148a0
    4011466c:	b85fc3a8 	ldur	w8, [x29, #-4]
    40114670:	0b080008 	add	w8, w0, w8
    40114674:	b81fc3a8 	stur	w8, [x29, #-4]
    40114678:	36000194 	tbz	w20, #0, 0x401146a8
    4011467c:	f94013e8 	ldr	x8, [sp, #32]
    40114680:	f85f03a9 	ldur	x9, [x29, #-16]
    40114684:	d0000021 	adrp	x1, 0x4011a000
    40114688:	aa1803e0 	mov	x0, x24
    4011468c:	912b1821 	add	x1, x1, #0xac6
    40114690:	8b080122 	add	x2, x9, x8
    40114694:	97ffff36 	bl	0x4011436c
    40114698:	37f81040 	tbnz	w0, #31, 0x401148a0
    4011469c:	b85fc3a8 	ldur	w8, [x29, #-4]
    401146a0:	0b080008 	add	w8, w0, w8
    401146a4:	b81fc3a8 	stur	w8, [x29, #-4]
    401146a8:	2a1f03f9 	mov	w25, wzr
    401146ac:	b400033b 	cbz	x27, 0x40114710
    401146b0:	aa1f03f7 	mov	x23, xzr
    401146b4:	14000004 	b	0x401146c4
    401146b8:	eb1a037f 	cmp	x27, x26
    401146bc:	aa1a03f7 	mov	x23, x26
    401146c0:	54000280 	b.eq	0x40114710  // b.none
    401146c4:	38776ac2 	ldrb	w2, [x22, x23]
    401146c8:	d0000021 	adrp	x1, 0x4011a000
    401146cc:	aa1803e0 	mov	x0, x24
    401146d0:	912b3821 	add	x1, x1, #0xace
    401146d4:	97ffff26 	bl	0x4011436c
    401146d8:	37f80e40 	tbnz	w0, #31, 0x401148a0
    401146dc:	0b190019 	add	w25, w0, w25
    401146e0:	910006fa 	add	x26, x23, #0x1
    401146e4:	b4fffeb3 	cbz	x19, 0x401146b8
    401146e8:	b4fffe97 	cbz	x23, 0x401146b8
    401146ec:	8a1c0348 	and	x8, x26, x28
    401146f0:	b5fffe48 	cbnz	x8, 0x401146b8
    401146f4:	d0000021 	adrp	x1, 0x4011a000
    401146f8:	aa1803e0 	mov	x0, x24
    401146fc:	912b5821 	add	x1, x1, #0xad6
    40114700:	97ffff1b 	bl	0x4011436c
    40114704:	37f80ce0 	tbnz	w0, #31, 0x401148a0
    40114708:	0b190019 	add	w25, w0, w25
    4011470c:	17ffffeb 	b	0x401146b8
    40114710:	36080974 	tbz	w20, #1, 0x4011483c
    40114714:	f85e83a8 	ldur	x8, [x29, #-24]
    40114718:	eb0802bf 	cmp	x21, x8
    4011471c:	54000482 	b.cs	0x401147ac  // b.hs, b.nlast
    40114720:	aa1503fa 	mov	x26, x21
    40114724:	14000005 	b	0x40114738
    40114728:	f85e83a8 	ldur	x8, [x29, #-24]
    4011472c:	aa1703fa 	mov	x26, x23
    40114730:	eb17011f 	cmp	x8, x23
    40114734:	540003c0 	b.eq	0x401147ac  // b.none
    40114738:	d0000021 	adrp	x1, 0x4011a000
    4011473c:	aa1803e0 	mov	x0, x24
    40114740:	912b5021 	add	x1, x1, #0xad4
    40114744:	97ffff0a 	bl	0x4011436c
    40114748:	37f80ac0 	tbnz	w0, #31, 0x401148a0
    4011474c:	0b190019 	add	w25, w0, w25
    40114750:	91000757 	add	x23, x26, #0x1
    40114754:	b4fffeb3 	cbz	x19, 0x40114728
    40114758:	b4fffe9a 	cbz	x26, 0x40114728
    4011475c:	8a1c02e8 	and	x8, x23, x28
    40114760:	b5fffe48 	cbnz	x8, 0x40114728
    40114764:	d0000021 	adrp	x1, 0x4011a000
    40114768:	aa1803e0 	mov	x0, x24
    4011476c:	912b5821 	add	x1, x1, #0xad6
    40114770:	97fffeff 	bl	0x4011436c
    40114774:	37f80960 	tbnz	w0, #31, 0x401148a0
    40114778:	0b190019 	add	w25, w0, w25
    4011477c:	17ffffeb 	b	0x40114728
    40114780:	35000779 	cbnz	w25, 0x4011486c
    40114784:	d0000021 	adrp	x1, 0x4011a000
    40114788:	aa1803e0 	mov	x0, x24
    4011478c:	912b0021 	add	x1, x1, #0xac0
    40114790:	97fffef7 	bl	0x4011436c
    40114794:	37f80860 	tbnz	w0, #31, 0x401148a0
    40114798:	b85fc3a8 	ldur	w8, [x29, #-4]
    4011479c:	52800039 	mov	w25, #0x1                   	// #1
    401147a0:	0b080008 	add	w8, w0, w8
    401147a4:	b81fc3a8 	stur	w8, [x29, #-4]
    401147a8:	14000031 	b	0x4011486c
    401147ac:	b50000f3 	cbnz	x19, 0x401147c8
    401147b0:	d0000021 	adrp	x1, 0x4011a000
    401147b4:	aa1803e0 	mov	x0, x24
    401147b8:	912b5821 	add	x1, x1, #0xad6
    401147bc:	97fffeec 	bl	0x4011436c
    401147c0:	37f80700 	tbnz	w0, #31, 0x401148a0
    401147c4:	0b190019 	add	w25, w0, w25
    401147c8:	d0000021 	adrp	x1, 0x4011a000
    401147cc:	aa1803e0 	mov	x0, x24
    401147d0:	912b6021 	add	x1, x1, #0xad8
    401147d4:	97fffee6 	bl	0x4011436c
    401147d8:	37f80640 	tbnz	w0, #31, 0x401148a0
    401147dc:	0b190019 	add	w25, w0, w25
    401147e0:	b400023b 	cbz	x27, 0x40114824
    401147e4:	aa1f03f7 	mov	x23, xzr
    401147e8:	38776ac8 	ldrb	w8, [x22, x23]
    401147ec:	d0000021 	adrp	x1, 0x4011a000
    401147f0:	aa1803e0 	mov	x0, x24
    401147f4:	912b6821 	add	x1, x1, #0xada
    401147f8:	51008109 	sub	w9, w8, #0x20
    401147fc:	71017d3f 	cmp	w9, #0x5f
    40114800:	528005c9 	mov	w9, #0x2e                  	// #46
    40114804:	1a893108 	csel	w8, w8, w9, cc  // cc = lo, ul, last
    40114808:	12001d02 	and	w2, w8, #0xff
    4011480c:	97fffed8 	bl	0x4011436c
    40114810:	37f80480 	tbnz	w0, #31, 0x401148a0
    40114814:	910006f7 	add	x23, x23, #0x1
    40114818:	eb17037f 	cmp	x27, x23
    4011481c:	0b190019 	add	w25, w0, w25
    40114820:	54fffe41 	b.ne	0x401147e8  // b.any
    40114824:	d0000021 	adrp	x1, 0x4011a000
    40114828:	aa1803e0 	mov	x0, x24
    4011482c:	912b6021 	add	x1, x1, #0xad8
    40114830:	97fffecf 	bl	0x4011436c
    40114834:	37f80360 	tbnz	w0, #31, 0x401148a0
    40114838:	0b190019 	add	w25, w0, w25
    4011483c:	f94003f7 	ldr	x23, [sp]
    40114840:	90000021 	adrp	x1, 0x40118000
    40114844:	aa1803e0 	mov	x0, x24
    40114848:	91392c21 	add	x1, x1, #0xe4b
    4011484c:	97fffec8 	bl	0x4011436c
    40114850:	37f80280 	tbnz	w0, #31, 0x401148a0
    40114854:	2b190008 	adds	w8, w0, w25
    40114858:	54000344 	b.mi	0x401148c0  // b.first
    4011485c:	b85fc3a9 	ldur	w9, [x29, #-4]
    40114860:	2a1f03f9 	mov	w25, wzr
    40114864:	0b090109 	add	w9, w8, w9
    40114868:	b81fc3a9 	stur	w9, [x29, #-4]
    4011486c:	a97ea3ab 	ldp	x11, x8, [x29, #-24]
    40114870:	f9400fe2 	ldr	x2, [sp, #24]
    40114874:	b85fc3a0 	ldur	w0, [x29, #-4]
    40114878:	cb1b02b5 	sub	x21, x21, x27
    4011487c:	8b0b0108 	add	x8, x8, x11
    40114880:	eb02011f 	cmp	x8, x2
    40114884:	8b0b02d6 	add	x22, x22, x11
    40114888:	f81f03a8 	stur	x8, [x29, #-16]
    4011488c:	54ffec63 	b.cc	0x40114618  // b.lo, b.ul, b.last
    40114890:	14000004 	b	0x401148a0
    40114894:	d37ef50b 	lsl	x11, x8, #2
    40114898:	b5ffe962 	cbnz	x2, 0x401145c4
    4011489c:	2a1f03e0 	mov	w0, wzr
    401148a0:	a9494ff4 	ldp	x20, x19, [sp, #144]
    401148a4:	a94857f6 	ldp	x22, x21, [sp, #128]
    401148a8:	a9475ff8 	ldp	x24, x23, [sp, #112]
    401148ac:	a94667fa 	ldp	x26, x25, [sp, #96]
    401148b0:	a9456ffc 	ldp	x28, x27, [sp, #80]
    401148b4:	a9447bfd 	ldp	x29, x30, [sp, #64]
    401148b8:	910283ff 	add	sp, sp, #0xa0
    401148bc:	d65f03c0 	ret
    401148c0:	2a0803e0 	mov	w0, w8
    401148c4:	17fffff7 	b	0x401148a0
    401148c8:	d0000021 	adrp	x1, 0x4011a000
    401148cc:	d0000022 	adrp	x2, 0x4011a000
    401148d0:	90000024 	adrp	x4, 0x40118000
    401148d4:	d0000025 	adrp	x5, 0x4011a000
    401148d8:	9125f421 	add	x1, x1, #0x97d
    401148dc:	91263c42 	add	x2, x2, #0x98f
    401148e0:	912c6c84 	add	x4, x4, #0xb1b
    401148e4:	91274ca5 	add	x5, x5, #0x9d3
    401148e8:	52801443 	mov	w3, #0xa2                  	// #162
    401148ec:	1400000a 	b	0x40114914
    401148f0:	d0000021 	adrp	x1, 0x4011a000
    401148f4:	d0000022 	adrp	x2, 0x4011a000
    401148f8:	90000024 	adrp	x4, 0x40118000
    401148fc:	d0000025 	adrp	x5, 0x4011a000
    40114900:	9125f421 	add	x1, x1, #0x97d
    40114904:	91263c42 	add	x2, x2, #0x98f
    40114908:	912c6c84 	add	x4, x4, #0xb1b
    4011490c:	912700a5 	add	x5, x5, #0x9c0
    40114910:	52801363 	mov	w3, #0x9b                  	// #155
    40114914:	2a1f03e0 	mov	w0, wzr
    40114918:	97fffe7c 	bl	0x40114308
    4011491c:	52800060 	mov	w0, #0x3                   	// #3
    40114920:	97ffb9ca 	bl	0x40103048
    40114924:	d10103ff 	sub	sp, sp, #0x40
    40114928:	a9037bfd 	stp	x29, x30, [sp, #48]
    4011492c:	9100c3fd 	add	x29, sp, #0x30
    40114930:	b4000100 	cbz	x0, 0x40114950
    40114934:	f9000be0 	str	x0, [sp, #16]
    40114938:	910023e0 	add	x0, sp, #0x8
    4011493c:	b9000bff 	str	wzr, [sp, #8]
    40114940:	97ffff02 	bl	0x40114548
    40114944:	a9437bfd 	ldp	x29, x30, [sp, #48]
    40114948:	910103ff 	add	sp, sp, #0x40
    4011494c:	d65f03c0 	ret
    40114950:	d0000021 	adrp	x1, 0x4011a000
    40114954:	d0000022 	adrp	x2, 0x4011a000
    40114958:	90000024 	adrp	x4, 0x40118000
    4011495c:	d0000025 	adrp	x5, 0x4011a000
    40114960:	9125f421 	add	x1, x1, #0x97d
    40114964:	91263c42 	add	x2, x2, #0x98f
    40114968:	912c6c84 	add	x4, x4, #0xb1b
    4011496c:	9126b4a5 	add	x5, x5, #0x9ad
    40114970:	52801de3 	mov	w3, #0xef                  	// #239
    40114974:	97fffe65 	bl	0x40114308
    40114978:	52800060 	mov	w0, #0x3                   	// #3
    4011497c:	97ffb9b3 	bl	0x40103048
    40114980:	d10103ff 	sub	sp, sp, #0x40
    40114984:	a9037bfd 	stp	x29, x30, [sp, #48]
    40114988:	9100c3fd 	add	x29, sp, #0x30
    4011498c:	2a0603e8 	mov	w8, w6
    40114990:	f9400ba6 	ldr	x6, [x29, #16]
    40114994:	52800069 	mov	w9, #0x3                   	// #3
    40114998:	a90187e0 	stp	x0, x1, [sp, #24]
    4011499c:	b9002be2 	str	w2, [sp, #40]
    401149a0:	910023e0 	add	x0, sp, #0x8
    401149a4:	aa0303e1 	mov	x1, x3
    401149a8:	aa0403e2 	mov	x2, x4
    401149ac:	aa0503e3 	mov	x3, x5
    401149b0:	2a0803e4 	mov	w4, w8
    401149b4:	2a0703e5 	mov	w5, w7
    401149b8:	b9000be9 	str	w9, [sp, #8]
    401149bc:	97fffee3 	bl	0x40114548
    401149c0:	a9437bfd 	ldp	x29, x30, [sp, #48]
    401149c4:	910103ff 	add	sp, sp, #0x40
    401149c8:	d65f03c0 	ret
    401149cc:	d10103ff 	sub	sp, sp, #0x40
    401149d0:	a9037bfd 	stp	x29, x30, [sp, #48]
    401149d4:	9100c3fd 	add	x29, sp, #0x30
    401149d8:	aa0603e9 	mov	x9, x6
    401149dc:	aa0503e8 	mov	x8, x5
    401149e0:	b94013a5 	ldr	w5, [x29, #16]
    401149e4:	f9400fa6 	ldr	x6, [x29, #24]
    401149e8:	5280004a 	mov	w10, #0x2                   	// #2
    401149ec:	b90013e0 	str	w0, [sp, #16]
    401149f0:	a9018be1 	stp	x1, x2, [sp, #24]
    401149f4:	b9002be3 	str	w3, [sp, #40]
    401149f8:	910023e0 	add	x0, sp, #0x8
    401149fc:	aa0403e1 	mov	x1, x4
    40114a00:	aa0803e2 	mov	x2, x8
    40114a04:	aa0903e3 	mov	x3, x9
    40114a08:	2a0703e4 	mov	w4, w7
    40114a0c:	b9000bea 	str	w10, [sp, #8]
    40114a10:	97fffece 	bl	0x40114548
    40114a14:	a9437bfd 	ldp	x29, x30, [sp, #48]
    40114a18:	910103ff 	add	sp, sp, #0x40
    40114a1c:	d65f03c0 	ret
    40114a20:	a9bd7bfd 	stp	x29, x30, [sp, #-48]!
    40114a24:	a90157f6 	stp	x22, x21, [sp, #16]
    40114a28:	a9024ff4 	stp	x20, x19, [sp, #32]
    40114a2c:	910003fd 	mov	x29, sp
    40114a30:	b4000281 	cbz	x1, 0x40114a80
    40114a34:	9274cc13 	and	x19, x0, #0xfffffffffffff000
    40114a38:	8b010016 	add	x22, x0, x1
    40114a3c:	aa1303e0 	mov	x0, x19
    40114a40:	97ffbb1a 	bl	0x401036a8
    40114a44:	91400674 	add	x20, x19, #0x1, lsl #12
    40114a48:	eb16029f 	cmp	x20, x22
    40114a4c:	540001e2 	b.cs	0x40114a88  // b.hs, b.nlast
    40114a50:	aa0003f5 	mov	x21, x0
    40114a54:	52800033 	mov	w19, #0x1                   	// #1
    40114a58:	aa1403e0 	mov	x0, x20
    40114a5c:	97ffbb13 	bl	0x401036a8
    40114a60:	914006a8 	add	x8, x21, #0x1, lsl #12
    40114a64:	91400694 	add	x20, x20, #0x1, lsl #12
    40114a68:	eb00011f 	cmp	x8, x0
    40114a6c:	1a930673 	cinc	w19, w19, ne  // ne = any
    40114a70:	eb16029f 	cmp	x20, x22
    40114a74:	aa0003f5 	mov	x21, x0
    40114a78:	54ffff03 	b.cc	0x40114a58  // b.lo, b.ul, b.last
    40114a7c:	14000004 	b	0x40114a8c
    40114a80:	2a1f03f3 	mov	w19, wzr
    40114a84:	14000002 	b	0x40114a8c
    40114a88:	52800033 	mov	w19, #0x1                   	// #1
    40114a8c:	2a1303e0 	mov	w0, w19
    40114a90:	a9424ff4 	ldp	x20, x19, [sp, #32]
    40114a94:	a94157f6 	ldp	x22, x21, [sp, #16]
    40114a98:	a8c37bfd 	ldp	x29, x30, [sp], #48
    40114a9c:	d65f03c0 	ret
    40114aa0:	a9bb7bfd 	stp	x29, x30, [sp, #-80]!
    40114aa4:	a90167fa 	stp	x26, x25, [sp, #16]
    40114aa8:	a9025ff8 	stp	x24, x23, [sp, #32]
    40114aac:	a90357f6 	stp	x22, x21, [sp, #48]
    40114ab0:	a9044ff4 	stp	x20, x19, [sp, #64]
    40114ab4:	910003fd 	mov	x29, sp
    40114ab8:	b4000ba0 	cbz	x0, 0x40114c2c
    40114abc:	79401c08 	ldrh	w8, [x0, #14]
    40114ac0:	aa0003f3 	mov	x19, x0
    40114ac4:	34000168 	cbz	w8, 0x40114af0
    40114ac8:	79401a76 	ldrh	w22, [x19, #12]
    40114acc:	aa0203f5 	mov	x21, x2
    40114ad0:	aa0103f4 	mov	x20, x1
    40114ad4:	34000136 	cbz	w22, 0x40114af8
    40114ad8:	f9400268 	ldr	x8, [x19]
    40114adc:	510006c9 	sub	w9, w22, #0x1
    40114ae0:	8b29d108 	add	x8, x8, w9, sxtw #4
    40114ae4:	f9400517 	ldr	x23, [x8, #8]
    40114ae8:	b50000d5 	cbnz	x21, 0x40114b00
    40114aec:	14000049 	b	0x40114c10
    40114af0:	128002a0 	mov	w0, #0xffffffea            	// #-22
    40114af4:	14000048 	b	0x40114c14
    40114af8:	aa1f03f7 	mov	x23, xzr
    40114afc:	b40008b5 	cbz	x21, 0x40114c10
    40114b00:	aa1403e0 	mov	x0, x20
    40114b04:	92402e99 	and	x25, x20, #0xfff
    40114b08:	97ffbae8 	bl	0x401036a8
    40114b0c:	52820008 	mov	w8, #0x1000                	// #4096
    40114b10:	79401a69 	ldrh	w9, [x19, #12]
    40114b14:	f9400278 	ldr	x24, [x19]
    40114b18:	cb190108 	sub	x8, x8, x25
    40114b1c:	eb15011f 	cmp	x8, x21
    40114b20:	9a8882a8 	csel	x8, x21, x8, hi  // hi = pmore
    40114b24:	b40001c9 	cbz	x9, 0x40114b5c
    40114b28:	8b09130a 	add	x10, x24, x9, lsl #4
    40114b2c:	f85f0d4d 	ldr	x13, [x10, #-16]!
    40114b30:	aa0a03eb 	mov	x11, x10
    40114b34:	f8408d6c 	ldr	x12, [x11, #8]!
    40114b38:	8b0d018d 	add	x13, x12, x13
    40114b3c:	eb0001bf 	cmp	x13, x0
    40114b40:	54000141 	b.ne	0x40114b68  // b.any
    40114b44:	8b080189 	add	x9, x12, x8
    40114b48:	f9000169 	str	x9, [x11]
    40114b4c:	aa0a03f8 	mov	x24, x10
    40114b50:	eb0802b5 	subs	x21, x21, x8
    40114b54:	540002c1 	b.ne	0x40114bac  // b.any
    40114b58:	1400002e 	b	0x40114c10
    40114b5c:	a9002300 	stp	x0, x8, [x24]
    40114b60:	52800029 	mov	w9, #0x1                   	// #1
    40114b64:	1400000f 	b	0x40114ba0
    40114b68:	79401e6a 	ldrh	w10, [x19, #14]
    40114b6c:	6b0a013f 	cmp	w9, w10
    40114b70:	54000121 	b.ne	0x40114b94  // b.any
    40114b74:	79001a76 	strh	w22, [x19, #12]
    40114b78:	340000b6 	cbz	w22, 0x40114b8c
    40114b7c:	f9400268 	ldr	x8, [x19]
    40114b80:	510006c9 	sub	w9, w22, #0x1
    40114b84:	8b29d108 	add	x8, x8, w9, sxtw #4
    40114b88:	f9000517 	str	x23, [x8, #8]
    40114b8c:	12800340 	mov	w0, #0xffffffe5            	// #-27
    40114b90:	14000021 	b	0x40114c14
    40114b94:	8b091318 	add	x24, x24, x9, lsl #4
    40114b98:	11000529 	add	w9, w9, #0x1
    40114b9c:	a9002300 	stp	x0, x8, [x24]
    40114ba0:	79001a69 	strh	w9, [x19, #12]
    40114ba4:	eb0802b5 	subs	x21, x21, x8
    40114ba8:	54000340 	b.eq	0x40114c10  // b.none
    40114bac:	8b140114 	add	x20, x8, x20
    40114bb0:	52820019 	mov	w25, #0x1000                	// #4096
    40114bb4:	14000006 	b	0x40114bcc
    40114bb8:	8b1a0108 	add	x8, x8, x26
    40114bbc:	f9000708 	str	x8, [x24, #8]
    40114bc0:	eb1a02b5 	subs	x21, x21, x26
    40114bc4:	8b140354 	add	x20, x26, x20
    40114bc8:	54000240 	b.eq	0x40114c10  // b.none
    40114bcc:	f14006bf 	cmp	x21, #0x1, lsl #12
    40114bd0:	aa1403e0 	mov	x0, x20
    40114bd4:	9a9932ba 	csel	x26, x21, x25, cc  // cc = lo, ul, last
    40114bd8:	97ffbab4 	bl	0x401036a8
    40114bdc:	a9402309 	ldp	x9, x8, [x24]
    40114be0:	8b090109 	add	x9, x8, x9
    40114be4:	eb00013f 	cmp	x9, x0
    40114be8:	54fffe80 	b.eq	0x40114bb8  // b.none
    40114bec:	79401a68 	ldrh	w8, [x19, #12]
    40114bf0:	79401e69 	ldrh	w9, [x19, #14]
    40114bf4:	6b09011f 	cmp	w8, w9
    40114bf8:	54fffbe0 	b.eq	0x40114b74  // b.none
    40114bfc:	f8010f00 	str	x0, [x24, #16]!
    40114c00:	11000508 	add	w8, w8, #0x1
    40114c04:	f900071a 	str	x26, [x24, #8]
    40114c08:	79001a68 	strh	w8, [x19, #12]
    40114c0c:	17ffffed 	b	0x40114bc0
    40114c10:	2a1f03e0 	mov	w0, wzr
    40114c14:	a9444ff4 	ldp	x20, x19, [sp, #64]
    40114c18:	a94357f6 	ldp	x22, x21, [sp, #48]
    40114c1c:	a9425ff8 	ldp	x24, x23, [sp, #32]
    40114c20:	a94167fa 	ldp	x26, x25, [sp, #16]
    40114c24:	a8c57bfd 	ldp	x29, x30, [sp], #80
    40114c28:	d65f03c0 	ret
    40114c2c:	d0000021 	adrp	x1, 0x4011a000
    40114c30:	d0000022 	adrp	x2, 0x4011a000
    40114c34:	90000024 	adrp	x4, 0x40118000
    40114c38:	d0000025 	adrp	x5, 0x4011a000
    40114c3c:	912b7421 	add	x1, x1, #0xadd
    40114c40:	912ba442 	add	x2, x2, #0xae9
    40114c44:	912c6c84 	add	x4, x4, #0xb1b
    40114c48:	912bc8a5 	add	x5, x5, #0xaf2
    40114c4c:	52801823 	mov	w3, #0xc1                  	// #193
    40114c50:	97fffdae 	bl	0x40114308
    40114c54:	52800060 	mov	w0, #0x3                   	// #3
    40114c58:	97ffb8fc 	bl	0x40103048
    40114c5c:	a9bd7bfd 	stp	x29, x30, [sp, #-48]!
    40114c60:	f9000bf5 	str	x21, [sp, #16]
    40114c64:	a9024ff4 	stp	x20, x19, [sp, #32]
    40114c68:	910003fd 	mov	x29, sp
    40114c6c:	b4000ae0 	cbz	x0, 0x40114dc8
    40114c70:	aa0003f3 	mov	x19, x0
    40114c74:	128002a0 	mov	w0, #0xffffffea            	// #-22
    40114c78:	b40009c3 	cbz	x3, 0x40114db0
    40114c7c:	79401e68 	ldrh	w8, [x19, #14]
    40114c80:	34000988 	cbz	w8, 0x40114db0
    40114c84:	79401a74 	ldrh	w20, [x19, #12]
    40114c88:	b4000114 	cbz	x20, 0x40114ca8
    40114c8c:	f9400269 	ldr	x9, [x19]
    40114c90:	5100068a 	sub	w10, w20, #0x1
    40114c94:	8b2ad129 	add	x9, x9, w10, sxtw #4
    40114c98:	f9400535 	ldr	x21, [x9, #8]
    40114c9c:	7940182d 	ldrh	w13, [x1, #12]
    40114ca0:	350000ad 	cbnz	w13, 0x40114cb4
    40114ca4:	14000033 	b	0x40114d70
    40114ca8:	aa1f03f5 	mov	x21, xzr
    40114cac:	7940182d 	ldrh	w13, [x1, #12]
    40114cb0:	3400060d 	cbz	w13, 0x40114d70
    40114cb4:	f940026a 	ldr	x10, [x19]
    40114cb8:	f940002b 	ldr	x11, [x1]
    40114cbc:	aa1f03e9 	mov	x9, xzr
    40114cc0:	128002a0 	mov	w0, #0xffffffea            	// #-22
    40114cc4:	8b14114c 	add	x12, x10, x20, lsl #4
    40114cc8:	9100216a 	add	x10, x11, #0x8
    40114ccc:	d100418b 	sub	x11, x12, #0x10
    40114cd0:	2a1403ec 	mov	w12, w20
    40114cd4:	14000006 	b	0x40114cec
    40114cd8:	aa0e03e2 	mov	x2, x14
    40114cdc:	91000529 	add	x9, x9, #0x1
    40114ce0:	eb2d213f 	cmp	x9, w13, uxth
    40114ce4:	9100414a 	add	x10, x10, #0x10
    40114ce8:	54000422 	b.cs	0x40114d6c  // b.hs, b.nlast
    40114cec:	f940014f 	ldr	x15, [x10]
    40114cf0:	eb0f004e 	subs	x14, x2, x15
    40114cf4:	54ffff22 	b.cs	0x40114cd8  // b.hs, b.nlast
    40114cf8:	cb0201ed 	sub	x13, x15, x2
    40114cfc:	f85f814e 	ldur	x14, [x10, #-8]
    40114d00:	a9403d70 	ldp	x16, x15, [x11]
    40114d04:	eb0301bf 	cmp	x13, x3
    40114d08:	9a8d806d 	csel	x13, x3, x13, hi  // hi = pmore
    40114d0c:	8b0201ce 	add	x14, x14, x2
    40114d10:	8b1001f0 	add	x16, x15, x16
    40114d14:	eb0e021f 	cmp	x16, x14
    40114d18:	540000c1 	b.ne	0x40114d30  // b.any
    40114d1c:	8b0d01ee 	add	x14, x15, x13
    40114d20:	f900056e 	str	x14, [x11, #8]
    40114d24:	eb0d0063 	subs	x3, x3, x13
    40114d28:	54000141 	b.ne	0x40114d50  // b.any
    40114d2c:	1400000d 	b	0x40114d60
    40114d30:	6b2c211f 	cmp	w8, w12, uxth
    40114d34:	540001a0 	b.eq	0x40114d68  // b.none
    40114d38:	f8010d6e 	str	x14, [x11, #16]!
    40114d3c:	1100058c 	add	w12, w12, #0x1
    40114d40:	f900056d 	str	x13, [x11, #8]
    40114d44:	79001a6c 	strh	w12, [x19, #12]
    40114d48:	eb0d0063 	subs	x3, x3, x13
    40114d4c:	540000a0 	b.eq	0x40114d60  // b.none
    40114d50:	7940182d 	ldrh	w13, [x1, #12]
    40114d54:	aa1f03e2 	mov	x2, xzr
    40114d58:	2a1f03e0 	mov	w0, wzr
    40114d5c:	17ffffe0 	b	0x40114cdc
    40114d60:	2a1f03e0 	mov	w0, wzr
    40114d64:	14000013 	b	0x40114db0
    40114d68:	12800340 	mov	w0, #0xffffffe5            	// #-27
    40114d6c:	b40002a3 	cbz	x3, 0x40114dc0
    40114d70:	d0000021 	adrp	x1, 0x4011a000
    40114d74:	d0000022 	adrp	x2, 0x4011a000
    40114d78:	d0000024 	adrp	x4, 0x4011a000
    40114d7c:	912b7421 	add	x1, x1, #0xadd
    40114d80:	912ba442 	add	x2, x2, #0xae9
    40114d84:	912bd484 	add	x4, x4, #0xaf5
    40114d88:	52800020 	mov	w0, #0x1                   	// #1
    40114d8c:	52801e03 	mov	w3, #0xf0                  	// #240
    40114d90:	97fffd5e 	bl	0x40114308
    40114d94:	128002a0 	mov	w0, #0xffffffea            	// #-22
    40114d98:	79001a74 	strh	w20, [x19, #12]
    40114d9c:	340000b4 	cbz	w20, 0x40114db0
    40114da0:	f9400268 	ldr	x8, [x19]
    40114da4:	51000689 	sub	w9, w20, #0x1
    40114da8:	8b29d108 	add	x8, x8, w9, sxtw #4
    40114dac:	f9000515 	str	x21, [x8, #8]
    40114db0:	a9424ff4 	ldp	x20, x19, [sp, #32]
    40114db4:	f9400bf5 	ldr	x21, [sp, #16]
    40114db8:	a8c37bfd 	ldp	x29, x30, [sp], #48
    40114dbc:	d65f03c0 	ret
    40114dc0:	35fffec0 	cbnz	w0, 0x40114d98
    40114dc4:	17fffffb 	b	0x40114db0
    40114dc8:	d0000021 	adrp	x1, 0x4011a000
    40114dcc:	d0000022 	adrp	x2, 0x4011a000
    40114dd0:	90000024 	adrp	x4, 0x40118000
    40114dd4:	d0000025 	adrp	x5, 0x4011a000
    40114dd8:	912b7421 	add	x1, x1, #0xadd
    40114ddc:	912ba442 	add	x2, x2, #0xae9
    40114de0:	912c6c84 	add	x4, x4, #0xb1b
    40114de4:	912bc8a5 	add	x5, x5, #0xaf2
    40114de8:	52801ae3 	mov	w3, #0xd7                  	// #215
    40114dec:	97fffd47 	bl	0x40114308
    40114df0:	52800060 	mov	w0, #0x3                   	// #3
    40114df4:	97ffb895 	bl	0x40103048
    40114df8:	a9bf7bfd 	stp	x29, x30, [sp, #-16]!
    40114dfc:	910003fd 	mov	x29, sp
    40114e00:	b4000460 	cbz	x0, 0x40114e8c
    40114e04:	79401808 	ldrh	w8, [x0, #12]
    40114e08:	b40000e8 	cbz	x8, 0x40114e24
    40114e0c:	f940000a 	ldr	x10, [x0]
    40114e10:	7100091f 	cmp	w8, #0x2
    40114e14:	540000e8 	b.hi	0x40114e30  // b.pmore
    40114e18:	aa1f03e9 	mov	x9, xzr
    40114e1c:	aa1f03e0 	mov	x0, xzr
    40114e20:	14000012 	b	0x40114e68
    40114e24:	aa1f03e0 	mov	x0, xzr
    40114e28:	a8c17bfd 	ldp	x29, x30, [sp], #16
    40114e2c:	d65f03c0 	ret
    40114e30:	927f3909 	and	x9, x8, #0xfffe
    40114e34:	aa1f03eb 	mov	x11, xzr
    40114e38:	aa1f03ec 	mov	x12, xzr
    40114e3c:	9100614d 	add	x13, x10, #0x18
    40114e40:	aa0903ee 	mov	x14, x9
    40114e44:	f85f01af 	ldur	x15, [x13, #-16]
    40114e48:	f84205b0 	ldr	x16, [x13], #32
    40114e4c:	f10009ce 	subs	x14, x14, #0x2
    40114e50:	8b0b01eb 	add	x11, x15, x11
    40114e54:	8b0c020c 	add	x12, x16, x12
    40114e58:	54ffff61 	b.ne	0x40114e44  // b.any
    40114e5c:	eb08013f 	cmp	x9, x8
    40114e60:	8b0b0180 	add	x0, x12, x11
    40114e64:	54000100 	b.eq	0x40114e84  // b.none
    40114e68:	8b09114a 	add	x10, x10, x9, lsl #4
    40114e6c:	9100214a 	add	x10, x10, #0x8
    40114e70:	f841054b 	ldr	x11, [x10], #16
    40114e74:	91000529 	add	x9, x9, #0x1
    40114e78:	eb08013f 	cmp	x9, x8
    40114e7c:	8b000160 	add	x0, x11, x0
    40114e80:	54ffff83 	b.cc	0x40114e70  // b.lo, b.ul, b.last
    40114e84:	a8c17bfd 	ldp	x29, x30, [sp], #16
    40114e88:	d65f03c0 	ret
    40114e8c:	d0000021 	adrp	x1, 0x4011a000
    40114e90:	d0000022 	adrp	x2, 0x4011a000
    40114e94:	90000024 	adrp	x4, 0x40118000
    40114e98:	d0000025 	adrp	x5, 0x4011a000
    40114e9c:	912b7421 	add	x1, x1, #0xadd
    40114ea0:	912ba442 	add	x2, x2, #0xae9
    40114ea4:	912c6c84 	add	x4, x4, #0xb1b
    40114ea8:	912bc8a5 	add	x5, x5, #0xaf2
    40114eac:	52801fa3 	mov	w3, #0xfd                  	// #253
    40114eb0:	97fffd16 	bl	0x40114308
    40114eb4:	52800060 	mov	w0, #0x3                   	// #3
    40114eb8:	97ffb864 	bl	0x40103048
    40114ebc:	a9bd7bfd 	stp	x29, x30, [sp, #-48]!
    40114ec0:	f9000bf5 	str	x21, [sp, #16]
    40114ec4:	a9024ff4 	stp	x20, x19, [sp, #32]
    40114ec8:	910003fd 	mov	x29, sp
    40114ecc:	79401828 	ldrh	w8, [x1, #12]
    40114ed0:	340001e8 	cbz	w8, 0x40114f0c
    40114ed4:	7940180a 	ldrh	w10, [x0, #12]
    40114ed8:	f9400009 	ldr	x9, [x0]
    40114edc:	f940002b 	ldr	x11, [x1]
    40114ee0:	aa0103f3 	mov	x19, x1
    40114ee4:	aa0003f4 	mov	x20, x0
    40114ee8:	d100054c 	sub	x12, x10, #0x1
    40114eec:	b400014a 	cbz	x10, 0x40114f14
    40114ef0:	8b0c112d 	add	x13, x9, x12, lsl #4
    40114ef4:	a94035ae 	ldp	x14, x13, [x13]
    40114ef8:	f940016f 	ldr	x15, [x11]
    40114efc:	8b0e01ad 	add	x13, x13, x14
    40114f00:	eb0f01bf 	cmp	x13, x15
    40114f04:	1a9f17f5 	cset	w21, eq  // eq = none
    40114f08:	14000004 	b	0x40114f18
    40114f0c:	2a1f03e0 	mov	w0, wzr
    40114f10:	1400001b 	b	0x40114f7c
    40114f14:	2a1f03f5 	mov	w21, wzr
    40114f18:	79401e8d 	ldrh	w13, [x20, #14]
    40114f1c:	0b08014e 	add	w14, w10, w8
    40114f20:	4b1501ce 	sub	w14, w14, w21
    40114f24:	6b0d01df 	cmp	w14, w13
    40114f28:	5400006d 	b.le	0x40114f34
    40114f2c:	12800340 	mov	w0, #0xffffffe5            	// #-27
    40114f30:	14000013 	b	0x40114f7c
    40114f34:	340000d5 	cbz	w21, 0x40114f4c
    40114f38:	8b0c112c 	add	x12, x9, x12, lsl #4
    40114f3c:	f940056d 	ldr	x13, [x11, #8]
    40114f40:	f940058e 	ldr	x14, [x12, #8]
    40114f44:	8b0d01cd 	add	x13, x14, x13
    40114f48:	f900058d 	str	x13, [x12, #8]
    40114f4c:	4b150108 	sub	w8, w8, w21
    40114f50:	8b355160 	add	x0, x11, w21, uxtw #4
    40114f54:	8b0a1121 	add	x1, x9, x10, lsl #4
    40114f58:	937c7d02 	sbfiz	x2, x8, #4, #32
    40114f5c:	97ffe828 	bl	0x4010effc
    40114f60:	79401a68 	ldrh	w8, [x19, #12]
    40114f64:	79401a89 	ldrh	w9, [x20, #12]
    40114f68:	2a1f03e0 	mov	w0, wzr
    40114f6c:	4b150108 	sub	w8, w8, w21
    40114f70:	0b090108 	add	w8, w8, w9
    40114f74:	79001a88 	strh	w8, [x20, #12]
    40114f78:	79001a7f 	strh	wzr, [x19, #12]
    40114f7c:	a9424ff4 	ldp	x20, x19, [sp, #32]
    40114f80:	f9400bf5 	ldr	x21, [sp, #16]
    40114f84:	a8c37bfd 	ldp	x29, x30, [sp], #48
    40114f88:	d65f03c0 	ret
    40114f8c:	a9be7bfd 	stp	x29, x30, [sp, #-32]!
    40114f90:	f9000bf3 	str	x19, [sp, #16]
    40114f94:	910003fd 	mov	x29, sp
    40114f98:	b4000380 	cbz	x0, 0x40115008
    40114f9c:	f9400008 	ldr	x8, [x0]
    40114fa0:	2a0103f3 	mov	w19, w1
    40114fa4:	937c7e69 	sbfiz	x9, x19, #4, #32
    40114fa8:	91004121 	add	x1, x9, #0x10
    40114fac:	d63f0100 	blr	x8
    40114fb0:	b4000120 	cbz	x0, 0x40114fd4
    40114fb4:	91004008 	add	x8, x0, #0x10
    40114fb8:	91002009 	add	x9, x0, #0x8
    40114fbc:	5280002a 	mov	w10, #0x1                   	// #1
    40114fc0:	7900181f 	strh	wzr, [x0, #12]
    40114fc4:	79001c13 	strh	w19, [x0, #14]
    40114fc8:	f9000008 	str	x8, [x0]
    40114fcc:	889ffd2a 	stlr	w10, [x9]
    40114fd0:	1400000b 	b	0x40114ffc
    40114fd4:	d0000021 	adrp	x1, 0x4011a000
    40114fd8:	d0000022 	adrp	x2, 0x4011a000
    40114fdc:	d0000024 	adrp	x4, 0x4011a000
    40114fe0:	912b7421 	add	x1, x1, #0xadd
    40114fe4:	912ba442 	add	x2, x2, #0xae9
    40114fe8:	912c6884 	add	x4, x4, #0xb1a
    40114fec:	52800020 	mov	w0, #0x1                   	// #1
    40114ff0:	52802683 	mov	w3, #0x134                 	// #308
    40114ff4:	97fffcc5 	bl	0x40114308
    40114ff8:	aa1f03e0 	mov	x0, xzr
    40114ffc:	f9400bf3 	ldr	x19, [sp, #16]
    40115000:	a8c27bfd 	ldp	x29, x30, [sp], #32
    40115004:	d65f03c0 	ret
    40115008:	b0000021 	adrp	x1, 0x4011a000
    4011500c:	b0000022 	adrp	x2, 0x4011a000
    40115010:	f0000004 	adrp	x4, 0x40118000
    40115014:	b0000025 	adrp	x5, 0x4011a000
    40115018:	912b7421 	add	x1, x1, #0xadd
    4011501c:	912ba442 	add	x2, x2, #0xae9
    40115020:	912c6c84 	add	x4, x4, #0xb1b
    40115024:	912cf4a5 	add	x5, x5, #0xb3d
    40115028:	528025c3 	mov	w3, #0x12e                 	// #302
    4011502c:	97fffcb7 	bl	0x40114308
    40115030:	52800060 	mov	w0, #0x3                   	// #3
    40115034:	97ffb805 	bl	0x40103048
    40115038:	a9bf7bfd 	stp	x29, x30, [sp, #-16]!
    4011503c:	910003fd 	mov	x29, sp
    40115040:	b4000220 	cbz	x0, 0x40115084
    40115044:	b4000201 	cbz	x1, 0x40115084
    40115048:	aa0003e8 	mov	x8, x0
    4011504c:	9100200a 	add	x10, x0, #0x8
    40115050:	885ffd49 	ldaxr	w9, [x10]
    40115054:	7100052b 	subs	w11, w9, #0x1
    40115058:	880cfd4b 	stlxr	w12, w11, [x10]
    4011505c:	35ffffac 	cbnz	w12, 0x40115050
    40115060:	54000080 	b.eq	0x40115070  // b.none
    40115064:	34000249 	cbz	w9, 0x401150ac
    40115068:	a8c17bfd 	ldp	x29, x30, [sp], #16
    4011506c:	d65f03c0 	ret
    40115070:	f9401422 	ldr	x2, [x1, #40]
    40115074:	aa0103e0 	mov	x0, x1
    40115078:	aa0803e1 	mov	x1, x8
    4011507c:	a8c17bfd 	ldp	x29, x30, [sp], #16
    40115080:	d61f0040 	br	x2
    40115084:	b0000021 	adrp	x1, 0x4011a000
    40115088:	b0000022 	adrp	x2, 0x4011a000
    4011508c:	f0000004 	adrp	x4, 0x40118000
    40115090:	b0000025 	adrp	x5, 0x4011a000
    40115094:	912b7421 	add	x1, x1, #0xadd
    40115098:	912ba442 	add	x2, x2, #0xae9
    4011509c:	912c6c84 	add	x4, x4, #0xb1b
    401150a0:	912cdca5 	add	x5, x5, #0xb37
    401150a4:	528027e3 	mov	w3, #0x13f                 	// #319
    401150a8:	1400000a 	b	0x401150d0
    401150ac:	b0000021 	adrp	x1, 0x4011a000
    401150b0:	b0000022 	adrp	x2, 0x4011a000
    401150b4:	f0000004 	adrp	x4, 0x40118000
    401150b8:	b0000025 	adrp	x5, 0x4011a000
    401150bc:	912b7421 	add	x1, x1, #0xadd
    401150c0:	912ba442 	add	x2, x2, #0xae9
    401150c4:	912c6c84 	add	x4, x4, #0xb1b
    401150c8:	912ecca5 	add	x5, x5, #0xbb3
    401150cc:	52800d03 	mov	w3, #0x68                  	// #104
    401150d0:	2a1f03e0 	mov	w0, wzr
    401150d4:	97fffc8d 	bl	0x40114308
    401150d8:	52800060 	mov	w0, #0x3                   	// #3
    401150dc:	97ffb7db 	bl	0x40103048
    401150e0:	a9bb7bfd 	stp	x29, x30, [sp, #-80]!
    401150e4:	f9000bf9 	str	x25, [sp, #16]
    401150e8:	a9025ff8 	stp	x24, x23, [sp, #32]
    401150ec:	a90357f6 	stp	x22, x21, [sp, #48]
    401150f0:	a9044ff4 	stp	x20, x19, [sp, #64]
    401150f4:	910003fd 	mov	x29, sp
    401150f8:	b4000e20 	cbz	x0, 0x401152bc
    401150fc:	aa0203f4 	mov	x20, x2
    40115100:	b4000ce2 	cbz	x2, 0x4011529c
    40115104:	9274cc36 	and	x22, x1, #0xfffffffffffff000
    40115108:	aa0003f3 	mov	x19, x0
    4011510c:	aa1603e0 	mov	x0, x22
    40115110:	aa0103f5 	mov	x21, x1
    40115114:	8b140039 	add	x25, x1, x20
    40115118:	97ffb964 	bl	0x401036a8
    4011511c:	914006d6 	add	x22, x22, #0x1, lsl #12
    40115120:	eb1902df 	cmp	x22, x25
    40115124:	540002e2 	b.cs	0x40115180  // b.hs, b.nlast
    40115128:	aa0003f7 	mov	x23, x0
    4011512c:	52800038 	mov	w24, #0x1                   	// #1
    40115130:	aa1603e0 	mov	x0, x22
    40115134:	97ffb95d 	bl	0x401036a8
    40115138:	914006e8 	add	x8, x23, #0x1, lsl #12
    4011513c:	914006d6 	add	x22, x22, #0x1, lsl #12
    40115140:	eb00011f 	cmp	x8, x0
    40115144:	1a980718 	cinc	w24, w24, ne  // ne = any
    40115148:	eb1902df 	cmp	x22, x25
    4011514c:	aa0003f7 	mov	x23, x0
    40115150:	54ffff03 	b.cc	0x40115130  // b.lo, b.ul, b.last
    40115154:	35000198 	cbnz	w24, 0x40115184
    40115158:	b0000021 	adrp	x1, 0x4011a000
    4011515c:	b0000022 	adrp	x2, 0x4011a000
    40115160:	f0000004 	adrp	x4, 0x40118000
    40115164:	b0000025 	adrp	x5, 0x4011a000
    40115168:	912b7421 	add	x1, x1, #0xadd
    4011516c:	912ba442 	add	x2, x2, #0xae9
    40115170:	912c6c84 	add	x4, x4, #0xb1b
    40115174:	912cfca5 	add	x5, x5, #0xb3f
    40115178:	52802a23 	mov	w3, #0x151                 	// #337
    4011517c:	1400002f 	b	0x40115238
    40115180:	52800038 	mov	w24, #0x1                   	// #1
    40115184:	f9400268 	ldr	x8, [x19]
    40115188:	2a1803e9 	mov	w9, w24
    4011518c:	d37ced29 	lsl	x9, x9, #4
    40115190:	91004121 	add	x1, x9, #0x10
    40115194:	aa1303e0 	mov	x0, x19
    40115198:	d63f0100 	blr	x8
    4011519c:	aa0003f6 	mov	x22, x0
    401151a0:	b4000500 	cbz	x0, 0x40115240
    401151a4:	910042c8 	add	x8, x22, #0x10
    401151a8:	910022d7 	add	x23, x22, #0x8
    401151ac:	52800029 	mov	w9, #0x1                   	// #1
    401151b0:	aa1603e0 	mov	x0, x22
    401151b4:	aa1503e1 	mov	x1, x21
    401151b8:	aa1403e2 	mov	x2, x20
    401151bc:	79001adf 	strh	wzr, [x22, #12]
    401151c0:	79001ed8 	strh	w24, [x22, #14]
    401151c4:	f90002c8 	str	x8, [x22]
    401151c8:	889ffee9 	stlr	w9, [x23]
    401151cc:	97fffe35 	bl	0x40114aa0
    401151d0:	34000680 	cbz	w0, 0x401152a0
    401151d4:	b0000021 	adrp	x1, 0x4011a000
    401151d8:	b0000022 	adrp	x2, 0x4011a000
    401151dc:	b0000024 	adrp	x4, 0x4011a000
    401151e0:	912b7421 	add	x1, x1, #0xadd
    401151e4:	912ba442 	add	x2, x2, #0xae9
    401151e8:	912da884 	add	x4, x4, #0xb6a
    401151ec:	52800020 	mov	w0, #0x1                   	// #1
    401151f0:	52802b23 	mov	w3, #0x159                 	// #345
    401151f4:	97fffc45 	bl	0x40114308
    401151f8:	885ffee8 	ldaxr	w8, [x23]
    401151fc:	51000509 	sub	w9, w8, #0x1
    40115200:	880afee9 	stlxr	w10, w9, [x23]
    40115204:	35ffffaa 	cbnz	w10, 0x401151f8
    40115208:	7100051f 	cmp	w8, #0x1
    4011520c:	54000400 	b.eq	0x4011528c  // b.none
    40115210:	35000468 	cbnz	w8, 0x4011529c
    40115214:	b0000021 	adrp	x1, 0x4011a000
    40115218:	b0000022 	adrp	x2, 0x4011a000
    4011521c:	f0000004 	adrp	x4, 0x40118000
    40115220:	b0000025 	adrp	x5, 0x4011a000
    40115224:	912b7421 	add	x1, x1, #0xadd
    40115228:	912ba442 	add	x2, x2, #0xae9
    4011522c:	912c6c84 	add	x4, x4, #0xb1b
    40115230:	912ecca5 	add	x5, x5, #0xbb3
    40115234:	52800d03 	mov	w3, #0x68                  	// #104
    40115238:	2a1f03e0 	mov	w0, wzr
    4011523c:	14000029 	b	0x401152e0
    40115240:	b0000033 	adrp	x19, 0x4011a000
    40115244:	b0000034 	adrp	x20, 0x4011a000
    40115248:	912b7673 	add	x19, x19, #0xadd
    4011524c:	912ba694 	add	x20, x20, #0xae9
    40115250:	b0000024 	adrp	x4, 0x4011a000
    40115254:	912c6884 	add	x4, x4, #0xb1a
    40115258:	52800020 	mov	w0, #0x1                   	// #1
    4011525c:	52802683 	mov	w3, #0x134                 	// #308
    40115260:	aa1303e1 	mov	x1, x19
    40115264:	aa1403e2 	mov	x2, x20
    40115268:	97fffc28 	bl	0x40114308
    4011526c:	b0000024 	adrp	x4, 0x4011a000
    40115270:	912d2484 	add	x4, x4, #0xb49
    40115274:	52800020 	mov	w0, #0x1                   	// #1
    40115278:	52802aa3 	mov	w3, #0x155                 	// #341
    4011527c:	aa1303e1 	mov	x1, x19
    40115280:	aa1403e2 	mov	x2, x20
    40115284:	97fffc21 	bl	0x40114308
    40115288:	14000006 	b	0x401152a0
    4011528c:	f9401668 	ldr	x8, [x19, #40]
    40115290:	aa1303e0 	mov	x0, x19
    40115294:	aa1603e1 	mov	x1, x22
    40115298:	d63f0100 	blr	x8
    4011529c:	aa1f03f6 	mov	x22, xzr
    401152a0:	aa1603e0 	mov	x0, x22
    401152a4:	a9444ff4 	ldp	x20, x19, [sp, #64]
    401152a8:	a94357f6 	ldp	x22, x21, [sp, #48]
    401152ac:	a9425ff8 	ldp	x24, x23, [sp, #32]
    401152b0:	f9400bf9 	ldr	x25, [sp, #16]
    401152b4:	a8c57bfd 	ldp	x29, x30, [sp], #80
    401152b8:	d65f03c0 	ret
    401152bc:	b0000021 	adrp	x1, 0x4011a000
    401152c0:	b0000022 	adrp	x2, 0x4011a000
    401152c4:	f0000004 	adrp	x4, 0x40118000
    401152c8:	b0000025 	adrp	x5, 0x4011a000
    401152cc:	912b7421 	add	x1, x1, #0xadd
    401152d0:	912ba442 	add	x2, x2, #0xae9
    401152d4:	912c6c84 	add	x4, x4, #0xb1b
    401152d8:	912cf4a5 	add	x5, x5, #0xb3d
    401152dc:	52802963 	mov	w3, #0x14b                 	// #331
    401152e0:	97fffc0a 	bl	0x40114308
    401152e4:	52800060 	mov	w0, #0x3                   	// #3
    401152e8:	97ffb758 	bl	0x40103048
    401152ec:	a9bd7bfd 	stp	x29, x30, [sp, #-48]!
    401152f0:	f9000bf5 	str	x21, [sp, #16]
    401152f4:	a9024ff4 	stp	x20, x19, [sp, #32]
    401152f8:	910003fd 	mov	x29, sp
    401152fc:	b4000661 	cbz	x1, 0x401153c8
    40115300:	aa0003f3 	mov	x19, x0
    40115304:	b4000560 	cbz	x0, 0x401153b0
    40115308:	79401e75 	ldrh	w21, [x19, #14]
    4011530c:	f9400029 	ldr	x9, [x1]
    40115310:	aa0103e0 	mov	x0, x1
    40115314:	d37ceea8 	lsl	x8, x21, #4
    40115318:	91004108 	add	x8, x8, #0x10
    4011531c:	aa0803e1 	mov	x1, x8
    40115320:	d63f0120 	blr	x9
    40115324:	b4000220 	cbz	x0, 0x40115368
    40115328:	91004008 	add	x8, x0, #0x10
    4011532c:	91002009 	add	x9, x0, #0x8
    40115330:	5280002a 	mov	w10, #0x1                   	// #1
    40115334:	7900181f 	strh	wzr, [x0, #12]
    40115338:	79001c15 	strh	w21, [x0, #14]
    4011533c:	f9000008 	str	x8, [x0]
    40115340:	889ffd2a 	stlr	w10, [x9]
    40115344:	79401a68 	ldrh	w8, [x19, #12]
    40115348:	aa0003f4 	mov	x20, x0
    4011534c:	79001808 	strh	w8, [x0, #12]
    40115350:	79401a68 	ldrh	w8, [x19, #12]
    40115354:	f9400000 	ldr	x0, [x0]
    40115358:	f9400261 	ldr	x1, [x19]
    4011535c:	d37ced02 	lsl	x2, x8, #4
    40115360:	97ffe727 	bl	0x4010effc
    40115364:	14000014 	b	0x401153b4
    40115368:	b0000033 	adrp	x19, 0x4011a000
    4011536c:	b0000034 	adrp	x20, 0x4011a000
    40115370:	912b7673 	add	x19, x19, #0xadd
    40115374:	912ba694 	add	x20, x20, #0xae9
    40115378:	b0000024 	adrp	x4, 0x4011a000
    4011537c:	912c6884 	add	x4, x4, #0xb1a
    40115380:	52800020 	mov	w0, #0x1                   	// #1
    40115384:	52802683 	mov	w3, #0x134                 	// #308
    40115388:	aa1303e1 	mov	x1, x19
    4011538c:	aa1403e2 	mov	x2, x20
    40115390:	97fffbde 	bl	0x40114308
    40115394:	b0000024 	adrp	x4, 0x4011a000
    40115398:	912e3c84 	add	x4, x4, #0xb8f
    4011539c:	52800020 	mov	w0, #0x1                   	// #1
    401153a0:	52802d83 	mov	w3, #0x16c                 	// #364
    401153a4:	aa1303e1 	mov	x1, x19
    401153a8:	aa1403e2 	mov	x2, x20
    401153ac:	97fffbd7 	bl	0x40114308
    401153b0:	aa1f03f4 	mov	x20, xzr
    401153b4:	aa1403e0 	mov	x0, x20
    401153b8:	a9424ff4 	ldp	x20, x19, [sp, #32]
    401153bc:	f9400bf5 	ldr	x21, [sp, #16]
    401153c0:	a8c37bfd 	ldp	x29, x30, [sp], #48
    401153c4:	d65f03c0 	ret
    401153c8:	b0000021 	adrp	x1, 0x4011a000
    401153cc:	b0000022 	adrp	x2, 0x4011a000
    401153d0:	f0000004 	adrp	x4, 0x40118000
    401153d4:	b0000025 	adrp	x5, 0x4011a000
    401153d8:	912b7421 	add	x1, x1, #0xadd
    401153dc:	912ba442 	add	x2, x2, #0xae9
    401153e0:	912c6c84 	add	x4, x4, #0xb1b
    401153e4:	912cf4a5 	add	x5, x5, #0xb3d
    401153e8:	52802ca3 	mov	w3, #0x165                 	// #357
    401153ec:	2a1f03e0 	mov	w0, wzr
    401153f0:	97fffbc6 	bl	0x40114308
    401153f4:	52800060 	mov	w0, #0x3                   	// #3
    401153f8:	97ffb714 	bl	0x40103048
    401153fc:	a9ba7bfd 	stp	x29, x30, [sp, #-96]!
    40115400:	f9000bfb 	str	x27, [sp, #16]
    40115404:	a90267fa 	stp	x26, x25, [sp, #32]
    40115408:	a9035ff8 	stp	x24, x23, [sp, #48]
    4011540c:	a90457f6 	stp	x22, x21, [sp, #64]
    40115410:	a9054ff4 	stp	x20, x19, [sp, #80]
    40115414:	910003fd 	mov	x29, sp
    40115418:	91002008 	add	x8, x0, #0x8
    4011541c:	88dffd08 	ldar	w8, [x8]
    40115420:	7100051f 	cmp	w8, #0x1
    40115424:	54000069 	b.ls	0x40115430  // b.plast
    40115428:	128002a0 	mov	w0, #0xffffffea            	// #-22
    4011542c:	14000059 	b	0x40115590
    40115430:	79401808 	ldrh	w8, [x0, #12]
    40115434:	aa0003f3 	mov	x19, x0
    40115438:	b4000aa8 	cbz	x8, 0x4011558c
    4011543c:	f940026a 	ldr	x10, [x19]
    40115440:	aa0103f4 	mov	x20, x1
    40115444:	aa1f03ec 	mov	x12, xzr
    40115448:	aa1f03eb 	mov	x11, xzr
    4011544c:	aa1f03e9 	mov	x9, xzr
    40115450:	9100214a 	add	x10, x10, #0x8
    40115454:	aa0c03f7 	mov	x23, x12
    40115458:	f86c694c 	ldr	x12, [x10, x12]
    4011545c:	aa0b03f8 	mov	x24, x11
    40115460:	8b090189 	add	x9, x12, x9
    40115464:	eb030139 	subs	x25, x9, x3
    40115468:	540000c2 	b.cs	0x40115480  // b.hs, b.nlast
    4011546c:	9100070b 	add	x11, x24, #0x1
    40115470:	eb08017f 	cmp	x11, x8
    40115474:	910042ec 	add	x12, x23, #0x10
    40115478:	54fffee3 	b.cc	0x40115454  // b.lo, b.ul, b.last
    4011547c:	aa1f03f9 	mov	x25, xzr
    40115480:	f9400295 	ldr	x21, [x20]
    40115484:	9100071a 	add	x26, x24, #0x1
    40115488:	b4000135 	cbz	x21, 0x401154ac
    4011548c:	79401ea8 	ldrh	w8, [x21, #14]
    40115490:	6b08031f 	cmp	w24, w8
    40115494:	54000542 	b.cs	0x4011553c  // b.hs, b.nlast
    40115498:	79401aa8 	ldrh	w8, [x21, #12]
    4011549c:	35fffc68 	cbnz	w8, 0x40115428
    401154a0:	9100071b 	add	x27, x24, #0x1
    401154a4:	910042f6 	add	x22, x23, #0x10
    401154a8:	14000012 	b	0x401154f0
    401154ac:	b4000802 	cbz	x2, 0x401155ac
    401154b0:	f9400048 	ldr	x8, [x2]
    401154b4:	910082e1 	add	x1, x23, #0x20
    401154b8:	aa0203e0 	mov	x0, x2
    401154bc:	d63f0100 	blr	x8
    401154c0:	b4000420 	cbz	x0, 0x40115544
    401154c4:	91004008 	add	x8, x0, #0x10
    401154c8:	91002009 	add	x9, x0, #0x8
    401154cc:	5280002a 	mov	w10, #0x1                   	// #1
    401154d0:	aa0003f5 	mov	x21, x0
    401154d4:	9100071b 	add	x27, x24, #0x1
    401154d8:	910042f6 	add	x22, x23, #0x10
    401154dc:	7900181f 	strh	wzr, [x0, #12]
    401154e0:	79001c1a 	strh	w26, [x0, #14]
    401154e4:	f9000008 	str	x8, [x0]
    401154e8:	889ffd2a 	stlr	w10, [x9]
    401154ec:	f9000280 	str	x0, [x20]
    401154f0:	f94002a0 	ldr	x0, [x21]
    401154f4:	f9400261 	ldr	x1, [x19]
    401154f8:	aa1603e2 	mov	x2, x22
    401154fc:	97ffe6c0 	bl	0x4010effc
    40115500:	79001aba 	strh	w26, [x21, #12]
    40115504:	b4000379 	cbz	x25, 0x40115570
    40115508:	f94002a8 	ldr	x8, [x21]
    4011550c:	aa1703f6 	mov	x22, x23
    40115510:	aa1803fb 	mov	x27, x24
    40115514:	2a1803fa 	mov	w26, w24
    40115518:	8b170108 	add	x8, x8, x23
    4011551c:	a940250a 	ldp	x10, x9, [x8]
    40115520:	cb190129 	sub	x9, x9, x25
    40115524:	f9000509 	str	x9, [x8, #8]
    40115528:	f9400260 	ldr	x0, [x19]
    4011552c:	8b190148 	add	x8, x10, x25
    40115530:	8b170009 	add	x9, x0, x23
    40115534:	a9006528 	stp	x8, x25, [x9]
    40115538:	1400000f 	b	0x40115574
    4011553c:	12800340 	mov	w0, #0xffffffe5            	// #-27
    40115540:	14000014 	b	0x40115590
    40115544:	b0000021 	adrp	x1, 0x4011a000
    40115548:	b0000022 	adrp	x2, 0x4011a000
    4011554c:	b0000024 	adrp	x4, 0x4011a000
    40115550:	912b7421 	add	x1, x1, #0xadd
    40115554:	912ba442 	add	x2, x2, #0xae9
    40115558:	912c6884 	add	x4, x4, #0xb1a
    4011555c:	52800020 	mov	w0, #0x1                   	// #1
    40115560:	52802683 	mov	w3, #0x134                 	// #308
    40115564:	97fffb69 	bl	0x40114308
    40115568:	12800160 	mov	w0, #0xfffffff4            	// #-12
    4011556c:	14000009 	b	0x40115590
    40115570:	f9400260 	ldr	x0, [x19]
    40115574:	79401a68 	ldrh	w8, [x19, #12]
    40115578:	8b1b1001 	add	x1, x0, x27, lsl #4
    4011557c:	aa1603e2 	mov	x2, x22
    40115580:	4b1a0108 	sub	w8, w8, w26
    40115584:	79001a68 	strh	w8, [x19, #12]
    40115588:	97ffe69d 	bl	0x4010effc
    4011558c:	2a1f03e0 	mov	w0, wzr
    40115590:	a9454ff4 	ldp	x20, x19, [sp, #80]
    40115594:	a94457f6 	ldp	x22, x21, [sp, #64]
    40115598:	a9435ff8 	ldp	x24, x23, [sp, #48]
    4011559c:	a94267fa 	ldp	x26, x25, [sp, #32]
    401155a0:	f9400bfb 	ldr	x27, [sp, #16]
    401155a4:	a8c67bfd 	ldp	x29, x30, [sp], #96
    401155a8:	d65f03c0 	ret
    401155ac:	b0000021 	adrp	x1, 0x4011a000
    401155b0:	b0000022 	adrp	x2, 0x4011a000
    401155b4:	f0000004 	adrp	x4, 0x40118000
    401155b8:	b0000025 	adrp	x5, 0x4011a000
    401155bc:	912b7421 	add	x1, x1, #0xadd
    401155c0:	912ba442 	add	x2, x2, #0xae9
    401155c4:	912c6c84 	add	x4, x4, #0xb1b
    401155c8:	912cf4a5 	add	x5, x5, #0xb3d
    401155cc:	528025c3 	mov	w3, #0x12e                 	// #302
    401155d0:	2a1f03e0 	mov	w0, wzr
    401155d4:	97fffb4d 	bl	0x40114308
    401155d8:	52800060 	mov	w0, #0x3                   	// #3
    401155dc:	97ffb69b 	bl	0x40103048
    401155e0:	a9bb7bfd 	stp	x29, x30, [sp, #-80]!
    401155e4:	a90167fa 	stp	x26, x25, [sp, #16]
    401155e8:	a9025ff8 	stp	x24, x23, [sp, #32]
    401155ec:	a90357f6 	stp	x22, x21, [sp, #48]
    401155f0:	a9044ff4 	stp	x20, x19, [sp, #64]
    401155f4:	910003fd 	mov	x29, sp
    401155f8:	b4000424 	cbz	x4, 0x4011567c
    401155fc:	7940180a 	ldrh	w10, [x0, #12]
    40115600:	aa0103f4 	mov	x20, x1
    40115604:	aa0003f3 	mov	x19, x0
    40115608:	8b030088 	add	x8, x4, x3
    4011560c:	b400044a 	cbz	x10, 0x40115694
    40115610:	f9400269 	ldr	x9, [x19]
    40115614:	aa1f03eb 	mov	x11, xzr
    40115618:	2a1f03f9 	mov	w25, wzr
    4011561c:	2a1f03f7 	mov	w23, wzr
    40115620:	aa1f03f8 	mov	x24, xzr
    40115624:	aa1f03ed 	mov	x13, xzr
    40115628:	9100212c 	add	x12, x9, #0x8
    4011562c:	14000006 	b	0x40115644
    40115630:	9100056b 	add	x11, x11, #0x1
    40115634:	eb0a017f 	cmp	x11, x10
    40115638:	9100418c 	add	x12, x12, #0x10
    4011563c:	aa0903ed 	mov	x13, x9
    40115640:	54000222 	b.cs	0x40115684  // b.hs, b.nlast
    40115644:	f9400189 	ldr	x9, [x12]
    40115648:	8b0d0129 	add	x9, x9, x13
    4011564c:	eb03013f 	cmp	x9, x3
    40115650:	54ffff09 	b.ls	0x40115630  // b.plast
    40115654:	cb0d006d 	sub	x13, x3, x13
    40115658:	710002ff 	cmp	w23, #0x0
    4011565c:	9a9801b8 	csel	x24, x13, x24, eq  // eq = none
    40115660:	1a990179 	csel	w25, w11, w25, eq  // eq = none
    40115664:	eb08013a 	subs	x26, x9, x8
    40115668:	110006f7 	add	w23, w23, #0x1
    4011566c:	54fffe23 	b.cc	0x40115630  // b.lo, b.ul, b.last
    40115670:	eb08013f 	cmp	x9, x8
    40115674:	540001e2 	b.cs	0x401156b0  // b.hs, b.nlast
    40115678:	14000028 	b	0x40115718
    4011567c:	2a1f03e0 	mov	w0, wzr
    40115680:	14000027 	b	0x4011571c
    40115684:	aa1f03fa 	mov	x26, xzr
    40115688:	eb08013f 	cmp	x9, x8
    4011568c:	54000122 	b.cs	0x401156b0  // b.hs, b.nlast
    40115690:	14000022 	b	0x40115718
    40115694:	aa1f03e9 	mov	x9, xzr
    40115698:	aa1f03f8 	mov	x24, xzr
    4011569c:	aa1f03fa 	mov	x26, xzr
    401156a0:	2a1f03f7 	mov	w23, wzr
    401156a4:	2a1f03f9 	mov	w25, wzr
    401156a8:	eb08013f 	cmp	x9, x8
    401156ac:	54000363 	b.cc	0x40115718  // b.lo, b.ul, b.last
    401156b0:	f9400295 	ldr	x21, [x20]
    401156b4:	b40000d5 	cbz	x21, 0x401156cc
    401156b8:	79401ea8 	ldrh	w8, [x21, #14]
    401156bc:	6b0802ff 	cmp	w23, w8
    401156c0:	5400028d 	b.le	0x40115710
    401156c4:	12800340 	mov	w0, #0xffffffe5            	// #-27
    401156c8:	14000015 	b	0x4011571c
    401156cc:	b4000742 	cbz	x2, 0x401157b4
    401156d0:	f9400048 	ldr	x8, [x2]
    401156d4:	937c7ef6 	sbfiz	x22, x23, #4, #32
    401156d8:	910042c1 	add	x1, x22, #0x10
    401156dc:	aa0203e0 	mov	x0, x2
    401156e0:	d63f0100 	blr	x8
    401156e4:	b4000280 	cbz	x0, 0x40115734
    401156e8:	91004008 	add	x8, x0, #0x10
    401156ec:	91002009 	add	x9, x0, #0x8
    401156f0:	5280002a 	mov	w10, #0x1                   	// #1
    401156f4:	aa0003f5 	mov	x21, x0
    401156f8:	7900181f 	strh	wzr, [x0, #12]
    401156fc:	79001c17 	strh	w23, [x0, #14]
    40115700:	f9000008 	str	x8, [x0]
    40115704:	889ffd2a 	stlr	w10, [x9]
    40115708:	f9000280 	str	x0, [x20]
    4011570c:	14000016 	b	0x40115764
    40115710:	79401aa8 	ldrh	w8, [x21, #12]
    40115714:	34000268 	cbz	w8, 0x40115760
    40115718:	128002a0 	mov	w0, #0xffffffea            	// #-22
    4011571c:	a9444ff4 	ldp	x20, x19, [sp, #64]
    40115720:	a94357f6 	ldp	x22, x21, [sp, #48]
    40115724:	a9425ff8 	ldp	x24, x23, [sp, #32]
    40115728:	a94167fa 	ldp	x26, x25, [sp, #16]
    4011572c:	a8c57bfd 	ldp	x29, x30, [sp], #80
    40115730:	d65f03c0 	ret
    40115734:	b0000021 	adrp	x1, 0x4011a000
    40115738:	b0000022 	adrp	x2, 0x4011a000
    4011573c:	b0000024 	adrp	x4, 0x4011a000
    40115740:	912b7421 	add	x1, x1, #0xadd
    40115744:	912ba442 	add	x2, x2, #0xae9
    40115748:	912c6884 	add	x4, x4, #0xb1a
    4011574c:	52800020 	mov	w0, #0x1                   	// #1
    40115750:	52802683 	mov	w3, #0x134                 	// #308
    40115754:	97fffaed 	bl	0x40114308
    40115758:	12800160 	mov	w0, #0xfffffff4            	// #-12
    4011575c:	17fffff0 	b	0x4011571c
    40115760:	937c7ef6 	sbfiz	x22, x23, #4, #32
    40115764:	f9400268 	ldr	x8, [x19]
    40115768:	f94002a0 	ldr	x0, [x21]
    4011576c:	aa1603e2 	mov	x2, x22
    40115770:	8b39d101 	add	x1, x8, w25, sxtw #4
    40115774:	97ffe622 	bl	0x4010effc
    40115778:	79001ab7 	strh	w23, [x21, #12]
    4011577c:	b40000d8 	cbz	x24, 0x40115794
    40115780:	f94002a8 	ldr	x8, [x21]
    40115784:	a9402909 	ldp	x9, x10, [x8]
    40115788:	8b180129 	add	x9, x9, x24
    4011578c:	cb18014a 	sub	x10, x10, x24
    40115790:	a9002909 	stp	x9, x10, [x8]
    40115794:	2a1f03e0 	mov	w0, wzr
    40115798:	b4fffc3a 	cbz	x26, 0x4011571c
    4011579c:	f94002a8 	ldr	x8, [x21]
    401157a0:	8b37d108 	add	x8, x8, w23, sxtw #4
    401157a4:	f85f8109 	ldur	x9, [x8, #-8]
    401157a8:	cb1a0129 	sub	x9, x9, x26
    401157ac:	f81f8109 	stur	x9, [x8, #-8]
    401157b0:	17ffffdb 	b	0x4011571c
    401157b4:	b0000021 	adrp	x1, 0x4011a000
    401157b8:	b0000022 	adrp	x2, 0x4011a000
    401157bc:	f0000004 	adrp	x4, 0x40118000
    401157c0:	b0000025 	adrp	x5, 0x4011a000
    401157c4:	912b7421 	add	x1, x1, #0xadd
    401157c8:	912ba442 	add	x2, x2, #0xae9
    401157cc:	912c6c84 	add	x4, x4, #0xb1b
    401157d0:	912cf4a5 	add	x5, x5, #0xb3d
    401157d4:	528025c3 	mov	w3, #0x12e                 	// #302
    401157d8:	2a1f03e0 	mov	w0, wzr
    401157dc:	97fffacb 	bl	0x40114308
    401157e0:	52800060 	mov	w0, #0x3                   	// #3
    401157e4:	97ffb619 	bl	0x40103048
    401157e8:	f0000008 	adrp	x8, 0x40118000
    401157ec:	91221108 	add	x8, x8, #0x884
    401157f0:	b860d908 	ldr	w8, [x8, w0, sxtw #2]
    401157f4:	528a3009 	mov	w9, #0x5180                	// #20864
    401157f8:	7100003f 	cmp	w1, #0x0
    401157fc:	72a00029 	movk	w9, #0x1, lsl #16
    40115800:	7a411804 	ccmp	w0, #0x1, #0x4, ne  // ne = any
    40115804:	0b090109 	add	w9, w8, w9
    40115808:	1a88c120 	csel	w0, w9, w8, gt
    4011580c:	d65f03c0 	ret
    40115810:	d28f6009 	mov	x9, #0x7b00                	// #31488
    40115814:	d2c85008 	mov	x8, #0x428000000000        	// #73117523247104
    40115818:	f2bfc3a9 	movk	x9, #0xfe1d, lsl #16
    4011581c:	f2e01e28 	movk	x8, #0xf1, lsl #48
    40115820:	f2d09fe9 	movk	x9, #0x84ff, lsl #32
    40115824:	8b080008 	add	x8, x0, x8
    40115828:	f2e03c49 	movk	x9, #0x1e2, lsl #48
    4011582c:	eb09011f 	cmp	x8, x9
    40115830:	54000069 	b.ls	0x4011583c  // b.plast
    40115834:	12800000 	mov	w0, #0xffffffff            	// #-1
    40115838:	d65f03c0 	ret
    4011583c:	d2852aea 	mov	x10, #0x2957                	// #10583
    40115840:	928bafe9 	mov	x9, #0xffffffffffffa280    	// #-23936
    40115844:	f2b9ca2a 	movk	x10, #0xce51, lsl #16
    40115848:	f2b8e869 	movk	x9, #0xc743, lsl #16
    4011584c:	f2d9140a 	movk	x10, #0xc8a0, lsl #32
    40115850:	f2e308aa 	movk	x10, #0x1845, lsl #48
    40115854:	8b090009 	add	x9, x0, x9
    40115858:	9b4a7d2a 	smulh	x10, x9, x10
    4011585c:	528a300b 	mov	w11, #0x5180                	// #20864
    40115860:	934dfd52 	asr	x18, x10, #13
    40115864:	72a0002b 	movk	w11, #0x1, lsl #16
    40115868:	d28c5dad 	mov	x13, #0x62ed                	// #25325
    4011586c:	8b4afe4a 	add	x10, x18, x10, lsr #63
    40115870:	d28924ac 	mov	x12, #0x4925                	// #18725
    40115874:	f2b91f0d 	movk	x13, #0xc8f8, lsl #16
    40115878:	1b0ba549 	msub	w9, w10, w11, w9
    4011587c:	f2a4924c 	movk	x12, #0x2492, lsl #16
    40115880:	f2c0d78d 	movk	x13, #0x6bc, lsl #32
    40115884:	131f7d32 	asr	w18, w9, #31
    40115888:	f2d2492c 	movk	x12, #0x9249, lsl #32
    4011588c:	f2e72d6d 	movk	x13, #0x396b, lsl #48
    40115890:	0b0b012b 	add	w11, w9, w11
    40115894:	7100013f 	cmp	w9, #0x0
    40115898:	8b32c152 	add	x18, x10, w18, sxtw
    4011589c:	f2e9248c 	movk	x12, #0x4924, lsl #48
    401158a0:	1a89b169 	csel	w9, w11, w9, lt  // lt = tstop
    401158a4:	91000e4a 	add	x10, x18, #0x3
    401158a8:	9b4d7e4b 	smulh	x11, x18, x13
    401158ac:	9b4c7d4c 	smulh	x12, x10, x12
    401158b0:	934ffd6d 	asr	x13, x11, #15
    401158b4:	8b4bfdab 	add	x11, x13, x11, lsr #63
    401158b8:	d37ffd8d 	lsr	x13, x12, #63
    401158bc:	d341fd8c 	lsr	x12, x12, #1
    401158c0:	0b0d018c 	add	w12, w12, w13
    401158c4:	5287562e 	mov	w14, #0x3ab1                	// #15025
    401158c8:	4b0c0d8c 	sub	w12, w12, w12, lsl #3
    401158cc:	72a0004e 	movk	w14, #0x2, lsl #16
    401158d0:	0b0c014a 	add	w10, w10, w12
    401158d4:	11001d4c 	add	w12, w10, #0x7
    401158d8:	7100015f 	cmp	w10, #0x0
    401158dc:	1b0ec972 	msub	w18, w11, w14, w18
    401158e0:	1a8ab18a 	csel	w10, w12, w10, lt  // lt = tstop
    401158e4:	0b0e024e 	add	w14, w18, w14
    401158e8:	7100025f 	cmp	w18, #0x0
    401158ec:	52903f6f 	mov	w15, #0x81fb                	// #33275
    401158f0:	1a92b1ce 	csel	w14, w14, w18, lt  // lt = tstop
    401158f4:	131f7e52 	asr	w18, w18, #31
    401158f8:	72bcb58f 	movk	w15, #0xe5ac, lsl #16
    401158fc:	8b32c16b 	add	x11, x11, w18, sxtw
    40115900:	52803212 	mov	w18, #0x190                 	// #400
    40115904:	9b127d72 	mul	x18, x11, x18
    40115908:	9b2f7dcb 	smull	x11, w14, w15
    4011590c:	5298aa10 	mov	w16, #0xc550                	// #50512
    40115910:	d360fd6b 	lsr	x11, x11, #32
    40115914:	72bfffb0 	movk	w16, #0xfffd, lsl #16
    40115918:	0b0e016b 	add	w11, w11, w14
    4011591c:	5291d591 	mov	w17, #0x8eac                	// #36524
    40115920:	0b1001d0 	add	w16, w14, w16
    40115924:	130f7d6f 	asr	w15, w11, #15
    40115928:	5280006d 	mov	w13, #0x3                   	// #3
    4011592c:	6b11021f 	cmp	w16, w17
    40115930:	0b4b7deb 	add	w11, w15, w11, lsr #31
    40115934:	1291d56c 	mov	w12, #0xffff7154            	// #-36524
    40115938:	52960e70 	mov	w16, #0xb073                	// #45171
    4011593c:	1a8b31ab 	csel	w11, w13, w11, cc  // cc = lo, ul, last
    40115940:	72a2cdb0 	movk	w16, #0x166d, lsl #16
    40115944:	1291d591 	mov	w17, #0xffff7153            	// #-36525
    40115948:	1b0c396c 	madd	w12, w11, w12, w14
    4011594c:	9b307d90 	smull	x16, w12, w16
    40115950:	0b110191 	add	w17, w12, w17
    40115954:	7116d63f 	cmp	w17, #0x5b5
    40115958:	d360fe11 	lsr	x17, x16, #32
    4011595c:	d37ffe10 	lsr	x16, x16, #63
    40115960:	5280030f 	mov	w15, #0x18                  	// #24
    40115964:	0b911e10 	add	w16, w16, w17, asr #7
    40115968:	1280b68e 	mov	w14, #0xfffffa4b            	// #-1461
    4011596c:	529f3631 	mov	w17, #0xf9b1                	// #63921
    40115970:	1a9031ef 	csel	w15, w15, w16, cc  // cc = lo, ul, last
    40115974:	72b67191 	movk	w17, #0xb38c, lsl #16
    40115978:	1b0e31ec 	madd	w12, w15, w14, w12
    4011597c:	9b317d8e 	smull	x14, w12, w17
    40115980:	d360fdce 	lsr	x14, x14, #32
    40115984:	5116d191 	sub	w17, w12, #0x5b4
    40115988:	0b0c01ce 	add	w14, w14, w12
    4011598c:	7105b63f 	cmp	w17, #0x16d
    40115990:	13087dd1 	asr	w17, w14, #8
    40115994:	0b4e7e2e 	add	w14, w17, w14, lsr #31
    40115998:	1a8e31ad 	csel	w13, w13, w14, cc  // cc = lo, ul, last
    4011599c:	52800c8e 	mov	w14, #0x64                  	// #100
    401159a0:	1b0e7d6e 	mul	w14, w11, w14
    401159a4:	12802d90 	mov	w16, #0xfffffe93            	// #-365
    401159a8:	0b0f09ce 	add	w14, w14, w15, lsl #2
    401159ac:	710001bf 	cmp	w13, #0x0
    401159b0:	1b1031ac 	madd	w12, w13, w16, w12
    401159b4:	0b0d01cd 	add	w13, w14, w13
    401159b8:	1a9f17ee 	cset	w14, eq  // eq = none
    401159bc:	710001ff 	cmp	w15, #0x0
    401159c0:	1a9f07ef 	cset	w15, ne  // ne = any
    401159c4:	7100017f 	cmp	w11, #0x0
    401159c8:	1a9f17eb 	cset	w11, eq  // eq = none
    401159cc:	2a0f016f 	orr	w15, w11, w15
    401159d0:	12802db1 	mov	w17, #0xfffffe92            	// #-366
    401159d4:	6a0e01ff 	tst	w15, w14
    401159d8:	1a91162b 	cinc	w11, w17, eq  // eq = none
    401159dc:	7104c59f 	cmp	w12, #0x131
    401159e0:	1a9fc16b 	csel	w11, w11, wzr, gt
    401159e4:	71007d9f 	cmp	w12, #0x1f
    401159e8:	8b2dc250 	add	x16, x18, w13, sxtw
    401159ec:	5400008a 	b.ge	0x401159fc  // b.tcont
    401159f0:	2a1f03e8 	mov	w8, wzr
    401159f4:	2a0c03ed 	mov	w13, w12
    401159f8:	1400000c 	b	0x40115a28
    401159fc:	f0000011 	adrp	x17, 0x40118000
    40115a00:	aa1f03e8 	mov	x8, xzr
    40115a04:	528003f2 	mov	w18, #0x1f                  	// #31
    40115a08:	9122d231 	add	x17, x17, #0x8b4
    40115a0c:	2a0c03ed 	mov	w13, w12
    40115a10:	4b1201ad 	sub	w13, w13, w18
    40115a14:	8b080232 	add	x18, x17, x8
    40115a18:	39400652 	ldrb	w18, [x18, #1]
    40115a1c:	91000508 	add	x8, x8, #0x1
    40115a20:	6b1201bf 	cmp	w13, w18
    40115a24:	54ffff6a 	b.ge	0x40115a10  // b.tcont
    40115a28:	7100251f 	cmp	w8, #0x9
    40115a2c:	52800c91 	mov	w17, #0x64                  	// #100
    40115a30:	9a909610 	cinc	x16, x16, hi  // hi = pmore
    40115a34:	72b00011 	movk	w17, #0x8000, lsl #16
    40115a38:	8b110211 	add	x17, x16, x17
    40115a3c:	d360fe31 	lsr	x17, x17, #32
    40115a40:	b4000071 	cbz	x17, 0x40115a4c
    40115a44:	12800000 	mov	w0, #0xffffffff            	// #-1
    40115a48:	d65f03c0 	ret
    40115a4c:	0a0e01ee 	and	w14, w15, w14
    40115a50:	5100310f 	sub	w15, w8, #0xc
    40115a54:	7100251f 	cmp	w8, #0x9
    40115a58:	0b0e018c 	add	w12, w12, w14
    40115a5c:	529678ae 	mov	w14, #0xb3c5                	// #46021
    40115a60:	1a8881e8 	csel	w8, w15, w8, hi  // hi = pmore
    40115a64:	5291112f 	mov	w15, #0x8889                	// #34953
    40115a68:	11019210 	add	w16, w16, #0x64
    40115a6c:	72b2344e 	movk	w14, #0x91a2, lsl #16
    40115a70:	72b1110f 	movk	w15, #0x8888, lsl #16
    40115a74:	11000908 	add	w8, w8, #0x2
    40115a78:	9b2e7d2e 	smull	x14, w9, w14
    40115a7c:	29024028 	stp	w8, w16, [x1, #16]
    40115a80:	9b2f7d28 	smull	x8, w9, w15
    40115a84:	0b0b018b 	add	w11, w12, w11
    40115a88:	d360fdce 	lsr	x14, x14, #32
    40115a8c:	d360fd08 	lsr	x8, x8, #32
    40115a90:	1100ed6b 	add	w11, w11, #0x3b
    40115a94:	0b0901ce 	add	w14, w14, w9
    40115a98:	0b090108 	add	w8, w8, w9
    40115a9c:	29032c2a 	stp	w10, w11, [x1, #24]
    40115aa0:	130b7dca 	asr	w10, w14, #11
    40115aa4:	13057d0b 	asr	w11, w8, #5
    40115aa8:	110005ad 	add	w13, w13, #0x1
    40115aac:	0b4e7d4a 	add	w10, w10, w14, lsr #31
    40115ab0:	0b487d68 	add	w8, w11, w8, lsr #31
    40115ab4:	2901342a 	stp	w10, w13, [x1, #8]
    40115ab8:	9b2f7d0a 	smull	x10, w8, w15
    40115abc:	d360fd4a 	lsr	x10, x10, #32
    40115ac0:	0b08014a 	add	w10, w10, w8
    40115ac4:	13057d4b 	asr	w11, w10, #5
    40115ac8:	5280078c 	mov	w12, #0x3c                  	// #60
    40115acc:	0b4a7d6a 	add	w10, w11, w10, lsr #31
    40115ad0:	2a1f03e0 	mov	w0, wzr
    40115ad4:	1b0ca509 	msub	w9, w8, w12, w9
    40115ad8:	1b0ca148 	msub	w8, w10, w12, w8
    40115adc:	29002029 	stp	w9, w8, [x1]
    40115ae0:	d65f03c0 	ret
    40115ae4:	d10183ff 	sub	sp, sp, #0x60
    40115ae8:	a9047bfd 	stp	x29, x30, [sp, #64]
    40115aec:	a9054ff4 	stp	x20, x19, [sp, #80]
    40115af0:	910103fd 	add	x29, sp, #0x40
    40115af4:	aa0003f4 	mov	x20, x0
    40115af8:	94000019 	bl	0x40115b5c
    40115afc:	910023e1 	add	x1, sp, #0x8
    40115b00:	aa0003f3 	mov	x19, x0
    40115b04:	97ffff43 	bl	0x40115810
    40115b08:	37f80180 	tbnz	w0, #31, 0x40115b38
    40115b0c:	a94227e8 	ldp	x8, x9, [sp, #32]
    40115b10:	a9412fea 	ldp	x10, x11, [sp, #16]
    40115b14:	f000000c 	adrp	x12, 0x40118000
    40115b18:	9123018c 	add	x12, x12, #0x8c0
    40115b1c:	a901a688 	stp	x8, x9, [x20, #24]
    40115b20:	f94007e9 	ldr	x9, [sp, #8]
    40115b24:	a900ae8a 	stp	x10, x11, [x20, #8]
    40115b28:	b900229f 	str	wzr, [x20, #32]
    40115b2c:	a902b29f 	stp	xzr, x12, [x20, #40]
    40115b30:	f9000289 	str	x9, [x20]
    40115b34:	14000005 	b	0x40115b48
    40115b38:	97ffdf17 	bl	0x4010d794
    40115b3c:	52800a88 	mov	w8, #0x54                  	// #84
    40115b40:	b9000008 	str	w8, [x0]
    40115b44:	92800013 	mov	x19, #0xffffffffffffffff    	// #-1
    40115b48:	aa1303e0 	mov	x0, x19
    40115b4c:	a9454ff4 	ldp	x20, x19, [sp, #80]
    40115b50:	a9447bfd 	ldp	x29, x30, [sp, #64]
    40115b54:	910183ff 	add	sp, sp, #0x60
    40115b58:	d65f03c0 	ret
    40115b5c:	a9bd7bfd 	stp	x29, x30, [sp, #-48]!
    40115b60:	f9000bf5 	str	x21, [sp, #16]
    40115b64:	a9024ff4 	stp	x20, x19, [sp, #32]
    40115b68:	910003fd 	mov	x29, sp
    40115b6c:	aa0003f3 	mov	x19, x0
    40115b70:	29420014 	ldp	w20, w0, [x0, #16]
    40115b74:	93407c00 	sxtw	x0, w0
    40115b78:	7100329f 	cmp	w20, #0xc
    40115b7c:	540001c3 	b.cc	0x40115bb4  // b.lo, b.ul, b.last
    40115b80:	52955568 	mov	w8, #0xaaab                	// #43691
    40115b84:	72a55548 	movk	w8, #0x2aaa, lsl #16
    40115b88:	9b287e88 	smull	x8, w20, w8
    40115b8c:	d37ffd0a 	lsr	x10, x8, #63
    40115b90:	9361fd08 	asr	x8, x8, #33
    40115b94:	52800189 	mov	w9, #0xc                   	// #12
    40115b98:	0b0a0108 	add	w8, w8, w10
    40115b9c:	1b09d109 	msub	w9, w8, w9, w20
    40115ba0:	1100312a 	add	w10, w9, #0xc
    40115ba4:	7100013f 	cmp	w9, #0x0
    40115ba8:	0b897d08 	add	w8, w8, w9, asr #31
    40115bac:	1a89b154 	csel	w20, w10, w9, lt  // lt = tstop
    40115bb0:	8b28c000 	add	x0, x0, w8, sxtw
    40115bb4:	910073a1 	add	x1, x29, #0x1c
    40115bb8:	94000017 	bl	0x40115c14
    40115bbc:	b9401fa1 	ldr	w1, [x29, #28]
    40115bc0:	aa0003f5 	mov	x21, x0
    40115bc4:	2a1403e0 	mov	w0, w20
    40115bc8:	97ffff08 	bl	0x401157e8
    40115bcc:	6941226b 	ldpsw	x11, x8, [x19, #8]
    40115bd0:	528a300a 	mov	w10, #0x5180                	// #20864
    40115bd4:	8b20c2a9 	add	x9, x21, w0, sxtw
    40115bd8:	72a0002a 	movk	w10, #0x1, lsl #16
    40115bdc:	9b0a2508 	madd	x8, x8, x10, x9
    40115be0:	69402a6c 	ldpsw	x12, x10, [x19]
    40115be4:	5281c209 	mov	w9, #0xe10                 	// #3600
    40115be8:	9b092168 	madd	x8, x11, x9, x8
    40115bec:	52800789 	mov	w9, #0x3c                  	// #60
    40115bf0:	a9424ff4 	ldp	x20, x19, [sp, #32]
    40115bf4:	f9400bf5 	ldr	x21, [sp, #16]
    40115bf8:	9b092148 	madd	x8, x10, x9, x8
    40115bfc:	928a2fe9 	mov	x9, #0xffffffffffffae80    	// #-20864
    40115c00:	8b0c0108 	add	x8, x8, x12
    40115c04:	f2bfffc9 	movk	x9, #0xfffe, lsl #16
    40115c08:	8b090100 	add	x0, x8, x9
    40115c0c:	a8c37bfd 	ldp	x29, x30, [sp], #48
    40115c10:	d65f03c0 	ret
    40115c14:	d10043ff 	sub	sp, sp, #0x10
    40115c18:	d1000808 	sub	x8, x0, #0x2
    40115c1c:	f102211f 	cmp	x8, #0x88
    40115c20:	54000108 	b.hi	0x40115c40  // b.pmore
    40115c24:	51011008 	sub	w8, w0, #0x44
    40115c28:	7200051f 	tst	w8, #0x3
    40115c2c:	13027d08 	asr	w8, w8, #2
    40115c30:	540003e0 	b.eq	0x40115cac  // b.none
    40115c34:	b4000441 	cbz	x1, 0x40115cbc
    40115c38:	b900003f 	str	wzr, [x1]
    40115c3c:	14000020 	b	0x40115cbc
    40115c40:	b5000061 	cbnz	x1, 0x40115c4c
    40115c44:	910033e1 	add	x1, sp, #0xc
    40115c48:	b9000fff 	str	wzr, [sp, #12]
    40115c4c:	d29ae169 	mov	x9, #0xd70b                	// #55051
    40115c50:	f2ae1469 	movk	x9, #0x70a3, lsl #16
    40115c54:	f2c147a9 	movk	x9, #0xa3d, lsl #32
    40115c58:	d1019008 	sub	x8, x0, #0x64
    40115c5c:	f2f47ae9 	movk	x9, #0xa3d7, lsl #48
    40115c60:	9b497d09 	smulh	x9, x8, x9
    40115c64:	8b080129 	add	x9, x9, x8
    40115c68:	d37ffd2b 	lsr	x11, x9, #63
    40115c6c:	d348fd29 	lsr	x9, x9, #8
    40115c70:	5280320a 	mov	w10, #0x190                 	// #400
    40115c74:	0b0b0129 	add	w9, w9, w11
    40115c78:	1b0aa12a 	msub	w10, w9, w10, w8
    40115c7c:	1106414b 	add	w11, w10, #0x190
    40115c80:	7100015f 	cmp	w10, #0x0
    40115c84:	1a8ab16b 	csel	w11, w11, w10, lt  // lt = tstop
    40115c88:	0b8a7d29 	add	w9, w9, w10, asr #31
    40115c8c:	3400030b 	cbz	w11, 0x40115cec
    40115c90:	7103216c 	subs	w12, w11, #0xc8
    40115c94:	5400034b 	b.lt	0x40115cfc  // b.tstop
    40115c98:	7104b16b 	subs	w11, w11, #0x12c
    40115c9c:	540003cb 	b.lt	0x40115d14  // b.tstop
    40115ca0:	5280006a 	mov	w10, #0x3                   	// #3
    40115ca4:	3500044b 	cbnz	w11, 0x40115d2c
    40115ca8:	1400001e 	b	0x40115d20
    40115cac:	51000508 	sub	w8, w8, #0x1
    40115cb0:	b4000061 	cbz	x1, 0x40115cbc
    40115cb4:	52800029 	mov	w9, #0x1                   	// #1
    40115cb8:	b9000029 	str	w9, [x1]
    40115cbc:	528a300a 	mov	w10, #0x5180                	// #20864
    40115cc0:	52867009 	mov	w9, #0x3380                	// #13184
    40115cc4:	72a0002a 	movk	w10, #0x1, lsl #16
    40115cc8:	72a03c29 	movk	w9, #0x1e1, lsl #16
    40115ccc:	1b0a7d08 	mul	w8, w8, w10
    40115cd0:	1b092008 	madd	w8, w0, w9, w8
    40115cd4:	529d6009 	mov	w9, #0xeb00                	// #60160
    40115cd8:	72af8d69 	movk	w9, #0x7c6b, lsl #16
    40115cdc:	0b090108 	add	w8, w8, w9
    40115ce0:	93407d00 	sxtw	x0, w8
    40115ce4:	910043ff 	add	sp, sp, #0x10
    40115ce8:	d65f03c0 	ret
    40115cec:	2a1f03ea 	mov	w10, wzr
    40115cf0:	2a1f03ec 	mov	w12, wzr
    40115cf4:	5280002b 	mov	w11, #0x1                   	// #1
    40115cf8:	14000010 	b	0x40115d38
    40115cfc:	7101916c 	subs	w12, w11, #0x64
    40115d00:	5400014b 	b.lt	0x40115d28  // b.tstop
    40115d04:	5280002a 	mov	w10, #0x1                   	// #1
    40115d08:	2a0c03eb 	mov	w11, w12
    40115d0c:	3500010b 	cbnz	w11, 0x40115d2c
    40115d10:	14000004 	b	0x40115d20
    40115d14:	5280004a 	mov	w10, #0x2                   	// #2
    40115d18:	2a0c03eb 	mov	w11, w12
    40115d1c:	3500008b 	cbnz	w11, 0x40115d2c
    40115d20:	2a1f03ec 	mov	w12, wzr
    40115d24:	14000005 	b	0x40115d38
    40115d28:	2a1f03ea 	mov	w10, wzr
    40115d2c:	7200057f 	tst	w11, #0x3
    40115d30:	53027d6c 	lsr	w12, w11, #2
    40115d34:	1a9f17eb 	cset	w11, eq  // eq = none
    40115d38:	52800c2d 	mov	w13, #0x61                  	// #97
    40115d3c:	5280030e 	mov	w14, #0x18                  	// #24
    40115d40:	1b0d7d29 	mul	w9, w9, w13
    40115d44:	5286700f 	mov	w15, #0x3380                	// #13184
    40115d48:	1b0e2549 	madd	w9, w10, w14, w9
    40115d4c:	72a03c2f 	movk	w15, #0x1e1, lsl #16
    40115d50:	528a3010 	mov	w16, #0x5180                	// #20864
    40115d54:	0b0c0129 	add	w9, w9, w12
    40115d58:	72a00030 	movk	w16, #0x1, lsl #16
    40115d5c:	9b0f7d08 	mul	x8, x8, x15
    40115d60:	4b0b0129 	sub	w9, w9, w11
    40115d64:	9b302128 	smaddl	x8, w9, w16, x8
    40115d68:	5292a009 	mov	w9, #0x9500                	// #38144
    40115d6c:	72a70dc9 	movk	w9, #0x386e, lsl #16
    40115d70:	b900002b 	str	w11, [x1]
    40115d74:	8b090100 	add	x0, x8, x9
    40115d78:	910043ff 	add	sp, sp, #0x10
    40115d7c:	d65f03c0 	ret
    40115d80:	a9be7bfd 	stp	x29, x30, [sp, #-32]!
    40115d84:	f9000bf3 	str	x19, [sp, #16]
    40115d88:	910003fd 	mov	x29, sp
    40115d8c:	94000017 	bl	0x40115de8
    40115d90:	b108001f 	cmn	x0, #0x200
    40115d94:	540000a3 	b.cc	0x40115da8  // b.lo, b.ul, b.last
    40115d98:	4b0003f3 	neg	w19, w0
    40115d9c:	97ffde7e 	bl	0x4010d794
    40115da0:	b9000013 	str	w19, [x0]
    40115da4:	92800000 	mov	x0, #0xffffffffffffffff    	// #-1
    40115da8:	f9400bf3 	ldr	x19, [sp, #16]
    40115dac:	a8c27bfd 	ldp	x29, x30, [sp], #32
    40115db0:	d65f03c0 	ret
    40115db4:	a9be7bfd 	stp	x29, x30, [sp, #-32]!
    40115db8:	f9000bf3 	str	x19, [sp, #16]
    40115dbc:	910003fd 	mov	x29, sp
    40115dc0:	9400000a 	bl	0x40115de8
    40115dc4:	b108001f 	cmn	x0, #0x200
    40115dc8:	540000a3 	b.cc	0x40115ddc  // b.lo, b.ul, b.last
    40115dcc:	4b0003f3 	neg	w19, w0
    40115dd0:	97ffde71 	bl	0x4010d794
    40115dd4:	b9000013 	str	w19, [x0]
    40115dd8:	92800000 	mov	x0, #0xffffffffffffffff    	// #-1
    40115ddc:	f9400bf3 	ldr	x19, [sp, #16]
    40115de0:	a8c27bfd 	ldp	x29, x30, [sp], #32
    40115de4:	d65f03c0 	ret
    40115de8:	a9bc7bfd 	stp	x29, x30, [sp, #-64]!
    40115dec:	f9000bf7 	str	x23, [sp, #16]
    40115df0:	a90257f6 	stp	x22, x21, [sp, #32]
    40115df4:	a9034ff4 	stp	x20, x19, [sp, #48]
    40115df8:	910003fd 	mov	x29, sp
    40115dfc:	b40000e0 	cbz	x0, 0x40115e18
    40115e00:	f9400408 	ldr	x8, [x0, #8]
    40115e04:	52994016 	mov	w22, #0xca00                	// #51712
    40115e08:	72a77356 	movk	w22, #0x3b9a, lsl #16
    40115e0c:	d10006c9 	sub	x9, x22, #0x1
    40115e10:	eb09011f 	cmp	x8, x9
    40115e14:	540000e9 	b.ls	0x40115e30  // b.plast
    40115e18:	928002a0 	mov	x0, #0xffffffffffffffea    	// #-22
    40115e1c:	a9434ff4 	ldp	x20, x19, [sp, #48]
    40115e20:	a94257f6 	ldp	x22, x21, [sp, #32]
    40115e24:	f9400bf7 	ldr	x23, [sp, #16]
    40115e28:	a8c47bfd 	ldp	x29, x30, [sp], #64
    40115e2c:	d65f03c0 	ret
    40115e30:	f9400009 	ldr	x9, [x0]
    40115e34:	aa0103f3 	mov	x19, x1
    40115e38:	9b162137 	madd	x23, x9, x22, x8
    40115e3c:	97ffabc2 	bl	0x40100d44
    40115e40:	aa0003f4 	mov	x20, x0
    40115e44:	97ffabc0 	bl	0x40100d44
    40115e48:	8b170015 	add	x21, x0, x23
    40115e4c:	97ffabbe 	bl	0x40100d44
    40115e50:	eb0002bf 	cmp	x21, x0
    40115e54:	54000089 	b.ls	0x40115e64  // b.plast
    40115e58:	aa1503e0 	mov	x0, x21
    40115e5c:	97ffb671 	bl	0x40103820
    40115e60:	17fffffb 	b	0x40115e4c
    40115e64:	97ffabb8 	bl	0x40100d44
    40115e68:	cb140008 	sub	x8, x0, x20
    40115e6c:	eb0802e8 	subs	x8, x23, x8
    40115e70:	540000e9 	b.ls	0x40115e8c  // b.plast
    40115e74:	b4000093 	cbz	x19, 0x40115e84
    40115e78:	9ad60909 	udiv	x9, x8, x22
    40115e7c:	9b16a128 	msub	x8, x9, x22, x8
    40115e80:	a9002269 	stp	x9, x8, [x19]
    40115e84:	92800060 	mov	x0, #0xfffffffffffffffc    	// #-4
    40115e88:	17ffffe5 	b	0x40115e1c
    40115e8c:	aa1f03e0 	mov	x0, xzr
    40115e90:	17ffffe3 	b	0x40115e1c
    40115e94:	d100c3ff 	sub	sp, sp, #0x30
    40115e98:	a9017bfd 	stp	x29, x30, [sp, #16]
    40115e9c:	f90013f3 	str	x19, [sp, #32]
    40115ea0:	910043fd 	add	x29, sp, #0x10
    40115ea4:	529bd068 	mov	w8, #0xde83                	// #56963
    40115ea8:	72a86368 	movk	w8, #0x431b, lsl #16
    40115eac:	52884809 	mov	w9, #0x4240                	// #16960
    40115eb0:	9ba87c08 	umull	x8, w0, w8
    40115eb4:	72a001e9 	movk	w9, #0xf, lsl #16
    40115eb8:	d372fd08 	lsr	x8, x8, #50
    40115ebc:	52807d0a 	mov	w10, #0x3e8                 	// #1000
    40115ec0:	1b098109 	msub	w9, w8, w9, w0
    40115ec4:	1b0a7d29 	mul	w9, w9, w10
    40115ec8:	910003e0 	mov	x0, sp
    40115ecc:	910003e1 	mov	x1, sp
    40115ed0:	a90027e8 	stp	x8, x9, [sp]
    40115ed4:	97ffffc5 	bl	0x40115de8
    40115ed8:	b108001f 	cmn	x0, #0x200
    40115edc:	540000a3 	b.cc	0x40115ef0  // b.lo, b.ul, b.last
    40115ee0:	4b0003f3 	neg	w19, w0
    40115ee4:	97ffde2c 	bl	0x4010d794
    40115ee8:	b9000013 	str	w19, [x0]
    40115eec:	92800000 	mov	x0, #0xffffffffffffffff    	// #-1
    40115ef0:	f94013f3 	ldr	x19, [sp, #32]
    40115ef4:	a9417bfd 	ldp	x29, x30, [sp, #16]
    40115ef8:	7100001f 	cmp	w0, #0x0
    40115efc:	5a9f03e0 	csetm	w0, ne  // ne = any
    40115f00:	9100c3ff 	add	sp, sp, #0x30
    40115f04:	d65f03c0 	ret
    40115f08:	d100c3ff 	sub	sp, sp, #0x30
    40115f0c:	a9017bfd 	stp	x29, x30, [sp, #16]
    40115f10:	f90013f3 	str	x19, [sp, #32]
    40115f14:	910043fd 	add	x29, sp, #0x10
    40115f18:	2a0003e8 	mov	w8, w0
    40115f1c:	910003e0 	mov	x0, sp
    40115f20:	910003e1 	mov	x1, sp
    40115f24:	a9007fe8 	stp	x8, xzr, [sp]
    40115f28:	97ffffb0 	bl	0x40115de8
    40115f2c:	b108001f 	cmn	x0, #0x200
    40115f30:	540000a3 	b.cc	0x40115f44  // b.lo, b.ul, b.last
    40115f34:	4b0003f3 	neg	w19, w0
    40115f38:	97ffde17 	bl	0x4010d794
    40115f3c:	b9000013 	str	w19, [x0]
    40115f40:	92800000 	mov	x0, #0xffffffffffffffff    	// #-1
    40115f44:	b94003e8 	ldr	w8, [sp]
    40115f48:	f94013f3 	ldr	x19, [sp, #32]
    40115f4c:	a9417bfd 	ldp	x29, x30, [sp, #16]
    40115f50:	7100001f 	cmp	w0, #0x0
    40115f54:	1a8803e0 	csel	w0, wzr, w8, eq  // eq = none
    40115f58:	9100c3ff 	add	sp, sp, #0x30
    40115f5c:	d65f03c0 	ret
    40115f60:	a9be7bfd 	stp	x29, x30, [sp, #-32]!
    40115f64:	f9000bf3 	str	x19, [sp, #16]
    40115f68:	910003fd 	mov	x29, sp
    40115f6c:	aa0003f3 	mov	x19, x0
    40115f70:	97ffab88 	bl	0x40100d90
    40115f74:	d28b4a69 	mov	x9, #0x5a53                	// #23123
    40115f78:	f2b41369 	movk	x9, #0xa09b, lsl #16
    40115f7c:	f2d705e9 	movk	x9, #0xb82f, lsl #32
    40115f80:	d349fc08 	lsr	x8, x0, #9
    40115f84:	f2e00889 	movk	x9, #0x44, lsl #48
    40115f88:	9bc97d08 	umulh	x8, x8, x9
    40115f8c:	d34bfd00 	lsr	x0, x8, #11
    40115f90:	b4000053 	cbz	x19, 0x40115f98
    40115f94:	f9000260 	str	x0, [x19]
    40115f98:	f9400bf3 	ldr	x19, [sp, #16]
    40115f9c:	a8c27bfd 	ldp	x29, x30, [sp], #32
    40115fa0:	d65f03c0 	ret
    40115fa4:	a9be7bfd 	stp	x29, x30, [sp, #-32]!
    40115fa8:	f9000bf3 	str	x19, [sp, #16]
    40115fac:	910003fd 	mov	x29, sp
    40115fb0:	aa0003f3 	mov	x19, x0
    40115fb4:	97ffab77 	bl	0x40100d90
    40115fb8:	d28b4a69 	mov	x9, #0x5a53                	// #23123
    40115fbc:	f2b41369 	movk	x9, #0xa09b, lsl #16
    40115fc0:	f2d705e9 	movk	x9, #0xb82f, lsl #32
    40115fc4:	d349fc08 	lsr	x8, x0, #9
    40115fc8:	f2e00889 	movk	x9, #0x44, lsl #48
    40115fcc:	9bc97d08 	umulh	x8, x8, x9
    40115fd0:	d34bfd00 	lsr	x0, x8, #11
    40115fd4:	b4000053 	cbz	x19, 0x40115fdc
    40115fd8:	f9000260 	str	x0, [x19]
    40115fdc:	f9400bf3 	ldr	x19, [sp, #16]
    40115fe0:	a8c27bfd 	ldp	x29, x30, [sp], #32
    40115fe4:	d65f03c0 	ret
    40115fe8:	a9be7bfd 	stp	x29, x30, [sp, #-32]!
    40115fec:	f9000bf3 	str	x19, [sp, #16]
    40115ff0:	910003fd 	mov	x29, sp
    40115ff4:	aa0003f3 	mov	x19, x0
    40115ff8:	97ffab66 	bl	0x40100d90
    40115ffc:	d28b4a69 	mov	x9, #0x5a53                	// #23123
    40116000:	f2b41369 	movk	x9, #0xa09b, lsl #16
    40116004:	f2d705e9 	movk	x9, #0xb82f, lsl #32
    40116008:	d349fc08 	lsr	x8, x0, #9
    4011600c:	f2e00889 	movk	x9, #0x44, lsl #48
    40116010:	9bc97d08 	umulh	x8, x8, x9
    40116014:	d34bfd00 	lsr	x0, x8, #11
    40116018:	b4000053 	cbz	x19, 0x40116020
    4011601c:	f9000260 	str	x0, [x19]
    40116020:	f9400bf3 	ldr	x19, [sp, #16]
    40116024:	a8c27bfd 	ldp	x29, x30, [sp], #32
    40116028:	d65f03c0 	ret
    4011602c:	a9be7bfd 	stp	x29, x30, [sp, #-32]!
    40116030:	f9000bf3 	str	x19, [sp, #16]
    40116034:	910003fd 	mov	x29, sp
    40116038:	aa0003f3 	mov	x19, x0
    4011603c:	97ffab55 	bl	0x40100d90
    40116040:	b4000273 	cbz	x19, 0x4011608c
    40116044:	d28b4a6a 	mov	x10, #0x5a53                	// #23123
    40116048:	f2b4136a 	movk	x10, #0xa09b, lsl #16
    4011604c:	aa0003e8 	mov	x8, x0
    40116050:	f2d705ea 	movk	x10, #0xb82f, lsl #32
    40116054:	d349fd09 	lsr	x9, x8, #9
    40116058:	f2e0088a 	movk	x10, #0x44, lsl #48
    4011605c:	5299400b 	mov	w11, #0xca00                	// #51712
    40116060:	9bca7d29 	umulh	x9, x9, x10
    40116064:	72a7734b 	movk	w11, #0x3b9a, lsl #16
    40116068:	5289ba6c 	mov	w12, #0x4dd3                	// #19923
    4011606c:	d34bfd29 	lsr	x9, x9, #11
    40116070:	72a20c4c 	movk	w12, #0x1062, lsl #16
    40116074:	1b0ba128 	msub	w8, w9, w11, w8
    40116078:	9bac7d08 	umull	x8, w8, w12
    4011607c:	d366fd08 	lsr	x8, x8, #38
    40116080:	2a1f03e0 	mov	w0, wzr
    40116084:	a9002269 	stp	x9, x8, [x19]
    40116088:	14000005 	b	0x4011609c
    4011608c:	97ffddc2 	bl	0x4010d794
    40116090:	528002c8 	mov	w8, #0x16                  	// #22
    40116094:	b9000008 	str	w8, [x0]
    40116098:	12800000 	mov	w0, #0xffffffff            	// #-1
    4011609c:	f9400bf3 	ldr	x19, [sp, #16]
    401160a0:	a8c27bfd 	ldp	x29, x30, [sp], #32
    401160a4:	d65f03c0 	ret
    401160a8:	a9be7bfd 	stp	x29, x30, [sp, #-32]!
    401160ac:	f9000bf3 	str	x19, [sp, #16]
    401160b0:	910003fd 	mov	x29, sp
    401160b4:	aa0003f3 	mov	x19, x0
    401160b8:	97ffab36 	bl	0x40100d90
    401160bc:	b4000273 	cbz	x19, 0x40116108
    401160c0:	d28b4a6a 	mov	x10, #0x5a53                	// #23123
    401160c4:	f2b4136a 	movk	x10, #0xa09b, lsl #16
    401160c8:	aa0003e8 	mov	x8, x0
    401160cc:	f2d705ea 	movk	x10, #0xb82f, lsl #32
    401160d0:	d349fd09 	lsr	x9, x8, #9
    401160d4:	f2e0088a 	movk	x10, #0x44, lsl #48
    401160d8:	5299400b 	mov	w11, #0xca00                	// #51712
    401160dc:	9bca7d29 	umulh	x9, x9, x10
    401160e0:	72a7734b 	movk	w11, #0x3b9a, lsl #16
    401160e4:	5289ba6c 	mov	w12, #0x4dd3                	// #19923
    401160e8:	d34bfd29 	lsr	x9, x9, #11
    401160ec:	72a20c4c 	movk	w12, #0x1062, lsl #16
    401160f0:	1b0ba128 	msub	w8, w9, w11, w8
    401160f4:	9bac7d08 	umull	x8, w8, w12
    401160f8:	d366fd08 	lsr	x8, x8, #38
    401160fc:	aa1f03e0 	mov	x0, xzr
    40116100:	a9002269 	stp	x9, x8, [x19]
    40116104:	14000005 	b	0x40116118
    40116108:	97ffdda3 	bl	0x4010d794
    4011610c:	528002c8 	mov	w8, #0x16                  	// #22
    40116110:	b9000008 	str	w8, [x0]
    40116114:	92800000 	mov	x0, #0xffffffffffffffff    	// #-1
    40116118:	f9400bf3 	ldr	x19, [sp, #16]
    4011611c:	a8c27bfd 	ldp	x29, x30, [sp], #32
    40116120:	d65f03c0 	ret
    40116124:	a9be7bfd 	stp	x29, x30, [sp, #-32]!
    40116128:	f9000bf3 	str	x19, [sp, #16]
    4011612c:	910003fd 	mov	x29, sp
    40116130:	aa0003f3 	mov	x19, x0
    40116134:	97ffab17 	bl	0x40100d90
    40116138:	b4000273 	cbz	x19, 0x40116184
    4011613c:	d28b4a6a 	mov	x10, #0x5a53                	// #23123
    40116140:	f2b4136a 	movk	x10, #0xa09b, lsl #16
    40116144:	aa0003e8 	mov	x8, x0
    40116148:	f2d705ea 	movk	x10, #0xb82f, lsl #32
    4011614c:	d349fd09 	lsr	x9, x8, #9
    40116150:	f2e0088a 	movk	x10, #0x44, lsl #48
    40116154:	5299400b 	mov	w11, #0xca00                	// #51712
    40116158:	9bca7d29 	umulh	x9, x9, x10
    4011615c:	72a7734b 	movk	w11, #0x3b9a, lsl #16
    40116160:	5289ba6c 	mov	w12, #0x4dd3                	// #19923
    40116164:	d34bfd29 	lsr	x9, x9, #11
    40116168:	72a20c4c 	movk	w12, #0x1062, lsl #16
    4011616c:	1b0ba128 	msub	w8, w9, w11, w8
    40116170:	9bac7d08 	umull	x8, w8, w12
    40116174:	aa1f03e0 	mov	x0, xzr
    40116178:	d366fd08 	lsr	x8, x8, #38
    4011617c:	a9002269 	stp	x9, x8, [x19]
    40116180:	14000002 	b	0x40116188
    40116184:	928002a0 	mov	x0, #0xffffffffffffffea    	// #-22
    40116188:	f9400bf3 	ldr	x19, [sp, #16]
    4011618c:	a8c27bfd 	ldp	x29, x30, [sp], #32
    40116190:	d65f03c0 	ret
    40116194:	2a1f03e0 	mov	w0, wzr
    40116198:	d65f03c0 	ret
    4011619c:	aa1f03e0 	mov	x0, xzr
    401161a0:	d65f03c0 	ret
    401161a4:	aa1f03e0 	mov	x0, xzr
    401161a8:	d65f03c0 	ret
    401161ac:	a9be7bfd 	stp	x29, x30, [sp, #-32]!
    401161b0:	f9000bf3 	str	x19, [sp, #16]
    401161b4:	910003fd 	mov	x29, sp
    401161b8:	b4000121 	cbz	x1, 0x401161dc
    401161bc:	aa0103f3 	mov	x19, x1
    401161c0:	34000120 	cbz	w0, 0x401161e4
    401161c4:	7100181f 	cmp	w0, #0x6
    401161c8:	54000060 	b.eq	0x401161d4  // b.none
    401161cc:	7100041f 	cmp	w0, #0x1
    401161d0:	54000281 	b.ne	0x40116220  // b.any
    401161d4:	97ffaadc 	bl	0x40100d44
    401161d8:	14000004 	b	0x401161e8
    401161dc:	528001d3 	mov	w19, #0xe                   	// #14
    401161e0:	14000011 	b	0x40116224
    401161e4:	97ffaaeb 	bl	0x40100d90
    401161e8:	d28b4a6a 	mov	x10, #0x5a53                	// #23123
    401161ec:	f2b4136a 	movk	x10, #0xa09b, lsl #16
    401161f0:	aa0003e8 	mov	x8, x0
    401161f4:	f2d705ea 	movk	x10, #0xb82f, lsl #32
    401161f8:	d349fd09 	lsr	x9, x8, #9
    401161fc:	f2e0088a 	movk	x10, #0x44, lsl #48
    40116200:	5299400b 	mov	w11, #0xca00                	// #51712
    40116204:	9bca7d29 	umulh	x9, x9, x10
    40116208:	72a7734b 	movk	w11, #0x3b9a, lsl #16
    4011620c:	d34bfd29 	lsr	x9, x9, #11
    40116210:	2a1f03e0 	mov	w0, wzr
    40116214:	9b0ba128 	msub	x8, x9, x11, x8
    40116218:	a9002269 	stp	x9, x8, [x19]
    4011621c:	14000005 	b	0x40116230
    40116220:	528002d3 	mov	w19, #0x16                  	// #22
    40116224:	97ffdd5c 	bl	0x4010d794
    40116228:	b9000013 	str	w19, [x0]
    4011622c:	12800000 	mov	w0, #0xffffffff            	// #-1
    40116230:	f9400bf3 	ldr	x19, [sp, #16]
    40116234:	a8c27bfd 	ldp	x29, x30, [sp], #32
    40116238:	d65f03c0 	ret
    4011623c:	a9be7bfd 	stp	x29, x30, [sp, #-32]!
    40116240:	f9000bf3 	str	x19, [sp, #16]
    40116244:	910003fd 	mov	x29, sp
    40116248:	b4000121 	cbz	x1, 0x4011626c
    4011624c:	aa0103f3 	mov	x19, x1
    40116250:	34000120 	cbz	w0, 0x40116274
    40116254:	7100181f 	cmp	w0, #0x6
    40116258:	54000060 	b.eq	0x40116264  // b.none
    4011625c:	7100041f 	cmp	w0, #0x1
    40116260:	54000281 	b.ne	0x401162b0  // b.any
    40116264:	97ffaab8 	bl	0x40100d44
    40116268:	14000004 	b	0x40116278
    4011626c:	528001d3 	mov	w19, #0xe                   	// #14
    40116270:	14000011 	b	0x401162b4
    40116274:	97ffaac7 	bl	0x40100d90
    40116278:	d28b4a6a 	mov	x10, #0x5a53                	// #23123
    4011627c:	f2b4136a 	movk	x10, #0xa09b, lsl #16
    40116280:	aa0003e8 	mov	x8, x0
    40116284:	f2d705ea 	movk	x10, #0xb82f, lsl #32
    40116288:	d349fd09 	lsr	x9, x8, #9
    4011628c:	f2e0088a 	movk	x10, #0x44, lsl #48
    40116290:	5299400b 	mov	w11, #0xca00                	// #51712
    40116294:	9bca7d29 	umulh	x9, x9, x10
    40116298:	72a7734b 	movk	w11, #0x3b9a, lsl #16
    4011629c:	d34bfd29 	lsr	x9, x9, #11
    401162a0:	aa1f03e0 	mov	x0, xzr
    401162a4:	9b0ba128 	msub	x8, x9, x11, x8
    401162a8:	a9002269 	stp	x9, x8, [x19]
    401162ac:	14000005 	b	0x401162c0
    401162b0:	528002d3 	mov	w19, #0x16                  	// #22
    401162b4:	97ffdd38 	bl	0x4010d794
    401162b8:	b9000013 	str	w19, [x0]
    401162bc:	92800000 	mov	x0, #0xffffffffffffffff    	// #-1
    401162c0:	f9400bf3 	ldr	x19, [sp, #16]
    401162c4:	a8c27bfd 	ldp	x29, x30, [sp], #32
    401162c8:	d65f03c0 	ret
    401162cc:	a9be7bfd 	stp	x29, x30, [sp, #-32]!
    401162d0:	f9000bf3 	str	x19, [sp, #16]
    401162d4:	910003fd 	mov	x29, sp
    401162d8:	b4000121 	cbz	x1, 0x401162fc
    401162dc:	aa0103f3 	mov	x19, x1
    401162e0:	34000120 	cbz	w0, 0x40116304
    401162e4:	7100181f 	cmp	w0, #0x6
    401162e8:	54000060 	b.eq	0x401162f4  // b.none
    401162ec:	7100041f 	cmp	w0, #0x1
    401162f0:	54000281 	b.ne	0x40116340  // b.any
    401162f4:	97ffaa94 	bl	0x40100d44
    401162f8:	14000004 	b	0x40116308
    401162fc:	928001a0 	mov	x0, #0xfffffffffffffff2    	// #-14
    40116300:	14000011 	b	0x40116344
    40116304:	97ffaaa3 	bl	0x40100d90
    40116308:	d28b4a6a 	mov	x10, #0x5a53                	// #23123
    4011630c:	f2b4136a 	movk	x10, #0xa09b, lsl #16
    40116310:	aa0003e8 	mov	x8, x0
    40116314:	f2d705ea 	movk	x10, #0xb82f, lsl #32
    40116318:	d349fd09 	lsr	x9, x8, #9
    4011631c:	f2e0088a 	movk	x10, #0x44, lsl #48
    40116320:	5299400b 	mov	w11, #0xca00                	// #51712
    40116324:	9bca7d29 	umulh	x9, x9, x10
    40116328:	72a7734b 	movk	w11, #0x3b9a, lsl #16
    4011632c:	d34bfd29 	lsr	x9, x9, #11
    40116330:	aa1f03e0 	mov	x0, xzr
    40116334:	9b0ba128 	msub	x8, x9, x11, x8
    40116338:	a9002269 	stp	x9, x8, [x19]
    4011633c:	14000002 	b	0x40116344
    40116340:	928002a0 	mov	x0, #0xffffffffffffffea    	// #-22
    40116344:	f9400bf3 	ldr	x19, [sp, #16]
    40116348:	a8c27bfd 	ldp	x29, x30, [sp], #32
    4011634c:	d65f03c0 	ret
    40116350:	2a1f03e0 	mov	w0, wzr
    40116354:	d65f03c0 	ret
    40116358:	aa1f03e0 	mov	x0, xzr
    4011635c:	d65f03c0 	ret
    40116360:	aa1f03e0 	mov	x0, xzr
    40116364:	d65f03c0 	ret
    40116368:	a9bf7bfd 	stp	x29, x30, [sp, #-16]!
    4011636c:	910003fd 	mov	x29, sp
    40116370:	97ffdd09 	bl	0x4010d794
    40116374:	aa0003e8 	mov	x8, x0
    40116378:	52800c29 	mov	w9, #0x61                  	// #97
    4011637c:	12800000 	mov	w0, #0xffffffff            	// #-1
    40116380:	b9000109 	str	w9, [x8]
    40116384:	a8c17bfd 	ldp	x29, x30, [sp], #16
    40116388:	d65f03c0 	ret
    4011638c:	a9bf7bfd 	stp	x29, x30, [sp, #-16]!
    40116390:	910003fd 	mov	x29, sp
    40116394:	97ffdd00 	bl	0x4010d794
    40116398:	aa0003e8 	mov	x8, x0
    4011639c:	52800c29 	mov	w9, #0x61                  	// #97
    401163a0:	92800000 	mov	x0, #0xffffffffffffffff    	// #-1
    401163a4:	b9000109 	str	w9, [x8]
    401163a8:	a8c17bfd 	ldp	x29, x30, [sp], #16
    401163ac:	d65f03c0 	ret
    401163b0:	92800c00 	mov	x0, #0xffffffffffffff9f    	// #-97
    401163b4:	d65f03c0 	ret
    401163b8:	2a1f03e0 	mov	w0, wzr
    401163bc:	d65f03c0 	ret
    401163c0:	aa1f03e0 	mov	x0, xzr
    401163c4:	d65f03c0 	ret
    401163c8:	aa1f03e0 	mov	x0, xzr
    401163cc:	d65f03c0 	ret
    401163d0:	a9bf7bfd 	stp	x29, x30, [sp, #-16]!
    401163d4:	910003fd 	mov	x29, sp
    401163d8:	97ffdcef 	bl	0x4010d794
    401163dc:	aa0003e8 	mov	x8, x0
    401163e0:	52800c29 	mov	w9, #0x61                  	// #97
    401163e4:	12800000 	mov	w0, #0xffffffff            	// #-1
    401163e8:	b9000109 	str	w9, [x8]
    401163ec:	a8c17bfd 	ldp	x29, x30, [sp], #16
    401163f0:	d65f03c0 	ret
    401163f4:	a9bf7bfd 	stp	x29, x30, [sp, #-16]!
    401163f8:	910003fd 	mov	x29, sp
    401163fc:	97ffdce6 	bl	0x4010d794
    40116400:	aa0003e8 	mov	x8, x0
    40116404:	52800c29 	mov	w9, #0x61                  	// #97
    40116408:	92800000 	mov	x0, #0xffffffffffffffff    	// #-1
    4011640c:	b9000109 	str	w9, [x8]
    40116410:	a8c17bfd 	ldp	x29, x30, [sp], #16
    40116414:	d65f03c0 	ret
    40116418:	92800c00 	mov	x0, #0xffffffffffffff9f    	// #-97
    4011641c:	d65f03c0 	ret
    40116420:	a9bf7bfd 	stp	x29, x30, [sp, #-16]!
    40116424:	910003fd 	mov	x29, sp
    40116428:	97ffdcdb 	bl	0x4010d794
    4011642c:	aa0003e8 	mov	x8, x0
    40116430:	52800c29 	mov	w9, #0x61                  	// #97
    40116434:	12800000 	mov	w0, #0xffffffff            	// #-1
    40116438:	b9000109 	str	w9, [x8]
    4011643c:	a8c17bfd 	ldp	x29, x30, [sp], #16
    40116440:	d65f03c0 	ret
    40116444:	a9bf7bfd 	stp	x29, x30, [sp, #-16]!
    40116448:	910003fd 	mov	x29, sp
    4011644c:	97ffdcd2 	bl	0x4010d794
    40116450:	aa0003e8 	mov	x8, x0
    40116454:	52800c29 	mov	w9, #0x61                  	// #97
    40116458:	92800000 	mov	x0, #0xffffffffffffffff    	// #-1
    4011645c:	b9000109 	str	w9, [x8]
    40116460:	a8c17bfd 	ldp	x29, x30, [sp], #16
    40116464:	d65f03c0 	ret
    40116468:	92800c00 	mov	x0, #0xffffffffffffff9f    	// #-97
    4011646c:	d65f03c0 	ret
    40116470:	a9bf7bfd 	stp	x29, x30, [sp, #-16]!
    40116474:	910003fd 	mov	x29, sp
    40116478:	97ffdcc7 	bl	0x4010d794
    4011647c:	aa0003e8 	mov	x8, x0
    40116480:	52800c29 	mov	w9, #0x61                  	// #97
    40116484:	12800000 	mov	w0, #0xffffffff            	// #-1
    40116488:	b9000109 	str	w9, [x8]
    4011648c:	a8c17bfd 	ldp	x29, x30, [sp], #16
    40116490:	d65f03c0 	ret
    40116494:	a9bf7bfd 	stp	x29, x30, [sp, #-16]!
    40116498:	910003fd 	mov	x29, sp
    4011649c:	97ffdcbe 	bl	0x4010d794
    401164a0:	aa0003e8 	mov	x8, x0
    401164a4:	52800c29 	mov	w9, #0x61                  	// #97
    401164a8:	92800000 	mov	x0, #0xffffffffffffffff    	// #-1
    401164ac:	b9000109 	str	w9, [x8]
    401164b0:	a8c17bfd 	ldp	x29, x30, [sp], #16
    401164b4:	d65f03c0 	ret
    401164b8:	92800c00 	mov	x0, #0xffffffffffffff9f    	// #-97
    401164bc:	d65f03c0 	ret
    401164c0:	a9bf7bfd 	stp	x29, x30, [sp, #-16]!
    401164c4:	910003fd 	mov	x29, sp
    401164c8:	97ffdcb3 	bl	0x4010d794
    401164cc:	aa0003e8 	mov	x8, x0
    401164d0:	52800c29 	mov	w9, #0x61                  	// #97
    401164d4:	12800000 	mov	w0, #0xffffffff            	// #-1
    401164d8:	b9000109 	str	w9, [x8]
    401164dc:	a8c17bfd 	ldp	x29, x30, [sp], #16
    401164e0:	d65f03c0 	ret
    401164e4:	a9bf7bfd 	stp	x29, x30, [sp, #-16]!
    401164e8:	910003fd 	mov	x29, sp
    401164ec:	97ffdcaa 	bl	0x4010d794
    401164f0:	aa0003e8 	mov	x8, x0
    401164f4:	52800c29 	mov	w9, #0x61                  	// #97
    401164f8:	92800000 	mov	x0, #0xffffffffffffffff    	// #-1
    401164fc:	b9000109 	str	w9, [x8]
    40116500:	a8c17bfd 	ldp	x29, x30, [sp], #16
    40116504:	d65f03c0 	ret
    40116508:	92800c00 	mov	x0, #0xffffffffffffff9f    	// #-97
    4011650c:	d65f03c0 	ret
    40116510:	a9bf7bfd 	stp	x29, x30, [sp, #-16]!
    40116514:	910003fd 	mov	x29, sp
    40116518:	97ffdc9f 	bl	0x4010d794
    4011651c:	aa0003e8 	mov	x8, x0
    40116520:	52800c29 	mov	w9, #0x61                  	// #97
    40116524:	12800000 	mov	w0, #0xffffffff            	// #-1
    40116528:	b9000109 	str	w9, [x8]
    4011652c:	a8c17bfd 	ldp	x29, x30, [sp], #16
    40116530:	d65f03c0 	ret
    40116534:	a9bf7bfd 	stp	x29, x30, [sp, #-16]!
    40116538:	910003fd 	mov	x29, sp
    4011653c:	97ffdc96 	bl	0x4010d794
    40116540:	aa0003e8 	mov	x8, x0
    40116544:	52800c29 	mov	w9, #0x61                  	// #97
    40116548:	92800000 	mov	x0, #0xffffffffffffffff    	// #-1
    4011654c:	b9000109 	str	w9, [x8]
    40116550:	a8c17bfd 	ldp	x29, x30, [sp], #16
    40116554:	d65f03c0 	ret
    40116558:	92800c00 	mov	x0, #0xffffffffffffff9f    	// #-97
    4011655c:	d65f03c0 	ret
    40116560:	12001c08 	and	w8, w0, #0xff
    40116564:	7100311f 	cmp	w8, #0xc
    40116568:	54000228 	b.hi	0x401165ac  // b.pmore
    4011656c:	52800029 	mov	w9, #0x1                   	// #1
    40116570:	1ac82129 	lsl	w9, w9, w8
    40116574:	5282b54a 	mov	w10, #0x15aa                	// #5546
    40116578:	6a0a013f 	tst	w9, w10
    4011657c:	54000060 	b.eq	0x40116588  // b.none
    40116580:	528003e8 	mov	w8, #0x1f                  	// #31
    40116584:	1400000b 	b	0x401165b0
    40116588:	52814a0a 	mov	w10, #0xa50                 	// #2640
    4011658c:	6a0a013f 	tst	w9, w10
    40116590:	54000060 	b.eq	0x4011659c  // b.none
    40116594:	528003c8 	mov	w8, #0x1e                  	// #30
    40116598:	14000006 	b	0x401165b0
    4011659c:	7100091f 	cmp	w8, #0x2
    401165a0:	54000061 	b.ne	0x401165ac  // b.any
    401165a4:	52800388 	mov	w8, #0x1c                  	// #28
    401165a8:	14000002 	b	0x401165b0
    401165ac:	2a1f03e8 	mov	w8, wzr
    401165b0:	7100003f 	cmp	w1, #0x0
    401165b4:	12001c09 	and	w9, w0, #0xff
    401165b8:	1a9f07ea 	cset	w10, ne  // ne = any
    401165bc:	7100093f 	cmp	w9, #0x2
    401165c0:	1a9f17e9 	cset	w9, eq  // eq = none
    401165c4:	0a0a0129 	and	w9, w9, w10
    401165c8:	0b090100 	add	w0, w8, w9
    401165cc:	d65f03c0 	ret
    401165d0:	f240041f 	tst	x0, #0x3
    401165d4:	54000060 	b.eq	0x401165e0  // b.none
    401165d8:	2a1f03e0 	mov	w0, wzr
    401165dc:	d65f03c0 	ret
    401165e0:	d28b8528 	mov	x8, #0x5c29                	// #23593
    401165e4:	d283d709 	mov	x9, #0x1eb8                	// #7864
    401165e8:	f2b851e8 	movk	x8, #0xc28f, lsl #16
    401165ec:	f2bd70a9 	movk	x9, #0xeb85, lsl #16
    401165f0:	f2c51ea8 	movk	x8, #0x28f5, lsl #32
    401165f4:	f2d70a29 	movk	x9, #0xb851, lsl #32
    401165f8:	d291eb8a 	mov	x10, #0x8f5c                	// #36700
    401165fc:	f2f1eb88 	movk	x8, #0x8f5c, lsl #48
    40116600:	f2e0a3c9 	movk	x9, #0x51e, lsl #48
    40116604:	f2beb84a 	movk	x10, #0xf5c2, lsl #16
    40116608:	9b082409 	madd	x9, x0, x8, x9
    4011660c:	f2cb850a 	movk	x10, #0x5c28, lsl #32
    40116610:	93c90929 	ror	x9, x9, #2
    40116614:	f2e051ea 	movk	x10, #0x28f, lsl #48
    40116618:	eb0a013f 	cmp	x9, x10
    4011661c:	54000069 	b.ls	0x40116628  // b.plast
    40116620:	52800020 	mov	w0, #0x1                   	// #1
    40116624:	d65f03c0 	ret
    40116628:	d283d609 	mov	x9, #0x1eb0                	// #7856
    4011662c:	f2bd70a9 	movk	x9, #0xeb85, lsl #16
    40116630:	f2d70a29 	movk	x9, #0xb851, lsl #32
    40116634:	f2e0a3c9 	movk	x9, #0x51e, lsl #48
    40116638:	9b082408 	madd	x8, x0, x8, x9
    4011663c:	d2947ae9 	mov	x9, #0xa3d7                	// #41943
    40116640:	f2a7ae09 	movk	x9, #0x3d70, lsl #16
    40116644:	f2dae149 	movk	x9, #0xd70a, lsl #32
    40116648:	93c81108 	ror	x8, x8, #4
    4011664c:	f2e01469 	movk	x9, #0xa3, lsl #48
    40116650:	eb09011f 	cmp	x8, x9
    40116654:	1a9f27e0 	cset	w0, cc  // cc = lo, ul, last
    40116658:	d65f03c0 	ret
    4011665c:	a9bd7bfd 	stp	x29, x30, [sp, #-48]!
    40116660:	f9000bf5 	str	x21, [sp, #16]
    40116664:	a9024ff4 	stp	x20, x19, [sp, #32]
    40116668:	910003fd 	mov	x29, sp
    4011666c:	f9400009 	ldr	x9, [x0]
    40116670:	f11ec53f 	cmp	x9, #0x7b1
    40116674:	540025cd 	b.le	0x40116b2c
    40116678:	f240053f 	tst	x9, #0x3
    4011667c:	540002c1 	b.ne	0x401166d4  // b.any
    40116680:	d28b8528 	mov	x8, #0x5c29                	// #23593
    40116684:	f2b851e8 	movk	x8, #0xc28f, lsl #16
    40116688:	f2c51ea8 	movk	x8, #0x28f5, lsl #32
    4011668c:	d291eb8a 	mov	x10, #0x8f5c                	// #36700
    40116690:	f2f1eb88 	movk	x8, #0x8f5c, lsl #48
    40116694:	f2beb84a 	movk	x10, #0xf5c2, lsl #16
    40116698:	9b087d28 	mul	x8, x9, x8
    4011669c:	f2cb850a 	movk	x10, #0x5c28, lsl #32
    401166a0:	93c80908 	ror	x8, x8, #2
    401166a4:	f2e051ea 	movk	x10, #0x28f, lsl #48
    401166a8:	eb0a011f 	cmp	x8, x10
    401166ac:	54000288 	b.hi	0x401166fc  // b.pmore
    401166b0:	d287ae2a 	mov	x10, #0x3d71                	// #15729
    401166b4:	f2bae14a 	movk	x10, #0xd70a, lsl #16
    401166b8:	f2ce146a 	movk	x10, #0x70a3, lsl #32
    401166bc:	d344fd28 	lsr	x8, x9, #4
    401166c0:	f2e147aa 	movk	x10, #0xa3d, lsl #48
    401166c4:	9bca7d08 	umulh	x8, x8, x10
    401166c8:	5280320a 	mov	w10, #0x190                 	// #400
    401166cc:	9b0aa508 	msub	x8, x8, x10, x9
    401166d0:	b4000168 	cbz	x8, 0x401166fc
    401166d4:	aa1f03e8 	mov	x8, xzr
    401166d8:	f11f3d3f 	cmp	x9, #0x7cf
    401166dc:	540001a8 	b.hi	0x40116710  // b.pmore
    401166e0:	f11ecd3f 	cmp	x9, #0x7b3
    401166e4:	54001883 	b.cc	0x401169f4  // b.lo, b.ul, b.last
    401166e8:	d11ec92b 	sub	x11, x9, #0x7b2
    401166ec:	f100097f 	cmp	x11, #0x2
    401166f0:	540012a2 	b.cs	0x40116944  // b.hs, b.nlast
    401166f4:	5280f64a 	mov	w10, #0x7b2                 	// #1970
    401166f8:	140000e6 	b	0x40116a90
    401166fc:	39402008 	ldrb	w8, [x0, #8]
    40116700:	7100091f 	cmp	w8, #0x2
    40116704:	1a9f97e8 	cset	w8, hi  // hi = pmore
    40116708:	f11f3d3f 	cmp	x9, #0x7cf
    4011670c:	54fffea9 	b.ls	0x401166e0  // b.plast
    40116710:	d287ae2b 	mov	x11, #0x3d71                	// #15729
    40116714:	f2bae14b 	movk	x11, #0xd70a, lsl #16
    40116718:	d11f412a 	sub	x10, x9, #0x7d0
    4011671c:	f2ce146b 	movk	x11, #0x70a3, lsl #32
    40116720:	f2e147ab 	movk	x11, #0xa3d, lsl #48
    40116724:	d29eb86e 	mov	x14, #0xf5c3                	// #62915
    40116728:	d344fd4f 	lsr	x15, x10, #4
    4011672c:	928031ed 	mov	x13, #0xfffffffffffffe70    	// #-400
    40116730:	f2ab850e 	movk	x14, #0x5c28, lsl #16
    40116734:	9bcb7deb 	umulh	x11, x15, x11
    40116738:	f2d851ee 	movk	x14, #0xc28f, lsl #32
    4011673c:	9b0d296a 	madd	x10, x11, x13, x10
    40116740:	f2e51eae 	movk	x14, #0x28f5, lsl #48
    40116744:	d342fd4d 	lsr	x13, x10, #2
    40116748:	9bce7dad 	umulh	x13, x13, x14
    4011674c:	5287562c 	mov	w12, #0x3ab1                	// #15025
    40116750:	5291d58f 	mov	w15, #0x8eac                	// #36524
    40116754:	92800c6e 	mov	x14, #0xffffffffffffff9c    	// #-100
    40116758:	d342fdad 	lsr	x13, x13, #2
    4011675c:	72a0004c 	movk	w12, #0x2, lsl #16
    40116760:	9b0e29aa 	madd	x10, x13, x14, x10
    40116764:	9b0f7dad 	mul	x13, x13, x15
    40116768:	5280b6ae 	mov	w14, #0x5b5                 	// #1461
    4011676c:	9b0c356b 	madd	x11, x11, x12, x13
    40116770:	d342fd4c 	lsr	x12, x10, #2
    40116774:	9b0e2d8b 	madd	x11, x12, x14, x11
    40116778:	528559af 	mov	w15, #0x2acd                	// #10957
    4011677c:	8b080168 	add	x8, x11, x8
    40116780:	f240054a 	ands	x10, x10, #0x3
    40116784:	8b0f0108 	add	x8, x8, x15
    40116788:	54001360 	b.eq	0x401169f4  // b.none
    4011678c:	cb0a012b 	sub	x11, x9, x10
    40116790:	9100056c 	add	x12, x11, #0x1
    40116794:	eb0c013f 	cmp	x9, x12
    40116798:	9a8b852c 	csinc	x12, x9, x11, hi  // hi = pmore
    4011679c:	8b0a018a 	add	x10, x12, x10
    401167a0:	cb09014c 	sub	x12, x10, x9
    401167a4:	f100099f 	cmp	x12, #0x2
    401167a8:	54000062 	b.cs	0x401167b4  // b.hs, b.nlast
    401167ac:	aa0b03ea 	mov	x10, x11
    401167b0:	1400003e 	b	0x401168a8
    401167b4:	d28b852f 	mov	x15, #0x5c29                	// #23593
    401167b8:	d283d710 	mov	x16, #0x1eb8                	// #7864
    401167bc:	d283d611 	mov	x17, #0x1eb0                	// #7856
    401167c0:	d2947af2 	mov	x18, #0xa3d7                	// #41943
    401167c4:	d291eb81 	mov	x1, #0x8f5c                	// #36700
    401167c8:	d28f5c22 	mov	x2, #0x7ae1                	// #31457
    401167cc:	d28f5b23 	mov	x3, #0x7ad9                	// #31449
    401167d0:	f2b851ef 	movk	x15, #0xc28f, lsl #16
    401167d4:	f2bd70b0 	movk	x16, #0xeb85, lsl #16
    401167d8:	f2bd70b1 	movk	x17, #0xeb85, lsl #16
    401167dc:	f2a7ae12 	movk	x18, #0x3d70, lsl #16
    401167e0:	f2beb841 	movk	x1, #0xf5c2, lsl #16
    401167e4:	f2b5c282 	movk	x2, #0xae14, lsl #16
    401167e8:	f2b5c283 	movk	x3, #0xae14, lsl #16
    401167ec:	927ff98e 	and	x14, x12, #0xfffffffffffffffe
    401167f0:	f2c51eaf 	movk	x15, #0x28f5, lsl #32
    401167f4:	f2d70a30 	movk	x16, #0xb851, lsl #32
    401167f8:	f2d70a31 	movk	x17, #0xb851, lsl #32
    401167fc:	f2dae152 	movk	x18, #0xd70a, lsl #32
    40116800:	f2cb8501 	movk	x1, #0x5c28, lsl #32
    40116804:	f2dc28e2 	movk	x2, #0xe147, lsl #32
    40116808:	f2dc28e3 	movk	x3, #0xe147, lsl #32
    4011680c:	aa1f03ed 	mov	x13, xzr
    40116810:	f2f1eb8f 	movk	x15, #0x8f5c, lsl #48
    40116814:	f2e0a3d0 	movk	x16, #0x51e, lsl #48
    40116818:	f2e0a3d1 	movk	x17, #0x51e, lsl #48
    4011681c:	f2e01472 	movk	x18, #0xa3, lsl #48
    40116820:	f2e051e1 	movk	x1, #0x28f, lsl #48
    40116824:	f2f28f42 	movk	x2, #0x947a, lsl #48
    40116828:	f2f28f43 	movk	x3, #0x947a, lsl #48
    4011682c:	8b0e016a 	add	x10, x11, x14
    40116830:	52802da4 	mov	w4, #0x16d                 	// #365
    40116834:	aa0e03e5 	mov	x5, x14
    40116838:	9b0f7d73 	mul	x19, x11, x15
    4011683c:	8b110275 	add	x21, x19, x17
    40116840:	8b100274 	add	x20, x19, x16
    40116844:	93d512b5 	ror	x21, x21, #4
    40116848:	eb1202bf 	cmp	x21, x18
    4011684c:	93d40a94 	ror	x20, x20, #2
    40116850:	92400567 	and	x7, x11, #0x3
    40116854:	8b020275 	add	x21, x19, x2
    40116858:	8b030273 	add	x19, x19, x3
    4011685c:	fa412282 	ccmp	x20, x1, #0x2, cs  // cs = hs, nlast
    40116860:	93d31273 	ror	x19, x19, #4
    40116864:	fa4088e0 	ccmp	x7, #0x0, #0x0, hi  // hi = pmore
    40116868:	11000566 	add	w6, w11, #0x1
    4011686c:	93d50ab5 	ror	x21, x21, #2
    40116870:	9a841487 	cinc	x7, x4, eq  // eq = none
    40116874:	eb12027f 	cmp	x19, x18
    40116878:	924004c6 	and	x6, x6, #0x3
    4011687c:	fa4122a2 	ccmp	x21, x1, #0x2, cs  // cs = hs, nlast
    40116880:	fa4088c0 	ccmp	x6, #0x0, #0x0, hi  // hi = pmore
    40116884:	9a841486 	cinc	x6, x4, eq  // eq = none
    40116888:	8b0800e8 	add	x8, x7, x8
    4011688c:	f10008a5 	subs	x5, x5, #0x2
    40116890:	8b0d00cd 	add	x13, x6, x13
    40116894:	9100096b 	add	x11, x11, #0x2
    40116898:	54fffd01 	b.ne	0x40116838  // b.any
    4011689c:	eb0e019f 	cmp	x12, x14
    401168a0:	8b0801a8 	add	x8, x13, x8
    401168a4:	54000a80 	b.eq	0x401169f4  // b.none
    401168a8:	d29ae16b 	mov	x11, #0xd70b                	// #55051
    401168ac:	d28b852d 	mov	x13, #0x5c29                	// #23593
    401168b0:	d283d70e 	mov	x14, #0x1eb8                	// #7864
    401168b4:	d291eb8f 	mov	x15, #0x8f5c                	// #36700
    401168b8:	f2ae146b 	movk	x11, #0x70a3, lsl #16
    401168bc:	f2b851ed 	movk	x13, #0xc28f, lsl #16
    401168c0:	f2bd70ae 	movk	x14, #0xeb85, lsl #16
    401168c4:	f2beb84f 	movk	x15, #0xf5c2, lsl #16
    401168c8:	f2c147ab 	movk	x11, #0xa3d, lsl #32
    401168cc:	f2c51ead 	movk	x13, #0x28f5, lsl #32
    401168d0:	f2d70a2e 	movk	x14, #0xb851, lsl #32
    401168d4:	f2cb850f 	movk	x15, #0x5c28, lsl #32
    401168d8:	f2f47aeb 	movk	x11, #0xa3d7, lsl #48
    401168dc:	5280320c 	mov	w12, #0x190                 	// #400
    401168e0:	f2f1eb8d 	movk	x13, #0x8f5c, lsl #48
    401168e4:	f2e0a3ce 	movk	x14, #0x51e, lsl #48
    401168e8:	f2e051ef 	movk	x15, #0x28f, lsl #48
    401168ec:	14000006 	b	0x40116904
    401168f0:	52802db0 	mov	w16, #0x16d                 	// #365
    401168f4:	9100054a 	add	x10, x10, #0x1
    401168f8:	eb09015f 	cmp	x10, x9
    401168fc:	8b080208 	add	x8, x16, x8
    40116900:	540007a2 	b.cs	0x401169f4  // b.hs, b.nlast
    40116904:	f240055f 	tst	x10, #0x3
    40116908:	54ffff41 	b.ne	0x401168f0  // b.any
    4011690c:	9b0d3950 	madd	x16, x10, x13, x14
    40116910:	93d00a10 	ror	x16, x16, #2
    40116914:	eb0f021f 	cmp	x16, x15
    40116918:	54000128 	b.hi	0x4011693c  // b.pmore
    4011691c:	9b4b7d50 	smulh	x16, x10, x11
    40116920:	8b0a0210 	add	x16, x16, x10
    40116924:	9348fe11 	asr	x17, x16, #8
    40116928:	8b50fe30 	add	x16, x17, x16, lsr #63
    4011692c:	9b0caa11 	msub	x17, x16, x12, x10
    40116930:	52802dd0 	mov	w16, #0x16e                 	// #366
    40116934:	b5fffdf1 	cbnz	x17, 0x401168f0
    40116938:	17ffffef 	b	0x401168f4
    4011693c:	52802dd0 	mov	w16, #0x16e                 	// #366
    40116940:	17ffffed 	b	0x401168f4
    40116944:	d28b852f 	mov	x15, #0x5c29                	// #23593
    40116948:	d283d710 	mov	x16, #0x1eb8                	// #7864
    4011694c:	d283d611 	mov	x17, #0x1eb0                	// #7856
    40116950:	d2947af2 	mov	x18, #0xa3d7                	// #41943
    40116954:	d291eb81 	mov	x1, #0x8f5c                	// #36700
    40116958:	f2b851ef 	movk	x15, #0xc28f, lsl #16
    4011695c:	f2bd70b0 	movk	x16, #0xeb85, lsl #16
    40116960:	f2bd70b1 	movk	x17, #0xeb85, lsl #16
    40116964:	f2a7ae12 	movk	x18, #0x3d70, lsl #16
    40116968:	f2beb841 	movk	x1, #0xf5c2, lsl #16
    4011696c:	927ff96d 	and	x13, x11, #0xfffffffffffffffe
    40116970:	f2c51eaf 	movk	x15, #0x28f5, lsl #32
    40116974:	f2d70a30 	movk	x16, #0xb851, lsl #32
    40116978:	f2d70a31 	movk	x17, #0xb851, lsl #32
    4011697c:	f2dae152 	movk	x18, #0xd70a, lsl #32
    40116980:	f2cb8501 	movk	x1, #0x5c28, lsl #32
    40116984:	aa1f03ec 	mov	x12, xzr
    40116988:	aa1f03ee 	mov	x14, xzr
    4011698c:	f2f1eb8f 	movk	x15, #0x8f5c, lsl #48
    40116990:	f2e0a3d0 	movk	x16, #0x51e, lsl #48
    40116994:	f2e0a3d1 	movk	x17, #0x51e, lsl #48
    40116998:	f2e01472 	movk	x18, #0xa3, lsl #48
    4011699c:	f2e051e1 	movk	x1, #0x28f, lsl #48
    401169a0:	911ec9aa 	add	x10, x13, #0x7b2
    401169a4:	52802da2 	mov	w2, #0x16d                 	// #365
    401169a8:	911ec9c3 	add	x3, x14, #0x7b2
    401169ac:	927f0064 	and	x4, x3, #0x2
    401169b0:	9b0f7c63 	mul	x3, x3, x15
    401169b4:	8b100065 	add	x5, x3, x16
    401169b8:	8b110063 	add	x3, x3, x17
    401169bc:	93c31063 	ror	x3, x3, #4
    401169c0:	93c508a5 	ror	x5, x5, #2
    401169c4:	eb12007f 	cmp	x3, x18
    401169c8:	fa4120a2 	ccmp	x5, x1, #0x2, cs  // cs = hs, nlast
    401169cc:	fa408880 	ccmp	x4, #0x0, #0x0, hi  // hi = pmore
    401169d0:	910009ce 	add	x14, x14, #0x2
    401169d4:	9a821443 	cinc	x3, x2, eq  // eq = none
    401169d8:	eb0e01bf 	cmp	x13, x14
    401169dc:	8b080068 	add	x8, x3, x8
    401169e0:	d105b58c 	sub	x12, x12, #0x16d
    401169e4:	54fffe21 	b.ne	0x401169a8  // b.any
    401169e8:	eb0d017f 	cmp	x11, x13
    401169ec:	cb0c0108 	sub	x8, x8, x12
    401169f0:	54000501 	b.ne	0x40116a90  // b.any
    401169f4:	39402009 	ldrb	w9, [x0, #8]
    401169f8:	f100093f 	cmp	x9, #0x2
    401169fc:	54000223 	b.cc	0x40116a40  // b.lo, b.ul, b.last
    40116a00:	d000000b 	adrp	x11, 0x40118000
    40116a04:	5280002a 	mov	w10, #0x1                   	// #1
    40116a08:	9123216b 	add	x11, x11, #0x8c8
    40116a0c:	14000007 	b	0x40116a28
    40116a10:	93401d8c 	sxtb	x12, w12
    40116a14:	f86c796c 	ldr	x12, [x11, x12, lsl #3]
    40116a18:	9100054a 	add	x10, x10, #0x1
    40116a1c:	eb09015f 	cmp	x10, x9
    40116a20:	8b080188 	add	x8, x12, x8
    40116a24:	540000e2 	b.cs	0x40116a40  // b.hs, b.nlast
    40116a28:	5100054c 	sub	w12, w10, #0x1
    40116a2c:	12001d8d 	and	w13, w12, #0xff
    40116a30:	71002dbf 	cmp	w13, #0xb
    40116a34:	54fffee9 	b.ls	0x40116a10  // b.plast
    40116a38:	aa1f03ec 	mov	x12, xzr
    40116a3c:	17fffff7 	b	0x40116a18
    40116a40:	39402409 	ldrb	w9, [x0, #9]
    40116a44:	3940280b 	ldrb	w11, [x0, #10]
    40116a48:	39402c0d 	ldrb	w13, [x0, #11]
    40116a4c:	3940300e 	ldrb	w14, [x0, #12]
    40116a50:	5280030a 	mov	w10, #0x18                  	// #24
    40116a54:	8b090108 	add	x8, x8, x9
    40116a58:	5280078c 	mov	w12, #0x3c                  	// #60
    40116a5c:	9b0a2d08 	madd	x8, x8, x10, x11
    40116a60:	d2add629 	mov	x9, #0x6eb10000            	// #1857093632
    40116a64:	a9424ff4 	ldp	x20, x19, [sp, #32]
    40116a68:	f9400bf5 	ldr	x21, [sp, #16]
    40116a6c:	5299400f 	mov	w15, #0xca00                	// #51712
    40116a70:	9b0c3508 	madd	x8, x8, x12, x13
    40116a74:	f2d62d69 	movk	x9, #0xb16b, lsl #32
    40116a78:	72a7734f 	movk	w15, #0x3b9a, lsl #16
    40116a7c:	9b0c3908 	madd	x8, x8, x12, x14
    40116a80:	f2ffffe9 	movk	x9, #0xffff, lsl #48
    40116a84:	9b0f2500 	madd	x0, x8, x15, x9
    40116a88:	a8c37bfd 	ldp	x29, x30, [sp], #48
    40116a8c:	d65f03c0 	ret
    40116a90:	d29ae16b 	mov	x11, #0xd70b                	// #55051
    40116a94:	d28b852d 	mov	x13, #0x5c29                	// #23593
    40116a98:	d283d70e 	mov	x14, #0x1eb8                	// #7864
    40116a9c:	d291eb8f 	mov	x15, #0x8f5c                	// #36700
    40116aa0:	f2ae146b 	movk	x11, #0x70a3, lsl #16
    40116aa4:	f2b851ed 	movk	x13, #0xc28f, lsl #16
    40116aa8:	f2bd70ae 	movk	x14, #0xeb85, lsl #16
    40116aac:	f2beb84f 	movk	x15, #0xf5c2, lsl #16
    40116ab0:	f2c147ab 	movk	x11, #0xa3d, lsl #32
    40116ab4:	f2c51ead 	movk	x13, #0x28f5, lsl #32
    40116ab8:	f2d70a2e 	movk	x14, #0xb851, lsl #32
    40116abc:	f2cb850f 	movk	x15, #0x5c28, lsl #32
    40116ac0:	f2f47aeb 	movk	x11, #0xa3d7, lsl #48
    40116ac4:	5280320c 	mov	w12, #0x190                 	// #400
    40116ac8:	f2f1eb8d 	movk	x13, #0x8f5c, lsl #48
    40116acc:	f2e0a3ce 	movk	x14, #0x51e, lsl #48
    40116ad0:	f2e051ef 	movk	x15, #0x28f, lsl #48
    40116ad4:	14000006 	b	0x40116aec
    40116ad8:	52802db0 	mov	w16, #0x16d                 	// #365
    40116adc:	9100054a 	add	x10, x10, #0x1
    40116ae0:	eb0a013f 	cmp	x9, x10
    40116ae4:	8b080208 	add	x8, x16, x8
    40116ae8:	54fff860 	b.eq	0x401169f4  // b.none
    40116aec:	f240055f 	tst	x10, #0x3
    40116af0:	54ffff41 	b.ne	0x40116ad8  // b.any
    40116af4:	9b0d3950 	madd	x16, x10, x13, x14
    40116af8:	93d00a10 	ror	x16, x16, #2
    40116afc:	eb0f021f 	cmp	x16, x15
    40116b00:	54000128 	b.hi	0x40116b24  // b.pmore
    40116b04:	9b4b7d50 	smulh	x16, x10, x11
    40116b08:	8b0a0210 	add	x16, x16, x10
    40116b0c:	9348fe11 	asr	x17, x16, #8
    40116b10:	8b50fe30 	add	x16, x17, x16, lsr #63
    40116b14:	9b0caa11 	msub	x17, x16, x12, x10
    40116b18:	52802dd0 	mov	w16, #0x16e                 	// #366
    40116b1c:	b5fffdf1 	cbnz	x17, 0x40116ad8
    40116b20:	17ffffef 	b	0x40116adc
    40116b24:	52802dd0 	mov	w16, #0x16e                 	// #366
    40116b28:	17ffffed 	b	0x40116adc
    40116b2c:	90000021 	adrp	x1, 0x4011a000
    40116b30:	90000022 	adrp	x2, 0x4011a000
    40116b34:	d0000004 	adrp	x4, 0x40118000
    40116b38:	90000025 	adrp	x5, 0x4011a000
    40116b3c:	912eec21 	add	x1, x1, #0xbbb
    40116b40:	912f2442 	add	x2, x2, #0xbc9
    40116b44:	912c6c84 	add	x4, x4, #0xb1b
    40116b48:	912f50a5 	add	x5, x5, #0xbd4
    40116b4c:	52801663 	mov	w3, #0xb3                  	// #179
    40116b50:	2a1f03e0 	mov	w0, wzr
    40116b54:	97fff5ed 	bl	0x40114308
    40116b58:	52800060 	mov	w0, #0x3                   	// #3
    40116b5c:	97ffb13b 	bl	0x40103048
